
C:\Users\Ryan\AppData\Local\arduino\sketches\9178477E1167E5DC5A573C5D448AEA18/sport_main_code_2023.ino.elf:     file format elf32-avr


Disassembly of section .text:

00000000 <__vectors>:
__vectors():
       0:	0c 94 af 00 	jmp	0x15e	; 0x15e <__ctors_end>
       4:	0c 94 d9 00 	jmp	0x1b2	; 0x1b2 <__bad_interrupt>
       8:	0c 94 d9 00 	jmp	0x1b2	; 0x1b2 <__bad_interrupt>
       c:	0c 94 d9 00 	jmp	0x1b2	; 0x1b2 <__bad_interrupt>
      10:	0c 94 d9 00 	jmp	0x1b2	; 0x1b2 <__bad_interrupt>
      14:	0c 94 d9 00 	jmp	0x1b2	; 0x1b2 <__bad_interrupt>
      18:	0c 94 d9 00 	jmp	0x1b2	; 0x1b2 <__bad_interrupt>
      1c:	0c 94 d9 00 	jmp	0x1b2	; 0x1b2 <__bad_interrupt>
      20:	0c 94 d9 00 	jmp	0x1b2	; 0x1b2 <__bad_interrupt>
      24:	0c 94 d9 00 	jmp	0x1b2	; 0x1b2 <__bad_interrupt>
      28:	0c 94 d9 00 	jmp	0x1b2	; 0x1b2 <__bad_interrupt>
      2c:	0c 94 d9 00 	jmp	0x1b2	; 0x1b2 <__bad_interrupt>
      30:	0c 94 d9 00 	jmp	0x1b2	; 0x1b2 <__bad_interrupt>
      34:	0c 94 d9 00 	jmp	0x1b2	; 0x1b2 <__bad_interrupt>
      38:	0c 94 d9 00 	jmp	0x1b2	; 0x1b2 <__bad_interrupt>
      3c:	0c 94 d9 00 	jmp	0x1b2	; 0x1b2 <__bad_interrupt>
      40:	0c 94 6c 14 	jmp	0x28d8	; 0x28d8 <__vector_16>
      44:	0c 94 d9 00 	jmp	0x1b2	; 0x1b2 <__bad_interrupt>
      48:	0c 94 40 15 	jmp	0x2a80	; 0x2a80 <__vector_18>
      4c:	0c 94 16 15 	jmp	0x2a2c	; 0x2a2c <__vector_19>
      50:	0c 94 d9 00 	jmp	0x1b2	; 0x1b2 <__bad_interrupt>
      54:	0c 94 d9 00 	jmp	0x1b2	; 0x1b2 <__bad_interrupt>
      58:	0c 94 d9 00 	jmp	0x1b2	; 0x1b2 <__bad_interrupt>
      5c:	0c 94 d9 00 	jmp	0x1b2	; 0x1b2 <__bad_interrupt>
      60:	0c 94 d9 00 	jmp	0x1b2	; 0x1b2 <__bad_interrupt>
      64:	0c 94 d9 00 	jmp	0x1b2	; 0x1b2 <__bad_interrupt>
      68:	0c 94 d9 00 	jmp	0x1b2	; 0x1b2 <__bad_interrupt>
      6c:	0c 94 d9 00 	jmp	0x1b2	; 0x1b2 <__bad_interrupt>
      70:	0c 94 d9 00 	jmp	0x1b2	; 0x1b2 <__bad_interrupt>
      74:	0c 94 d9 00 	jmp	0x1b2	; 0x1b2 <__bad_interrupt>
      78:	0c 94 e0 14 	jmp	0x29c0	; 0x29c0 <__vector_30>
      7c:	0c 94 b6 14 	jmp	0x296c	; 0x296c <__vector_31>
      80:	0c 94 d9 00 	jmp	0x1b2	; 0x1b2 <__bad_interrupt>
      84:	0c 94 76 15 	jmp	0x2aec	; 0x2aec <__vector_33>
      88:	0c 94 d9 00 	jmp	0x1b2	; 0x1b2 <__bad_interrupt>

0000008c <__trampolines_end>:
__trampolines_start():
      8c:	00 00       	nop
      8e:	3a 00       	.word	0x003a	; ????
      90:	37 00       	.word	0x0037	; ????
      92:	34 00       	.word	0x0034	; ????
      94:	31 00       	.word	0x0031	; ????
      96:	22 00       	.word	0x0022	; ????
      98:	61 00       	.word	0x0061	; ????
      9a:	64 00       	.word	0x0064	; ????

0000009c <port_to_output_PGM>:
      9c:	00 00 3b 00 38 00 35 00 32 00 23 00 62 00 65 00     ..;.8.5.2.#.b.e.

000000ac <port_to_input_PGM>:
      ac:	00 00 39 00 36 00 33 00 30 00 21 00 20 00 63 00     ..9.6.3.0.!. .c.

000000bc <digital_pin_to_port_PGM>:
      bc:	05 05 05 05 05 05 05 05 02 02 02 02 02 02 02 02     ................
      cc:	07 07 04 04 04 04 04 04 04 04 07 07 03 03 03 03     ................
      dc:	03 03 03 03 07 01 01 01 01 01 01 01 01 06 06 06     ................
      ec:	06 06 06 06 06                                      .....

000000f1 <digital_pin_to_bit_mask_PGM>:
      f1:	01 02 04 08 10 20 40 80 01 02 04 08 10 20 40 80     ..... @...... @.
     101:	08 10 01 02 04 08 10 20 40 80 01 02 01 02 04 08     ....... @.......
     111:	10 20 40 80 04 80 40 20 10 08 04 02 01 01 02 04     . @...@ ........
     121:	08 10 20 40 80                                      .. @.

00000126 <digital_pin_to_timer_PGM>:
     126:	00 00 00 0a 0b 0c 00 00 00 00 00 00 01 04 05 06     ................
	...

0000015c <__ctors_start>:
__ctors_start():
     15c:	67 21       	and	r22, r7

0000015e <__ctors_end>:
__dtors_end():
     15e:	11 24       	eor	r1, r1
     160:	1f be       	out	0x3f, r1	; 63
     162:	cf ef       	ldi	r28, 0xFF	; 255
     164:	d0 e1       	ldi	r29, 0x10	; 16
     166:	de bf       	out	0x3e, r29	; 62
     168:	cd bf       	out	0x3d, r28	; 61

0000016a <__do_copy_data>:
__do_copy_data():
/home/jenkins-mingw32/workspace/avr-gcc-staging/label/Ubuntu14.04x64-mingw32/gcc-build/avr/avr51/libgcc/../../../../gcc/libgcc/config/avr/lib1funcs.S:2373
     16a:	18 e0       	ldi	r17, 0x08	; 8
/home/jenkins-mingw32/workspace/avr-gcc-staging/label/Ubuntu14.04x64-mingw32/gcc-build/avr/avr51/libgcc/../../../../gcc/libgcc/config/avr/lib1funcs.S:2374
     16c:	a0 e0       	ldi	r26, 0x00	; 0
/home/jenkins-mingw32/workspace/avr-gcc-staging/label/Ubuntu14.04x64-mingw32/gcc-build/avr/avr51/libgcc/../../../../gcc/libgcc/config/avr/lib1funcs.S:2375
     16e:	b1 e0       	ldi	r27, 0x01	; 1
/home/jenkins-mingw32/workspace/avr-gcc-staging/label/Ubuntu14.04x64-mingw32/gcc-build/avr/avr51/libgcc/../../../../gcc/libgcc/config/avr/lib1funcs.S:2376
     170:	e4 e9       	ldi	r30, 0x94	; 148
/home/jenkins-mingw32/workspace/avr-gcc-staging/label/Ubuntu14.04x64-mingw32/gcc-build/avr/avr51/libgcc/../../../../gcc/libgcc/config/avr/lib1funcs.S:2377
     172:	fc e6       	ldi	r31, 0x6C	; 108
/home/jenkins-mingw32/workspace/avr-gcc-staging/label/Ubuntu14.04x64-mingw32/gcc-build/avr/avr51/libgcc/../../../../gcc/libgcc/config/avr/lib1funcs.S:2378
     174:	00 e0       	ldi	r16, 0x00	; 0
/home/jenkins-mingw32/workspace/avr-gcc-staging/label/Ubuntu14.04x64-mingw32/gcc-build/avr/avr51/libgcc/../../../../gcc/libgcc/config/avr/lib1funcs.S:2379
     176:	0b bf       	out	0x3b, r16	; 59
/home/jenkins-mingw32/workspace/avr-gcc-staging/label/Ubuntu14.04x64-mingw32/gcc-build/avr/avr51/libgcc/../../../../gcc/libgcc/config/avr/lib1funcs.S:2380
     178:	02 c0       	rjmp	.+4      	; 0x17e <__do_copy_data+0x14>
/home/jenkins-mingw32/workspace/avr-gcc-staging/label/Ubuntu14.04x64-mingw32/gcc-build/avr/avr51/libgcc/../../../../gcc/libgcc/config/avr/lib1funcs.S:2382
     17a:	07 90       	elpm	r0, Z+
/home/jenkins-mingw32/workspace/avr-gcc-staging/label/Ubuntu14.04x64-mingw32/gcc-build/avr/avr51/libgcc/../../../../gcc/libgcc/config/avr/lib1funcs.S:2383
     17c:	0d 92       	st	X+, r0
/home/jenkins-mingw32/workspace/avr-gcc-staging/label/Ubuntu14.04x64-mingw32/gcc-build/avr/avr51/libgcc/../../../../gcc/libgcc/config/avr/lib1funcs.S:2385
     17e:	a2 36       	cpi	r26, 0x62	; 98
/home/jenkins-mingw32/workspace/avr-gcc-staging/label/Ubuntu14.04x64-mingw32/gcc-build/avr/avr51/libgcc/../../../../gcc/libgcc/config/avr/lib1funcs.S:2386
     180:	b1 07       	cpc	r27, r17
/home/jenkins-mingw32/workspace/avr-gcc-staging/label/Ubuntu14.04x64-mingw32/gcc-build/avr/avr51/libgcc/../../../../gcc/libgcc/config/avr/lib1funcs.S:2387
     182:	d9 f7       	brne	.-10     	; 0x17a <__do_copy_data+0x10>

00000184 <__do_clear_bss>:
__do_clear_bss():
/home/jenkins-mingw32/workspace/avr-gcc-staging/label/Ubuntu14.04x64-mingw32/gcc-build/avr/avr51/libgcc/../../../../gcc/libgcc/config/avr/lib1funcs.S:2441
     184:	2a e0       	ldi	r18, 0x0A	; 10
/home/jenkins-mingw32/workspace/avr-gcc-staging/label/Ubuntu14.04x64-mingw32/gcc-build/avr/avr51/libgcc/../../../../gcc/libgcc/config/avr/lib1funcs.S:2442
     186:	a2 e6       	ldi	r26, 0x62	; 98
/home/jenkins-mingw32/workspace/avr-gcc-staging/label/Ubuntu14.04x64-mingw32/gcc-build/avr/avr51/libgcc/../../../../gcc/libgcc/config/avr/lib1funcs.S:2443
     188:	b8 e0       	ldi	r27, 0x08	; 8
/home/jenkins-mingw32/workspace/avr-gcc-staging/label/Ubuntu14.04x64-mingw32/gcc-build/avr/avr51/libgcc/../../../../gcc/libgcc/config/avr/lib1funcs.S:2444
     18a:	01 c0       	rjmp	.+2      	; 0x18e <.do_clear_bss_start>

0000018c <.do_clear_bss_loop>:
/home/jenkins-mingw32/workspace/avr-gcc-staging/label/Ubuntu14.04x64-mingw32/gcc-build/avr/avr51/libgcc/../../../../gcc/libgcc/config/avr/lib1funcs.S:2446
     18c:	1d 92       	st	X+, r1

0000018e <.do_clear_bss_start>:
/home/jenkins-mingw32/workspace/avr-gcc-staging/label/Ubuntu14.04x64-mingw32/gcc-build/avr/avr51/libgcc/../../../../gcc/libgcc/config/avr/lib1funcs.S:2448
     18e:	a7 3d       	cpi	r26, 0xD7	; 215
/home/jenkins-mingw32/workspace/avr-gcc-staging/label/Ubuntu14.04x64-mingw32/gcc-build/avr/avr51/libgcc/../../../../gcc/libgcc/config/avr/lib1funcs.S:2449
     190:	b2 07       	cpc	r27, r18
/home/jenkins-mingw32/workspace/avr-gcc-staging/label/Ubuntu14.04x64-mingw32/gcc-build/avr/avr51/libgcc/../../../../gcc/libgcc/config/avr/lib1funcs.S:2450
     192:	e1 f7       	brne	.-8      	; 0x18c <.do_clear_bss_loop>

00000194 <__do_global_ctors>:
__do_global_ctors():
/home/jenkins-mingw32/workspace/avr-gcc-staging/label/Ubuntu14.04x64-mingw32/gcc-build/avr/avr51/libgcc/../../../../gcc/libgcc/config/avr/lib1funcs.S:2466
     194:	10 e0       	ldi	r17, 0x00	; 0
/home/jenkins-mingw32/workspace/avr-gcc-staging/label/Ubuntu14.04x64-mingw32/gcc-build/avr/avr51/libgcc/../../../../gcc/libgcc/config/avr/lib1funcs.S:2467
     196:	cf ea       	ldi	r28, 0xAF	; 175
/home/jenkins-mingw32/workspace/avr-gcc-staging/label/Ubuntu14.04x64-mingw32/gcc-build/avr/avr51/libgcc/../../../../gcc/libgcc/config/avr/lib1funcs.S:2468
     198:	d0 e0       	ldi	r29, 0x00	; 0
/home/jenkins-mingw32/workspace/avr-gcc-staging/label/Ubuntu14.04x64-mingw32/gcc-build/avr/avr51/libgcc/../../../../gcc/libgcc/config/avr/lib1funcs.S:2472
     19a:	04 c0       	rjmp	.+8      	; 0x1a4 <__do_global_ctors+0x10>
/home/jenkins-mingw32/workspace/avr-gcc-staging/label/Ubuntu14.04x64-mingw32/gcc-build/avr/avr51/libgcc/../../../../gcc/libgcc/config/avr/lib1funcs.S:2474
     19c:	21 97       	sbiw	r28, 0x01	; 1
/home/jenkins-mingw32/workspace/avr-gcc-staging/label/Ubuntu14.04x64-mingw32/gcc-build/avr/avr51/libgcc/../../../../gcc/libgcc/config/avr/lib1funcs.S:2480
     19e:	fe 01       	movw	r30, r28
/home/jenkins-mingw32/workspace/avr-gcc-staging/label/Ubuntu14.04x64-mingw32/gcc-build/avr/avr51/libgcc/../../../../gcc/libgcc/config/avr/lib1funcs.S:2481
     1a0:	0e 94 25 36 	call	0x6c4a	; 0x6c4a <__tablejump2__>
/home/jenkins-mingw32/workspace/avr-gcc-staging/label/Ubuntu14.04x64-mingw32/gcc-build/avr/avr51/libgcc/../../../../gcc/libgcc/config/avr/lib1funcs.S:2483
     1a4:	ce 3a       	cpi	r28, 0xAE	; 174
/home/jenkins-mingw32/workspace/avr-gcc-staging/label/Ubuntu14.04x64-mingw32/gcc-build/avr/avr51/libgcc/../../../../gcc/libgcc/config/avr/lib1funcs.S:2484
     1a6:	d1 07       	cpc	r29, r17
/home/jenkins-mingw32/workspace/avr-gcc-staging/label/Ubuntu14.04x64-mingw32/gcc-build/avr/avr51/libgcc/../../../../gcc/libgcc/config/avr/lib1funcs.S:2489
     1a8:	c9 f7       	brne	.-14     	; 0x19c <__do_global_ctors+0x8>
     1aa:	0e 94 e4 21 	call	0x43c8	; 0x43c8 <main>
     1ae:	0c 94 48 36 	jmp	0x6c90	; 0x6c90 <_exit>

000001b2 <__bad_interrupt>:
__vector_22():
     1b2:	0c 94 00 00 	jmp	0	; 0x0 <__vectors>

000001b6 <update_crc(unsigned short, unsigned short*, unsigned short) [clone .constprop.32]>:
update_crc():
C:\Users\Ryan\Documents\GitHub\sport_main_code_2023/sport_DXL2023.h:40
unsigned int puls_cnt;

unsigned char TxBuffer[20];
unsigned short gbpTxBuffer[20], gbpParameter[20], packet[30];

unsigned short update_crc(unsigned short crc_accum, unsigned short *data_blk_ptr, unsigned short data_blk_size)
     1b6:	cf 93       	push	r28
     1b8:	df 93       	push	r29
     1ba:	cd b7       	in	r28, 0x3d	; 61
     1bc:	de b7       	in	r29, 0x3e	; 62
     1be:	d2 50       	subi	r29, 0x02	; 2
     1c0:	0f b6       	in	r0, 0x3f	; 63
     1c2:	f8 94       	cli
     1c4:	de bf       	out	0x3e, r29	; 62
     1c6:	0f be       	out	0x3f, r0	; 63
     1c8:	cd bf       	out	0x3d, r28	; 61
C:\Users\Ryan\Documents\GitHub\sport_main_code_2023/sport_DXL2023.h:43
{
    unsigned short i, j;
    unsigned short crc_table[256] = {
     1ca:	80 e0       	ldi	r24, 0x00	; 0
     1cc:	92 e0       	ldi	r25, 0x02	; 2
     1ce:	ea e0       	ldi	r30, 0x0A	; 10
     1d0:	f1 e0       	ldi	r31, 0x01	; 1
     1d2:	de 01       	movw	r26, r28
     1d4:	11 96       	adiw	r26, 0x01	; 1
     1d6:	01 90       	ld	r0, Z+
     1d8:	0d 92       	st	X+, r0
     1da:	01 97       	sbiw	r24, 0x01	; 1
     1dc:	e1 f7       	brne	.-8      	; 0x1d6 <update_crc(unsigned short, unsigned short*, unsigned short) [clone .constprop.32]+0x20>
     1de:	ad e3       	ldi	r26, 0x3D	; 61
     1e0:	b9 e0       	ldi	r27, 0x09	; 9
     1e2:	29 e5       	ldi	r18, 0x59	; 89
     1e4:	39 e0       	ldi	r19, 0x09	; 9
     1e6:	90 e0       	ldi	r25, 0x00	; 0
     1e8:	80 e0       	ldi	r24, 0x00	; 0
C:\Users\Ryan\Documents\GitHub\sport_main_code_2023/sport_DXL2023.h:79
        0x0220, 0x8225, 0x822F, 0x022A, 0x823B, 0x023E, 0x0234, 0x8231,
        0x8213, 0x0216, 0x021C, 0x8219, 0x0208, 0x820D, 0x8207, 0x0202};

    for (j = 0; j < data_blk_size; j++)
    {
        i = ((unsigned short)(crc_accum >> 8) ^ data_blk_ptr[j]) & 0xFF;
     1ea:	6d 91       	ld	r22, X+
     1ec:	7d 91       	ld	r23, X+
C:\Users\Ryan\Documents\GitHub\sport_main_code_2023/sport_DXL2023.h:80
        crc_accum = (crc_accum << 8) ^ crc_table[i];
     1ee:	58 2f       	mov	r21, r24
     1f0:	44 27       	eor	r20, r20
C:\Users\Ryan\Documents\GitHub\sport_main_code_2023/sport_DXL2023.h:79
        0x0220, 0x8225, 0x822F, 0x022A, 0x823B, 0x023E, 0x0234, 0x8231,
        0x8213, 0x0216, 0x021C, 0x8219, 0x0208, 0x820D, 0x8207, 0x0202};

    for (j = 0; j < data_blk_size; j++)
    {
        i = ((unsigned short)(crc_accum >> 8) ^ data_blk_ptr[j]) & 0xFF;
     1f2:	e9 2f       	mov	r30, r25
     1f4:	ff 27       	eor	r31, r31
     1f6:	e6 27       	eor	r30, r22
C:\Users\Ryan\Documents\GitHub\sport_main_code_2023/sport_DXL2023.h:80
        crc_accum = (crc_accum << 8) ^ crc_table[i];
     1f8:	ee 0f       	add	r30, r30
     1fa:	ff 1f       	adc	r31, r31
     1fc:	81 e0       	ldi	r24, 0x01	; 1
     1fe:	90 e0       	ldi	r25, 0x00	; 0
     200:	8c 0f       	add	r24, r28
     202:	9d 1f       	adc	r25, r29
     204:	e8 0f       	add	r30, r24
     206:	f9 1f       	adc	r31, r25
     208:	80 81       	ld	r24, Z
     20a:	91 81       	ldd	r25, Z+1	; 0x01
     20c:	84 27       	eor	r24, r20
     20e:	95 27       	eor	r25, r21
C:\Users\Ryan\Documents\GitHub\sport_main_code_2023/sport_DXL2023.h:77
        0x8243, 0x0246, 0x024C, 0x8249, 0x0258, 0x825D, 0x8257, 0x0252,
        0x0270, 0x8275, 0x827F, 0x027A, 0x826B, 0x026E, 0x0264, 0x8261,
        0x0220, 0x8225, 0x822F, 0x022A, 0x823B, 0x023E, 0x0234, 0x8231,
        0x8213, 0x0216, 0x021C, 0x8219, 0x0208, 0x820D, 0x8207, 0x0202};

    for (j = 0; j < data_blk_size; j++)
     210:	2a 17       	cp	r18, r26
     212:	3b 07       	cpc	r19, r27
     214:	51 f7       	brne	.-44     	; 0x1ea <update_crc(unsigned short, unsigned short*, unsigned short) [clone .constprop.32]+0x34>
C:\Users\Ryan\Documents\GitHub\sport_main_code_2023/sport_DXL2023.h:83
    {
        i = ((unsigned short)(crc_accum >> 8) ^ data_blk_ptr[j]) & 0xFF;
        crc_accum = (crc_accum << 8) ^ crc_table[i];
    }
    return crc_accum;
}
     216:	de 5f       	subi	r29, 0xFE	; 254
     218:	0f b6       	in	r0, 0x3f	; 63
     21a:	f8 94       	cli
     21c:	de bf       	out	0x3e, r29	; 62
     21e:	0f be       	out	0x3f, r0	; 63
     220:	cd bf       	out	0x3d, r28	; 61
     222:	df 91       	pop	r29
     224:	cf 91       	pop	r28
     226:	08 95       	ret

00000228 <printf_putchar(char, __file*)>:
printf_putchar():
C:\Users\Ryan\AppData\Local\Arduino15\packages\MegaCore\hardware\avr\3.0.3\cores\MCUdude_corefiles/Print.cpp:204
}

// Custom implementation of printf borrowed from the teensy core files
static int16_t printf_putchar(char c, FILE *fp)
{
  ((class Print *)(fdev_get_udata(fp)))->write((uint8_t)c);
     228:	fb 01       	movw	r30, r22
     22a:	a4 85       	ldd	r26, Z+12	; 0x0c
     22c:	b5 85       	ldd	r27, Z+13	; 0x0d
     22e:	ed 91       	ld	r30, X+
     230:	fc 91       	ld	r31, X
     232:	11 97       	sbiw	r26, 0x01	; 1
     234:	01 90       	ld	r0, Z+
     236:	f0 81       	ld	r31, Z
     238:	e0 2d       	mov	r30, r0
     23a:	68 2f       	mov	r22, r24
     23c:	cd 01       	movw	r24, r26
     23e:	09 95       	icall
C:\Users\Ryan\AppData\Local\Arduino15\packages\MegaCore\hardware\avr\3.0.3\cores\MCUdude_corefiles/Print.cpp:206
  return 0;
}
     240:	90 e0       	ldi	r25, 0x00	; 0
     242:	80 e0       	ldi	r24, 0x00	; 0
     244:	08 95       	ret

00000246 <TwoWire::read()>:
read():
C:\Users\Ryan\AppData\Local\Arduino15\packages\MegaCore\hardware\avr\3.0.3\libraries\Wire\src\TwoWire/TwoWire.cpp:303
int TwoWire::read(void)
{
  int value = -1;

  // get each successive byte on each call
  if(rxBufferIndex < rxBufferLength){
     246:	90 91 3c 09 	lds	r25, 0x093C	; 0x80093c <TwoWire::rxBufferIndex>
     24a:	80 91 3b 09 	lds	r24, 0x093B	; 0x80093b <TwoWire::rxBufferLength>
C:\Users\Ryan\AppData\Local\Arduino15\packages\MegaCore\hardware\avr\3.0.3\libraries\Wire\src\TwoWire/TwoWire.cpp:300
// must be called in:
// slave rx event callback
// or after requestFrom(address, numBytes)
int TwoWire::read(void)
{
  int value = -1;
     24e:	2f ef       	ldi	r18, 0xFF	; 255
     250:	3f ef       	ldi	r19, 0xFF	; 255
C:\Users\Ryan\AppData\Local\Arduino15\packages\MegaCore\hardware\avr\3.0.3\libraries\Wire\src\TwoWire/TwoWire.cpp:303

  // get each successive byte on each call
  if(rxBufferIndex < rxBufferLength){
     252:	98 17       	cp	r25, r24
     254:	48 f4       	brcc	.+18     	; 0x268 <TwoWire::read()+0x22>
C:\Users\Ryan\AppData\Local\Arduino15\packages\MegaCore\hardware\avr\3.0.3\libraries\Wire\src\TwoWire/TwoWire.cpp:304
    value = rxBuffer[rxBufferIndex];
     256:	e9 2f       	mov	r30, r25
     258:	f0 e0       	ldi	r31, 0x00	; 0
     25a:	e5 5e       	subi	r30, 0xE5	; 229
     25c:	f6 4f       	sbci	r31, 0xF6	; 246
     25e:	20 81       	ld	r18, Z
     260:	30 e0       	ldi	r19, 0x00	; 0
C:\Users\Ryan\AppData\Local\Arduino15\packages\MegaCore\hardware\avr\3.0.3\libraries\Wire\src\TwoWire/TwoWire.cpp:305
    ++rxBufferIndex;
     262:	9f 5f       	subi	r25, 0xFF	; 255
     264:	90 93 3c 09 	sts	0x093C, r25	; 0x80093c <TwoWire::rxBufferIndex>
C:\Users\Ryan\AppData\Local\Arduino15\packages\MegaCore\hardware\avr\3.0.3\libraries\Wire\src\TwoWire/TwoWire.cpp:309
  }

  return value;
}
     268:	c9 01       	movw	r24, r18
     26a:	08 95       	ret

0000026c <TwoWire::read() [clone .constprop.22]>:
C:\Users\Ryan\AppData\Local\Arduino15\packages\MegaCore\hardware\avr\3.0.3\libraries\Wire\src\TwoWire/TwoWire.cpp:303
int TwoWire::read(void)
{
  int value = -1;

  // get each successive byte on each call
  if(rxBufferIndex < rxBufferLength){
     26c:	90 91 3c 09 	lds	r25, 0x093C	; 0x80093c <TwoWire::rxBufferIndex>
     270:	80 91 3b 09 	lds	r24, 0x093B	; 0x80093b <TwoWire::rxBufferLength>
C:\Users\Ryan\AppData\Local\Arduino15\packages\MegaCore\hardware\avr\3.0.3\libraries\Wire\src\TwoWire/TwoWire.cpp:300
// must be called in:
// slave rx event callback
// or after requestFrom(address, numBytes)
int TwoWire::read(void)
{
  int value = -1;
     274:	2f ef       	ldi	r18, 0xFF	; 255
     276:	3f ef       	ldi	r19, 0xFF	; 255
C:\Users\Ryan\AppData\Local\Arduino15\packages\MegaCore\hardware\avr\3.0.3\libraries\Wire\src\TwoWire/TwoWire.cpp:303

  // get each successive byte on each call
  if(rxBufferIndex < rxBufferLength){
     278:	98 17       	cp	r25, r24
     27a:	48 f4       	brcc	.+18     	; 0x28e <TwoWire::read() [clone .constprop.22]+0x22>
C:\Users\Ryan\AppData\Local\Arduino15\packages\MegaCore\hardware\avr\3.0.3\libraries\Wire\src\TwoWire/TwoWire.cpp:304
    value = rxBuffer[rxBufferIndex];
     27c:	e9 2f       	mov	r30, r25
     27e:	f0 e0       	ldi	r31, 0x00	; 0
     280:	e5 5e       	subi	r30, 0xE5	; 229
     282:	f6 4f       	sbci	r31, 0xF6	; 246
     284:	20 81       	ld	r18, Z
     286:	30 e0       	ldi	r19, 0x00	; 0
C:\Users\Ryan\AppData\Local\Arduino15\packages\MegaCore\hardware\avr\3.0.3\libraries\Wire\src\TwoWire/TwoWire.cpp:305
    ++rxBufferIndex;
     288:	9f 5f       	subi	r25, 0xFF	; 255
     28a:	90 93 3c 09 	sts	0x093C, r25	; 0x80093c <TwoWire::rxBufferIndex>
C:\Users\Ryan\AppData\Local\Arduino15\packages\MegaCore\hardware\avr\3.0.3\libraries\Wire\src\TwoWire/TwoWire.cpp:309
  }

  return value;
}
     28e:	c9 01       	movw	r24, r18
     290:	08 95       	ret

00000292 <TwoWire::endTransmission(unsigned char) [clone .constprop.18]>:
endTransmission():
C:\Users\Ryan\AppData\Local\Arduino15\packages\MegaCore\hardware\avr\3.0.3\libraries\Wire\src\TwoWire/TwoWire.cpp:224
//  the bus tenure has been properly ended with a STOP. It
//  is very possible to leave the bus in a hung state if
//  no call to endTransmission(true) is made. Some I2C
//  devices will behave oddly if they do not see a STOP.
//
uint8_t TwoWire::endTransmission(uint8_t sendStop)
     292:	28 2f       	mov	r18, r24
C:\Users\Ryan\AppData\Local\Arduino15\packages\MegaCore\hardware\avr\3.0.3\libraries\Wire\src\TwoWire/TwoWire.cpp:227
{
  // transmit buffer (blocking)
  uint8_t ret = twi_writeTo(txAddress, txBuffer, txBufferLength, 1, sendStop);
     294:	90 91 1a 09 	lds	r25, 0x091A	; 0x80091a <TwoWire::txBufferLength>
C:\Users\Ryan\AppData\Local\Arduino15\packages\MegaCore\hardware\avr\3.0.3\libraries\Wire\src\TwoWire\utility/twi.c:263
 */
uint8_t twi_writeTo(uint8_t address, uint8_t* data, uint8_t length, uint8_t wait, uint8_t sendStop)
{
  // ensure data will fit into buffer
  if(TWI_BUFFER_SIZE < length){
    return 1;
     298:	81 e0       	ldi	r24, 0x01	; 1
twi_writeTo():
C:\Users\Ryan\AppData\Local\Arduino15\packages\MegaCore\hardware\avr\3.0.3\libraries\Wire\src\TwoWire\utility/twi.c:262
 *          5 .. timeout
 */
uint8_t twi_writeTo(uint8_t address, uint8_t* data, uint8_t length, uint8_t wait, uint8_t sendStop)
{
  // ensure data will fit into buffer
  if(TWI_BUFFER_SIZE < length){
     29a:	91 32       	cpi	r25, 0x21	; 33
     29c:	08 f0       	brcs	.+2      	; 0x2a0 <TwoWire::endTransmission(unsigned char) [clone .constprop.18]+0xe>
     29e:	42 c0       	rjmp	.+132    	; 0x324 <TwoWire::endTransmission(unsigned char) [clone .constprop.18]+0x92>
C:\Users\Ryan\AppData\Local\Arduino15\packages\MegaCore\hardware\avr\3.0.3\libraries\Wire\src\TwoWire\utility/twi.c:276
        twi_handleTimeout(twi_do_reset_on_timeout);
        return (5);
      }
    }
  #else
    while(TWI_READY != twi_state){
     2a0:	80 91 f6 08 	lds	r24, 0x08F6	; 0x8008f6 <twi_state>
     2a4:	81 11       	cpse	r24, r1
     2a6:	fc cf       	rjmp	.-8      	; 0x2a0 <TwoWire::endTransmission(unsigned char) [clone .constprop.18]+0xe>
endTransmission():
C:\Users\Ryan\AppData\Local\Arduino15\packages\MegaCore\hardware\avr\3.0.3\libraries\Wire\src\TwoWire/TwoWire.cpp:227
     2a8:	80 91 19 09 	lds	r24, 0x0919	; 0x800919 <TwoWire::txAddress>
twi_writeTo():
C:\Users\Ryan\AppData\Local\Arduino15\packages\MegaCore\hardware\avr\3.0.3\libraries\Wire\src\TwoWire\utility/twi.c:281
      continue;
    }
  #endif

  twi_state = TWI_MTX;
     2ac:	32 e0       	ldi	r19, 0x02	; 2
     2ae:	30 93 f6 08 	sts	0x08F6, r19	; 0x8008f6 <twi_state>
C:\Users\Ryan\AppData\Local\Arduino15\packages\MegaCore\hardware\avr\3.0.3\libraries\Wire\src\TwoWire\utility/twi.c:282
  twi_sendStop = sendStop;
     2b2:	20 93 f5 08 	sts	0x08F5, r18	; 0x8008f5 <twi_sendStop>
C:\Users\Ryan\AppData\Local\Arduino15\packages\MegaCore\hardware\avr\3.0.3\libraries\Wire\src\TwoWire\utility/twi.c:284
  // reset error state (0xFF.. no error occurred)
  twi_error = 0xFF;
     2b6:	2f ef       	ldi	r18, 0xFF	; 255
     2b8:	20 93 f4 08 	sts	0x08F4, r18	; 0x8008f4 <twi_error>
C:\Users\Ryan\AppData\Local\Arduino15\packages\MegaCore\hardware\avr\3.0.3\libraries\Wire\src\TwoWire\utility/twi.c:287

  // initialize buffer iteration vars
  twi_masterBuffer = data;
     2bc:	29 ef       	ldi	r18, 0xF9	; 249
     2be:	38 e0       	ldi	r19, 0x08	; 8
     2c0:	30 93 f3 08 	sts	0x08F3, r19	; 0x8008f3 <twi_masterBuffer+0x1>
     2c4:	20 93 f2 08 	sts	0x08F2, r18	; 0x8008f2 <twi_masterBuffer>
C:\Users\Ryan\AppData\Local\Arduino15\packages\MegaCore\hardware\avr\3.0.3\libraries\Wire\src\TwoWire\utility/twi.c:288
  twi_masterBufferIndex = 0;
     2c8:	10 92 f1 08 	sts	0x08F1, r1	; 0x8008f1 <twi_masterBufferIndex>
C:\Users\Ryan\AppData\Local\Arduino15\packages\MegaCore\hardware\avr\3.0.3\libraries\Wire\src\TwoWire\utility/twi.c:289
  twi_masterBufferLength = length;
     2cc:	90 93 f0 08 	sts	0x08F0, r25	; 0x8008f0 <twi_masterBufferLength>
C:\Users\Ryan\AppData\Local\Arduino15\packages\MegaCore\hardware\avr\3.0.3\libraries\Wire\src\TwoWire\utility/twi.c:292

  // build sla+w, slave device address + w bit
  twi_slarw = TW_WRITE;
     2d0:	10 92 ef 08 	sts	0x08EF, r1	; 0x8008ef <twi_slarw>
C:\Users\Ryan\AppData\Local\Arduino15\packages\MegaCore\hardware\avr\3.0.3\libraries\Wire\src\TwoWire\utility/twi.c:293
  twi_slarw |= address << 1;
     2d4:	90 91 ef 08 	lds	r25, 0x08EF	; 0x8008ef <twi_slarw>
     2d8:	88 0f       	add	r24, r24
     2da:	89 2b       	or	r24, r25
     2dc:	80 93 ef 08 	sts	0x08EF, r24	; 0x8008ef <twi_slarw>
C:\Users\Ryan\AppData\Local\Arduino15\packages\MegaCore\hardware\avr\3.0.3\libraries\Wire\src\TwoWire\utility/twi.c:298

  // if we're in a repeated start, then we've already sent the START
  // in the ISR. Don't do it again.
  //
  if (true == twi_inRepStart) {
     2e0:	80 91 ee 08 	lds	r24, 0x08EE	; 0x8008ee <twi_inRepStart>
     2e4:	81 30       	cpi	r24, 0x01	; 1
     2e6:	29 f5       	brne	.+74     	; 0x332 <TwoWire::endTransmission(unsigned char) [clone .constprop.18]+0xa0>
C:\Users\Ryan\AppData\Local\Arduino15\packages\MegaCore\hardware\avr\3.0.3\libraries\Wire\src\TwoWire\utility/twi.c:305
    // (@@@ we hope), and the TWI statemachine is just waiting for the address byte.
    // We need to remove ourselves from the repeated start state before we enable interrupts,
    // since the ISR is ASYNC, and we could get confused if we hit the ISR before cleaning
    // up. Also, don't enable the START interrupt. There may be one pending from the
    // repeated start that we sent ourselves, and that would really confuse things.
    twi_inRepStart = false; // Remember, we're dealing with an ASYNC ISR
     2e8:	10 92 ee 08 	sts	0x08EE, r1	; 0x8008ee <twi_inRepStart>
C:\Users\Ryan\AppData\Local\Arduino15\packages\MegaCore\hardware\avr\3.0.3\libraries\Wire\src\TwoWire\utility/twi.c:316
          return (5);
        }
      } while(TWCR & _BV(TWWC));
    #else
      do {
        TWDR = twi_slarw;
     2ec:	80 91 ef 08 	lds	r24, 0x08EF	; 0x8008ef <twi_slarw>
     2f0:	80 93 73 00 	sts	0x0073, r24	; 0x800073 <__TEXT_REGION_LENGTH__+0x7e0073>
C:\Users\Ryan\AppData\Local\Arduino15\packages\MegaCore\hardware\avr\3.0.3\libraries\Wire\src\TwoWire\utility/twi.c:317
      } while(TWCR & _BV(TWWC));
     2f4:	80 91 74 00 	lds	r24, 0x0074	; 0x800074 <__TEXT_REGION_LENGTH__+0x7e0074>
     2f8:	83 fd       	sbrc	r24, 3
     2fa:	f8 cf       	rjmp	.-16     	; 0x2ec <TwoWire::endTransmission(unsigned char) [clone .constprop.18]+0x5a>
C:\Users\Ryan\AppData\Local\Arduino15\packages\MegaCore\hardware\avr\3.0.3\libraries\Wire\src\TwoWire\utility/twi.c:319
    #endif
    TWCR = _BV(TWINT) | _BV(TWEA) | _BV(TWEN) | _BV(TWIE);  // enable INTs, but not START
     2fc:	85 ec       	ldi	r24, 0xC5	; 197
C:\Users\Ryan\AppData\Local\Arduino15\packages\MegaCore\hardware\avr\3.0.3\libraries\Wire\src\TwoWire\utility/twi.c:323
  }
  else
    // send start condition
    TWCR = _BV(TWINT) | _BV(TWEA) | _BV(TWEN) | _BV(TWIE) | _BV(TWSTA); // enable INTs
     2fe:	80 93 74 00 	sts	0x0074, r24	; 0x800074 <__TEXT_REGION_LENGTH__+0x7e0074>
C:\Users\Ryan\AppData\Local\Arduino15\packages\MegaCore\hardware\avr\3.0.3\libraries\Wire\src\TwoWire\utility/twi.c:335
        twi_handleTimeout(twi_do_reset_on_timeout);
        return (5);
      }
    }
  #else
    while(wait && (TWI_MTX == twi_state)){
     302:	80 91 f6 08 	lds	r24, 0x08F6	; 0x8008f6 <twi_state>
     306:	82 30       	cpi	r24, 0x02	; 2
     308:	e1 f3       	breq	.-8      	; 0x302 <TwoWire::endTransmission(unsigned char) [clone .constprop.18]+0x70>
C:\Users\Ryan\AppData\Local\Arduino15\packages\MegaCore\hardware\avr\3.0.3\libraries\Wire\src\TwoWire\utility/twi.c:340
      continue;
    }
  #endif

  if (twi_error == 0xFF)
     30a:	80 91 f4 08 	lds	r24, 0x08F4	; 0x8008f4 <twi_error>
     30e:	8f 3f       	cpi	r24, 0xFF	; 255
     310:	91 f0       	breq	.+36     	; 0x336 <TwoWire::endTransmission(unsigned char) [clone .constprop.18]+0xa4>
C:\Users\Ryan\AppData\Local\Arduino15\packages\MegaCore\hardware\avr\3.0.3\libraries\Wire\src\TwoWire\utility/twi.c:342
    return 0; // success
  else if (twi_error == TW_MT_SLA_NACK)
     312:	80 91 f4 08 	lds	r24, 0x08F4	; 0x8008f4 <twi_error>
     316:	80 32       	cpi	r24, 0x20	; 32
     318:	81 f0       	breq	.+32     	; 0x33a <TwoWire::endTransmission(unsigned char) [clone .constprop.18]+0xa8>
C:\Users\Ryan\AppData\Local\Arduino15\packages\MegaCore\hardware\avr\3.0.3\libraries\Wire\src\TwoWire\utility/twi.c:344
    return 2; // error: address send, nack received
  else if (twi_error == TW_MT_DATA_NACK)
     31a:	80 91 f4 08 	lds	r24, 0x08F4	; 0x8008f4 <twi_error>
     31e:	80 33       	cpi	r24, 0x30	; 48
     320:	71 f0       	breq	.+28     	; 0x33e <TwoWire::endTransmission(unsigned char) [clone .constprop.18]+0xac>
endTransmission():
C:\Users\Ryan\AppData\Local\Arduino15\packages\MegaCore\hardware\avr\3.0.3\libraries\Wire\src\TwoWire\utility/twi.c:347
    return 3; // error: data send, nack received
  else
    return 4; // other twi error
     322:	84 e0       	ldi	r24, 0x04	; 4
C:\Users\Ryan\AppData\Local\Arduino15\packages\MegaCore\hardware\avr\3.0.3\libraries\Wire\src\TwoWire/TwoWire.cpp:229
  // reset tx buffer iterator vars
  txBufferIndex = 0;
     324:	10 92 f8 08 	sts	0x08F8, r1	; 0x8008f8 <TwoWire::txBufferIndex>
C:\Users\Ryan\AppData\Local\Arduino15\packages\MegaCore\hardware\avr\3.0.3\libraries\Wire\src\TwoWire/TwoWire.cpp:230
  txBufferLength = 0;
     328:	10 92 1a 09 	sts	0x091A, r1	; 0x80091a <TwoWire::txBufferLength>
C:\Users\Ryan\AppData\Local\Arduino15\packages\MegaCore\hardware\avr\3.0.3\libraries\Wire\src\TwoWire/TwoWire.cpp:232
  // indicate that we are done transmitting
  transmitting = 0;
     32c:	10 92 f7 08 	sts	0x08F7, r1	; 0x8008f7 <TwoWire::transmitting>
C:\Users\Ryan\AppData\Local\Arduino15\packages\MegaCore\hardware\avr\3.0.3\libraries\Wire\src\TwoWire/TwoWire.cpp:234
  return ret;
}
     330:	08 95       	ret
twi_writeTo():
C:\Users\Ryan\AppData\Local\Arduino15\packages\MegaCore\hardware\avr\3.0.3\libraries\Wire\src\TwoWire\utility/twi.c:323
    #endif
    TWCR = _BV(TWINT) | _BV(TWEA) | _BV(TWEN) | _BV(TWIE);  // enable INTs, but not START
  }
  else
    // send start condition
    TWCR = _BV(TWINT) | _BV(TWEA) | _BV(TWEN) | _BV(TWIE) | _BV(TWSTA); // enable INTs
     332:	85 ee       	ldi	r24, 0xE5	; 229
     334:	e4 cf       	rjmp	.-56     	; 0x2fe <TwoWire::endTransmission(unsigned char) [clone .constprop.18]+0x6c>
endTransmission():
C:\Users\Ryan\AppData\Local\Arduino15\packages\MegaCore\hardware\avr\3.0.3\libraries\Wire\src\TwoWire\utility/twi.c:341
      continue;
    }
  #endif

  if (twi_error == 0xFF)
    return 0; // success
     336:	80 e0       	ldi	r24, 0x00	; 0
     338:	f5 cf       	rjmp	.-22     	; 0x324 <TwoWire::endTransmission(unsigned char) [clone .constprop.18]+0x92>
C:\Users\Ryan\AppData\Local\Arduino15\packages\MegaCore\hardware\avr\3.0.3\libraries\Wire\src\TwoWire\utility/twi.c:343
  else if (twi_error == TW_MT_SLA_NACK)
    return 2; // error: address send, nack received
     33a:	82 e0       	ldi	r24, 0x02	; 2
     33c:	f3 cf       	rjmp	.-26     	; 0x324 <TwoWire::endTransmission(unsigned char) [clone .constprop.18]+0x92>
C:\Users\Ryan\AppData\Local\Arduino15\packages\MegaCore\hardware\avr\3.0.3\libraries\Wire\src\TwoWire\utility/twi.c:345
  else if (twi_error == TW_MT_DATA_NACK)
    return 3; // error: data send, nack received
     33e:	83 e0       	ldi	r24, 0x03	; 3
     340:	f1 cf       	rjmp	.-30     	; 0x324 <TwoWire::endTransmission(unsigned char) [clone .constprop.18]+0x92>

00000342 <TwoWire::beginTransmission(unsigned char) [clone .constprop.17]>:
beginTransmission():
C:\Users\Ryan\AppData\Local\Arduino15\packages\MegaCore\hardware\avr\3.0.3\libraries\Wire\src\TwoWire/TwoWire.cpp:198
}

void TwoWire::beginTransmission(uint8_t address)
{
  // indicate that we are transmitting
  transmitting = 1;
     342:	91 e0       	ldi	r25, 0x01	; 1
     344:	90 93 f7 08 	sts	0x08F7, r25	; 0x8008f7 <TwoWire::transmitting>
C:\Users\Ryan\AppData\Local\Arduino15\packages\MegaCore\hardware\avr\3.0.3\libraries\Wire\src\TwoWire/TwoWire.cpp:200
  // set address of targeted slave
  txAddress = address;
     348:	80 93 19 09 	sts	0x0919, r24	; 0x800919 <TwoWire::txAddress>
C:\Users\Ryan\AppData\Local\Arduino15\packages\MegaCore\hardware\avr\3.0.3\libraries\Wire\src\TwoWire/TwoWire.cpp:202
  // reset tx buffer iterator vars
  txBufferIndex = 0;
     34c:	10 92 f8 08 	sts	0x08F8, r1	; 0x8008f8 <TwoWire::txBufferIndex>
C:\Users\Ryan\AppData\Local\Arduino15\packages\MegaCore\hardware\avr\3.0.3\libraries\Wire\src\TwoWire/TwoWire.cpp:203
  txBufferLength = 0;
     350:	10 92 1a 09 	sts	0x091A, r1	; 0x80091a <TwoWire::txBufferLength>
C:\Users\Ryan\AppData\Local\Arduino15\packages\MegaCore\hardware\avr\3.0.3\libraries\Wire\src\TwoWire/TwoWire.cpp:204
}
     354:	08 95       	ret

00000356 <TwoWire::endTransmission() [clone .constprop.13]>:
endTransmission():
C:\Users\Ryan\AppData\Local\Arduino15\packages\MegaCore\hardware\avr\3.0.3\libraries\Wire\src\TwoWire/TwoWire.cpp:241
//  This provides backwards compatibility with the original
//  definition, and expected behaviour, of endTransmission
//
uint8_t TwoWire::endTransmission(void)
{
  return endTransmission(true);
     356:	81 e0       	ldi	r24, 0x01	; 1
     358:	0c 94 49 01 	jmp	0x292	; 0x292 <TwoWire::endTransmission(unsigned char) [clone .constprop.18]>

0000035c <turnOffPWM>:
turnOffPWM():
C:\Users\Ryan\AppData\Local\Arduino15\packages\MegaCore\hardware\avr\3.0.3\cores\MCUdude_corefiles/wiring_digital.c:77
//
//static inline void turnOffPWM(uint8_t timer) __attribute__ ((always_inline));
//static inline void turnOffPWM(uint8_t timer)
static void turnOffPWM(uint8_t timer)
{
  switch (timer)
     35c:	81 50       	subi	r24, 0x01	; 1
     35e:	8c 30       	cpi	r24, 0x0C	; 12
     360:	88 f5       	brcc	.+98     	; 0x3c4 <turnOffPWM+0x68>
     362:	e8 2f       	mov	r30, r24
     364:	f0 e0       	ldi	r31, 0x00	; 0
     366:	e9 54       	subi	r30, 0x49	; 73
     368:	fe 4f       	sbci	r31, 0xFE	; 254
     36a:	0c 94 25 36 	jmp	0x6c4a	; 0x6c4a <__tablejump2__>
     36e:	df 01       	movw	r26, r30
     370:	df 01       	movw	r26, r30
     372:	e2 01       	movw	r28, r4
     374:	c3 01       	movw	r24, r6
     376:	c7 01       	movw	r24, r14
     378:	ca 01       	movw	r24, r20
     37a:	cd 01       	movw	r24, r26
     37c:	e2 01       	movw	r28, r4
     37e:	e2 01       	movw	r28, r4
     380:	d1 01       	movw	r26, r2
     382:	d7 01       	movw	r26, r14
     384:	db 01       	movw	r26, r22
C:\Users\Ryan\AppData\Local\Arduino15\packages\MegaCore\hardware\avr\3.0.3\cores\MCUdude_corefiles/wiring_digital.c:82
  {
    // Timer1
    #if defined(TCCR1A) && defined(COM1A1)
      case TIMER1A:
        TCCR1A &= ~_BV(COM1A1);
     386:	8f b5       	in	r24, 0x2f	; 47
     388:	8f 77       	andi	r24, 0x7F	; 127
C:\Users\Ryan\AppData\Local\Arduino15\packages\MegaCore\hardware\avr\3.0.3\cores\MCUdude_corefiles/wiring_digital.c:87
        break;
    #endif
    #if defined(TCCR1A) && defined(COM1B1)
      case TIMER1B:
        TCCR1A &= ~_BV(COM1B1);
     38a:	8f bd       	out	0x2f, r24	; 47
     38c:	08 95       	ret
     38e:	8f b5       	in	r24, 0x2f	; 47
     390:	8f 7d       	andi	r24, 0xDF	; 223
     392:	fb cf       	rjmp	.-10     	; 0x38a <turnOffPWM+0x2e>
C:\Users\Ryan\AppData\Local\Arduino15\packages\MegaCore\hardware\avr\3.0.3\cores\MCUdude_corefiles/wiring_digital.c:92
        break;
    #endif
    #if defined(TCCR1A) && defined(COM1C1)
      case TIMER1C:
        TCCR1A &= ~_BV(COM1C1);
     394:	8f b5       	in	r24, 0x2f	; 47
     396:	87 7f       	andi	r24, 0xF7	; 247
     398:	f8 cf       	rjmp	.-16     	; 0x38a <turnOffPWM+0x2e>
C:\Users\Ryan\AppData\Local\Arduino15\packages\MegaCore\hardware\avr\3.0.3\cores\MCUdude_corefiles/wiring_digital.c:99
    #endif
    
    // Timer2
    #if defined(TCCR2) && defined(COM21)
      case TIMER2:
        TCCR2 &= ~_BV(COM21);
     39a:	85 b5       	in	r24, 0x25	; 37
     39c:	8f 7d       	andi	r24, 0xDF	; 223
     39e:	85 bd       	out	0x25, r24	; 37
     3a0:	08 95       	ret
C:\Users\Ryan\AppData\Local\Arduino15\packages\MegaCore\hardware\avr\3.0.3\cores\MCUdude_corefiles/wiring_digital.c:116
    #endif

    // Timer3
    #if defined(TCCR3A) && defined(COM3A1)
      case TIMER3A:
        TCCR3A &= ~_BV(COM3A1);
     3a2:	80 91 8b 00 	lds	r24, 0x008B	; 0x80008b <__TEXT_REGION_LENGTH__+0x7e008b>
     3a6:	8f 77       	andi	r24, 0x7F	; 127
C:\Users\Ryan\AppData\Local\Arduino15\packages\MegaCore\hardware\avr\3.0.3\cores\MCUdude_corefiles/wiring_digital.c:126
        TCCR3A &= ~_BV(COM3B1);
        break;
    #endif
    #if defined(TCCR3A) && defined(COM3C1)
      case TIMER3C:
        TCCR3A &= ~_BV(COM3C1);
     3a8:	80 93 8b 00 	sts	0x008B, r24	; 0x80008b <__TEXT_REGION_LENGTH__+0x7e008b>
     3ac:	08 95       	ret
C:\Users\Ryan\AppData\Local\Arduino15\packages\MegaCore\hardware\avr\3.0.3\cores\MCUdude_corefiles/wiring_digital.c:121
        TCCR3A &= ~_BV(COM3A1);
        break;
    #endif
    #if defined(TCCR3A) && defined(COM3B1)
      case TIMER3B:
        TCCR3A &= ~_BV(COM3B1);
     3ae:	80 91 8b 00 	lds	r24, 0x008B	; 0x80008b <__TEXT_REGION_LENGTH__+0x7e008b>
     3b2:	8f 7d       	andi	r24, 0xDF	; 223
     3b4:	f9 cf       	rjmp	.-14     	; 0x3a8 <turnOffPWM+0x4c>
C:\Users\Ryan\AppData\Local\Arduino15\packages\MegaCore\hardware\avr\3.0.3\cores\MCUdude_corefiles/wiring_digital.c:126
        break;
    #endif
    #if defined(TCCR3A) && defined(COM3C1)
      case TIMER3C:
        TCCR3A &= ~_BV(COM3C1);
     3b6:	80 91 8b 00 	lds	r24, 0x008B	; 0x80008b <__TEXT_REGION_LENGTH__+0x7e008b>
     3ba:	87 7f       	andi	r24, 0xF7	; 247
     3bc:	f5 cf       	rjmp	.-22     	; 0x3a8 <turnOffPWM+0x4c>
C:\Users\Ryan\AppData\Local\Arduino15\packages\MegaCore\hardware\avr\3.0.3\cores\MCUdude_corefiles/wiring_digital.c:171
    #if defined(TCCR0) && defined(COM01)
      case TIMER0:
        TCCR0 &= ~_BV(COM01);
        break;
      case TIMER0A:
        TCCR0 &= ~_BV(COM01);
     3be:	83 b7       	in	r24, 0x33	; 51
     3c0:	8f 7d       	andi	r24, 0xDF	; 223
     3c2:	83 bf       	out	0x33, r24	; 51
C:\Users\Ryan\AppData\Local\Arduino15\packages\MegaCore\hardware\avr\3.0.3\cores\MCUdude_corefiles/wiring_digital.c:185
      case TIMER0B:
        TCCR0A &= ~_BV(COM0B1);
        break;
    #endif
  }
}
     3c4:	08 95       	ret

000003c6 <digitalRead>:
digitalRead():
C:\Users\Ryan\AppData\Local\Arduino15\packages\MegaCore\hardware\avr\3.0.3\cores\MCUdude_corefiles/wiring_digital.c:215

  SREG = oldSREG;
}

int digitalRead(uint8_t pin)
{
     3c6:	cf 93       	push	r28
     3c8:	df 93       	push	r29
C:\Users\Ryan\AppData\Local\Arduino15\packages\MegaCore\hardware\avr\3.0.3\cores\MCUdude_corefiles/wiring_digital.c:216
  uint8_t timer = digitalPinToTimer(pin);
     3ca:	28 2f       	mov	r18, r24
     3cc:	30 e0       	ldi	r19, 0x00	; 0
     3ce:	f9 01       	movw	r30, r18
     3d0:	ea 5d       	subi	r30, 0xDA	; 218
     3d2:	fe 4f       	sbci	r31, 0xFE	; 254
     3d4:	84 91       	lpm	r24, Z
C:\Users\Ryan\AppData\Local\Arduino15\packages\MegaCore\hardware\avr\3.0.3\cores\MCUdude_corefiles/wiring_digital.c:217
  uint8_t bit = digitalPinToBitMask(pin);
     3d6:	f9 01       	movw	r30, r18
     3d8:	ef 50       	subi	r30, 0x0F	; 15
     3da:	ff 4f       	sbci	r31, 0xFF	; 255
     3dc:	d4 91       	lpm	r29, Z
C:\Users\Ryan\AppData\Local\Arduino15\packages\MegaCore\hardware\avr\3.0.3\cores\MCUdude_corefiles/wiring_digital.c:218
  uint8_t port = digitalPinToPort(pin);
     3de:	f9 01       	movw	r30, r18
     3e0:	e4 54       	subi	r30, 0x44	; 68
     3e2:	ff 4f       	sbci	r31, 0xFF	; 255
     3e4:	c4 91       	lpm	r28, Z
C:\Users\Ryan\AppData\Local\Arduino15\packages\MegaCore\hardware\avr\3.0.3\cores\MCUdude_corefiles/wiring_digital.c:220

  if (port == NOT_A_PIN) return LOW;
     3e6:	cc 23       	and	r28, r28
     3e8:	a1 f0       	breq	.+40     	; 0x412 <__LOCK_REGION_LENGTH__+0x12>
C:\Users\Ryan\AppData\Local\Arduino15\packages\MegaCore\hardware\avr\3.0.3\cores\MCUdude_corefiles/wiring_digital.c:224

  // If the pin that support PWM output, we need to turn it off
  // before getting a digital reading.
  if (timer != NOT_ON_TIMER) turnOffPWM(timer);
     3ea:	81 11       	cpse	r24, r1
     3ec:	0e 94 ae 01 	call	0x35c	; 0x35c <turnOffPWM>
C:\Users\Ryan\AppData\Local\Arduino15\packages\MegaCore\hardware\avr\3.0.3\cores\MCUdude_corefiles/wiring_digital.c:226

  if (*portInputRegister(port) & bit) return HIGH;
     3f0:	ec 2f       	mov	r30, r28
     3f2:	f0 e0       	ldi	r31, 0x00	; 0
     3f4:	ee 0f       	add	r30, r30
     3f6:	ff 1f       	adc	r31, r31
     3f8:	e4 55       	subi	r30, 0x54	; 84
     3fa:	ff 4f       	sbci	r31, 0xFF	; 255
     3fc:	a5 91       	lpm	r26, Z+
     3fe:	b4 91       	lpm	r27, Z
     400:	ec 91       	ld	r30, X
     402:	ed 23       	and	r30, r29
     404:	81 e0       	ldi	r24, 0x01	; 1
     406:	90 e0       	ldi	r25, 0x00	; 0
     408:	09 f4       	brne	.+2      	; 0x40c <__LOCK_REGION_LENGTH__+0xc>
     40a:	80 e0       	ldi	r24, 0x00	; 0
C:\Users\Ryan\AppData\Local\Arduino15\packages\MegaCore\hardware\avr\3.0.3\cores\MCUdude_corefiles/wiring_digital.c:228
  return LOW;
}
     40c:	df 91       	pop	r29
     40e:	cf 91       	pop	r28
     410:	08 95       	ret
C:\Users\Ryan\AppData\Local\Arduino15\packages\MegaCore\hardware\avr\3.0.3\cores\MCUdude_corefiles/wiring_digital.c:220
{
  uint8_t timer = digitalPinToTimer(pin);
  uint8_t bit = digitalPinToBitMask(pin);
  uint8_t port = digitalPinToPort(pin);

  if (port == NOT_A_PIN) return LOW;
     412:	80 e0       	ldi	r24, 0x00	; 0
     414:	90 e0       	ldi	r25, 0x00	; 0
     416:	fa cf       	rjmp	.-12     	; 0x40c <__LOCK_REGION_LENGTH__+0xc>

00000418 <digitalWrite>:
digitalWrite():
C:\Users\Ryan\AppData\Local\Arduino15\packages\MegaCore\hardware\avr\3.0.3\cores\MCUdude_corefiles/wiring_digital.c:188
    #endif
  }
}

void digitalWrite(uint8_t pin, uint8_t val)
{
     418:	1f 93       	push	r17
     41a:	cf 93       	push	r28
     41c:	df 93       	push	r29
C:\Users\Ryan\AppData\Local\Arduino15\packages\MegaCore\hardware\avr\3.0.3\cores\MCUdude_corefiles/wiring_digital.c:189
  uint8_t timer = digitalPinToTimer(pin);
     41e:	28 2f       	mov	r18, r24
     420:	30 e0       	ldi	r19, 0x00	; 0
     422:	f9 01       	movw	r30, r18
     424:	ea 5d       	subi	r30, 0xDA	; 218
     426:	fe 4f       	sbci	r31, 0xFE	; 254
     428:	84 91       	lpm	r24, Z
C:\Users\Ryan\AppData\Local\Arduino15\packages\MegaCore\hardware\avr\3.0.3\cores\MCUdude_corefiles/wiring_digital.c:190
  uint8_t bit = digitalPinToBitMask(pin);
     42a:	f9 01       	movw	r30, r18
     42c:	ef 50       	subi	r30, 0x0F	; 15
     42e:	ff 4f       	sbci	r31, 0xFF	; 255
     430:	d4 91       	lpm	r29, Z
C:\Users\Ryan\AppData\Local\Arduino15\packages\MegaCore\hardware\avr\3.0.3\cores\MCUdude_corefiles/wiring_digital.c:191
  uint8_t port = digitalPinToPort(pin);
     432:	f9 01       	movw	r30, r18
     434:	e4 54       	subi	r30, 0x44	; 68
     436:	ff 4f       	sbci	r31, 0xFF	; 255
     438:	c4 91       	lpm	r28, Z
C:\Users\Ryan\AppData\Local\Arduino15\packages\MegaCore\hardware\avr\3.0.3\cores\MCUdude_corefiles/wiring_digital.c:194
  volatile uint8_t *out;

  if (port == NOT_A_PIN) return;
     43a:	cc 23       	and	r28, r28
     43c:	a9 f0       	breq	.+42     	; 0x468 <digitalWrite+0x50>
     43e:	16 2f       	mov	r17, r22
C:\Users\Ryan\AppData\Local\Arduino15\packages\MegaCore\hardware\avr\3.0.3\cores\MCUdude_corefiles/wiring_digital.c:198

  // If the pin that support PWM output, we need to turn it off
  // before doing a digital write.
  if (timer != NOT_ON_TIMER) turnOffPWM(timer);
     440:	81 11       	cpse	r24, r1
     442:	0e 94 ae 01 	call	0x35c	; 0x35c <turnOffPWM>
C:\Users\Ryan\AppData\Local\Arduino15\packages\MegaCore\hardware\avr\3.0.3\cores\MCUdude_corefiles/wiring_digital.c:200

  out = portOutputRegister(port);
     446:	ec 2f       	mov	r30, r28
     448:	f0 e0       	ldi	r31, 0x00	; 0
     44a:	ee 0f       	add	r30, r30
     44c:	ff 1f       	adc	r31, r31
     44e:	e4 56       	subi	r30, 0x64	; 100
     450:	ff 4f       	sbci	r31, 0xFF	; 255
     452:	a5 91       	lpm	r26, Z+
     454:	b4 91       	lpm	r27, Z
C:\Users\Ryan\AppData\Local\Arduino15\packages\MegaCore\hardware\avr\3.0.3\cores\MCUdude_corefiles/wiring_digital.c:202

  uint8_t oldSREG = SREG;
     456:	8f b7       	in	r24, 0x3f	; 63
C:\Users\Ryan\AppData\Local\Arduino15\packages\MegaCore\hardware\avr\3.0.3\cores\MCUdude_corefiles/wiring_digital.c:203
  cli();
     458:	f8 94       	cli
C:\Users\Ryan\AppData\Local\Arduino15\packages\MegaCore\hardware\avr\3.0.3\cores\MCUdude_corefiles/wiring_digital.c:206

  if (val == LOW) {
    *out &= ~bit;
     45a:	ec 91       	ld	r30, X
C:\Users\Ryan\AppData\Local\Arduino15\packages\MegaCore\hardware\avr\3.0.3\cores\MCUdude_corefiles/wiring_digital.c:205
  out = portOutputRegister(port);

  uint8_t oldSREG = SREG;
  cli();

  if (val == LOW) {
     45c:	11 11       	cpse	r17, r1
     45e:	08 c0       	rjmp	.+16     	; 0x470 <digitalWrite+0x58>
C:\Users\Ryan\AppData\Local\Arduino15\packages\MegaCore\hardware\avr\3.0.3\cores\MCUdude_corefiles/wiring_digital.c:206
    *out &= ~bit;
     460:	d0 95       	com	r29
     462:	de 23       	and	r29, r30
C:\Users\Ryan\AppData\Local\Arduino15\packages\MegaCore\hardware\avr\3.0.3\cores\MCUdude_corefiles/wiring_digital.c:208
  } else {
    *out |= bit;
     464:	dc 93       	st	X, r29
C:\Users\Ryan\AppData\Local\Arduino15\packages\MegaCore\hardware\avr\3.0.3\cores\MCUdude_corefiles/wiring_digital.c:211
  }

  SREG = oldSREG;
     466:	8f bf       	out	0x3f, r24	; 63
C:\Users\Ryan\AppData\Local\Arduino15\packages\MegaCore\hardware\avr\3.0.3\cores\MCUdude_corefiles/wiring_digital.c:212
}
     468:	df 91       	pop	r29
     46a:	cf 91       	pop	r28
     46c:	1f 91       	pop	r17
     46e:	08 95       	ret
C:\Users\Ryan\AppData\Local\Arduino15\packages\MegaCore\hardware\avr\3.0.3\cores\MCUdude_corefiles/wiring_digital.c:208
  cli();

  if (val == LOW) {
    *out &= ~bit;
  } else {
    *out |= bit;
     470:	de 2b       	or	r29, r30
     472:	f8 cf       	rjmp	.-16     	; 0x464 <digitalWrite+0x4c>

00000474 <pinMode>:
pinMode():
C:\Users\Ryan\AppData\Local\Arduino15\packages\MegaCore\hardware\avr\3.0.3\cores\MCUdude_corefiles/wiring_digital.c:30
#define ARDUINO_MAIN
#include "wiring_private.h"
#include "pins_arduino.h"

void pinMode(uint8_t pin, uint8_t mode)
{
     474:	cf 93       	push	r28
     476:	df 93       	push	r29
C:\Users\Ryan\AppData\Local\Arduino15\packages\MegaCore\hardware\avr\3.0.3\cores\MCUdude_corefiles/wiring_digital.c:31
  uint8_t bit = digitalPinToBitMask(pin);
     478:	90 e0       	ldi	r25, 0x00	; 0
     47a:	fc 01       	movw	r30, r24
     47c:	ef 50       	subi	r30, 0x0F	; 15
     47e:	ff 4f       	sbci	r31, 0xFF	; 255
     480:	24 91       	lpm	r18, Z
C:\Users\Ryan\AppData\Local\Arduino15\packages\MegaCore\hardware\avr\3.0.3\cores\MCUdude_corefiles/wiring_digital.c:32
  uint8_t port = digitalPinToPort(pin);
     482:	84 54       	subi	r24, 0x44	; 68
     484:	9f 4f       	sbci	r25, 0xFF	; 255
     486:	fc 01       	movw	r30, r24
     488:	84 91       	lpm	r24, Z
C:\Users\Ryan\AppData\Local\Arduino15\packages\MegaCore\hardware\avr\3.0.3\cores\MCUdude_corefiles/wiring_digital.c:35
  volatile uint8_t *reg, *out;

  if (port == NOT_A_PIN) return;
     48a:	88 23       	and	r24, r24
     48c:	c9 f0       	breq	.+50     	; 0x4c0 <pinMode+0x4c>
C:\Users\Ryan\AppData\Local\Arduino15\packages\MegaCore\hardware\avr\3.0.3\cores\MCUdude_corefiles/wiring_digital.c:38

  // JWS: can I let the optimizer do this?
  reg = portModeRegister(port);
     48e:	90 e0       	ldi	r25, 0x00	; 0
     490:	88 0f       	add	r24, r24
     492:	99 1f       	adc	r25, r25
     494:	fc 01       	movw	r30, r24
     496:	e4 57       	subi	r30, 0x74	; 116
     498:	ff 4f       	sbci	r31, 0xFF	; 255
     49a:	a5 91       	lpm	r26, Z+
     49c:	b4 91       	lpm	r27, Z
C:\Users\Ryan\AppData\Local\Arduino15\packages\MegaCore\hardware\avr\3.0.3\cores\MCUdude_corefiles/wiring_digital.c:39
  out = portOutputRegister(port);
     49e:	fc 01       	movw	r30, r24
     4a0:	e4 56       	subi	r30, 0x64	; 100
     4a2:	ff 4f       	sbci	r31, 0xFF	; 255
     4a4:	c5 91       	lpm	r28, Z+
     4a6:	d4 91       	lpm	r29, Z
C:\Users\Ryan\AppData\Local\Arduino15\packages\MegaCore\hardware\avr\3.0.3\cores\MCUdude_corefiles/wiring_digital.c:41

  if (mode == INPUT) { 
     4a8:	61 11       	cpse	r22, r1
     4aa:	0d c0       	rjmp	.+26     	; 0x4c6 <pinMode+0x52>
C:\Users\Ryan\AppData\Local\Arduino15\packages\MegaCore\hardware\avr\3.0.3\cores\MCUdude_corefiles/wiring_digital.c:42
    uint8_t oldSREG = SREG;
     4ac:	9f b7       	in	r25, 0x3f	; 63
C:\Users\Ryan\AppData\Local\Arduino15\packages\MegaCore\hardware\avr\3.0.3\cores\MCUdude_corefiles/wiring_digital.c:43
    cli();
     4ae:	f8 94       	cli
C:\Users\Ryan\AppData\Local\Arduino15\packages\MegaCore\hardware\avr\3.0.3\cores\MCUdude_corefiles/wiring_digital.c:44
    *reg &= ~bit;
     4b0:	8c 91       	ld	r24, X
     4b2:	20 95       	com	r18
     4b4:	82 23       	and	r24, r18
     4b6:	8c 93       	st	X, r24
C:\Users\Ryan\AppData\Local\Arduino15\packages\MegaCore\hardware\avr\3.0.3\cores\MCUdude_corefiles/wiring_digital.c:45
    *out &= ~bit;
     4b8:	88 81       	ld	r24, Y
     4ba:	28 23       	and	r18, r24
C:\Users\Ryan\AppData\Local\Arduino15\packages\MegaCore\hardware\avr\3.0.3\cores\MCUdude_corefiles/wiring_digital.c:51
    SREG = oldSREG;
  } else if (mode == INPUT_PULLUP) {
    uint8_t oldSREG = SREG;
    cli();
    *reg &= ~bit;
    *out |= bit;
     4bc:	28 83       	st	Y, r18
C:\Users\Ryan\AppData\Local\Arduino15\packages\MegaCore\hardware\avr\3.0.3\cores\MCUdude_corefiles/wiring_digital.c:52
    SREG = oldSREG;
     4be:	9f bf       	out	0x3f, r25	; 63
C:\Users\Ryan\AppData\Local\Arduino15\packages\MegaCore\hardware\avr\3.0.3\cores\MCUdude_corefiles/wiring_digital.c:59
    uint8_t oldSREG = SREG;
    cli();
    *reg |= bit;
    SREG = oldSREG;
  }
}
     4c0:	df 91       	pop	r29
     4c2:	cf 91       	pop	r28
     4c4:	08 95       	ret
C:\Users\Ryan\AppData\Local\Arduino15\packages\MegaCore\hardware\avr\3.0.3\cores\MCUdude_corefiles/wiring_digital.c:47
    uint8_t oldSREG = SREG;
    cli();
    *reg &= ~bit;
    *out &= ~bit;
    SREG = oldSREG;
  } else if (mode == INPUT_PULLUP) {
     4c6:	62 30       	cpi	r22, 0x02	; 2
     4c8:	51 f4       	brne	.+20     	; 0x4de <pinMode+0x6a>
C:\Users\Ryan\AppData\Local\Arduino15\packages\MegaCore\hardware\avr\3.0.3\cores\MCUdude_corefiles/wiring_digital.c:48
    uint8_t oldSREG = SREG;
     4ca:	9f b7       	in	r25, 0x3f	; 63
C:\Users\Ryan\AppData\Local\Arduino15\packages\MegaCore\hardware\avr\3.0.3\cores\MCUdude_corefiles/wiring_digital.c:49
    cli();
     4cc:	f8 94       	cli
C:\Users\Ryan\AppData\Local\Arduino15\packages\MegaCore\hardware\avr\3.0.3\cores\MCUdude_corefiles/wiring_digital.c:50
    *reg &= ~bit;
     4ce:	3c 91       	ld	r19, X
     4d0:	82 2f       	mov	r24, r18
     4d2:	80 95       	com	r24
     4d4:	83 23       	and	r24, r19
     4d6:	8c 93       	st	X, r24
C:\Users\Ryan\AppData\Local\Arduino15\packages\MegaCore\hardware\avr\3.0.3\cores\MCUdude_corefiles/wiring_digital.c:51
    *out |= bit;
     4d8:	e8 81       	ld	r30, Y
     4da:	2e 2b       	or	r18, r30
     4dc:	ef cf       	rjmp	.-34     	; 0x4bc <pinMode+0x48>
C:\Users\Ryan\AppData\Local\Arduino15\packages\MegaCore\hardware\avr\3.0.3\cores\MCUdude_corefiles/wiring_digital.c:54
    SREG = oldSREG;
  } else {
    uint8_t oldSREG = SREG;
     4de:	8f b7       	in	r24, 0x3f	; 63
C:\Users\Ryan\AppData\Local\Arduino15\packages\MegaCore\hardware\avr\3.0.3\cores\MCUdude_corefiles/wiring_digital.c:55
    cli();
     4e0:	f8 94       	cli
C:\Users\Ryan\AppData\Local\Arduino15\packages\MegaCore\hardware\avr\3.0.3\cores\MCUdude_corefiles/wiring_digital.c:56
    *reg |= bit;
     4e2:	ec 91       	ld	r30, X
     4e4:	2e 2b       	or	r18, r30
     4e6:	2c 93       	st	X, r18
C:\Users\Ryan\AppData\Local\Arduino15\packages\MegaCore\hardware\avr\3.0.3\cores\MCUdude_corefiles/wiring_digital.c:57
    SREG = oldSREG;
     4e8:	8f bf       	out	0x3f, r24	; 63
     4ea:	ea cf       	rjmp	.-44     	; 0x4c0 <pinMode+0x4c>

000004ec <analogWrite>:
analogWrite():
C:\Users\Ryan\AppData\Local\Arduino15\packages\MegaCore\hardware\avr\3.0.3\cores\MCUdude_corefiles/wiring_analog.c:95
// Right now, PWM output only works on the pins with
// hardware support.  These are defined in the appropriate
// pins_*.c file.  For the rest of the pins, we default
// to digital output.
void analogWrite(uint8_t pin, int val)
{
     4ec:	1f 93       	push	r17
     4ee:	cf 93       	push	r28
     4f0:	df 93       	push	r29
     4f2:	18 2f       	mov	r17, r24
     4f4:	eb 01       	movw	r28, r22
C:\Users\Ryan\AppData\Local\Arduino15\packages\MegaCore\hardware\avr\3.0.3\cores\MCUdude_corefiles/wiring_analog.c:101
  // We need to make sure the PWM output is enabled for those pins
  // that support it, as we turn it off when digitally reading or
  // writing with them.  Also, make sure the pin is in output mode
  // for consistenty with Wiring, which doesn't require a pinMode
  // call for the analog output pins.
  pinMode(pin, OUTPUT);
     4f6:	61 e0       	ldi	r22, 0x01	; 1
     4f8:	0e 94 3a 02 	call	0x474	; 0x474 <pinMode>
C:\Users\Ryan\AppData\Local\Arduino15\packages\MegaCore\hardware\avr\3.0.3\cores\MCUdude_corefiles/wiring_analog.c:102
  if (val == 0)
     4fc:	20 97       	sbiw	r28, 0x00	; 0
     4fe:	39 f4       	brne	.+14     	; 0x50e <analogWrite+0x22>
C:\Users\Ryan\AppData\Local\Arduino15\packages\MegaCore\hardware\avr\3.0.3\cores\MCUdude_corefiles/wiring_analog.c:104
  {
    digitalWrite(pin, LOW);
     500:	60 e0       	ldi	r22, 0x00	; 0
C:\Users\Ryan\AppData\Local\Arduino15\packages\MegaCore\hardware\avr\3.0.3\cores\MCUdude_corefiles/wiring_analog.c:108
  }
  else if (val == 255)
  {
    digitalWrite(pin, HIGH);
     502:	81 2f       	mov	r24, r17
C:\Users\Ryan\AppData\Local\Arduino15\packages\MegaCore\hardware\avr\3.0.3\cores\MCUdude_corefiles/wiring_analog.c:299
        } else {
          digitalWrite(pin, HIGH);
        }
    }
  }
}
     504:	df 91       	pop	r29
     506:	cf 91       	pop	r28
     508:	1f 91       	pop	r17
C:\Users\Ryan\AppData\Local\Arduino15\packages\MegaCore\hardware\avr\3.0.3\cores\MCUdude_corefiles/wiring_analog.c:108
  {
    digitalWrite(pin, LOW);
  }
  else if (val == 255)
  {
    digitalWrite(pin, HIGH);
     50a:	0c 94 0c 02 	jmp	0x418	; 0x418 <digitalWrite>
C:\Users\Ryan\AppData\Local\Arduino15\packages\MegaCore\hardware\avr\3.0.3\cores\MCUdude_corefiles/wiring_analog.c:106
  pinMode(pin, OUTPUT);
  if (val == 0)
  {
    digitalWrite(pin, LOW);
  }
  else if (val == 255)
     50e:	cf 3f       	cpi	r28, 0xFF	; 255
     510:	d1 05       	cpc	r29, r1
     512:	11 f4       	brne	.+4      	; 0x518 <analogWrite+0x2c>
C:\Users\Ryan\AppData\Local\Arduino15\packages\MegaCore\hardware\avr\3.0.3\cores\MCUdude_corefiles/wiring_analog.c:108
  {
    digitalWrite(pin, HIGH);
     514:	61 e0       	ldi	r22, 0x01	; 1
     516:	f5 cf       	rjmp	.-22     	; 0x502 <analogWrite+0x16>
C:\Users\Ryan\AppData\Local\Arduino15\packages\MegaCore\hardware\avr\3.0.3\cores\MCUdude_corefiles/wiring_analog.c:112
  }
  else
  {
    switch(digitalPinToTimer(pin))
     518:	e1 2f       	mov	r30, r17
     51a:	f0 e0       	ldi	r31, 0x00	; 0
     51c:	ea 5d       	subi	r30, 0xDA	; 218
     51e:	fe 4f       	sbci	r31, 0xFE	; 254
     520:	e4 91       	lpm	r30, Z
     522:	e1 50       	subi	r30, 0x01	; 1
     524:	ec 30       	cpi	r30, 0x0C	; 12
     526:	08 f0       	brcs	.+2      	; 0x52a <analogWrite+0x3e>
     528:	50 c0       	rjmp	.+160    	; 0x5ca <analogWrite+0xde>
     52a:	f0 e0       	ldi	r31, 0x00	; 0
     52c:	e6 56       	subi	r30, 0x66	; 102
     52e:	fd 4f       	sbci	r31, 0xFD	; 253
     530:	0c 94 25 36 	jmp	0x6c4a	; 0x6c4a <__tablejump2__>
     534:	a6 02       	muls	r26, r22
     536:	a6 02       	muls	r26, r22
     538:	e5 02       	muls	r30, r21
     53a:	ae 02       	muls	r26, r30
     53c:	b4 02       	muls	r27, r20
     53e:	ba 02       	muls	r27, r26
     540:	c2 02       	muls	r28, r18
     542:	e5 02       	muls	r30, r21
     544:	e5 02       	muls	r30, r21
     546:	c7 02       	muls	r28, r23
     548:	d1 02       	muls	r29, r17
     54a:	db 02       	muls	r29, r27
C:\Users\Ryan\AppData\Local\Arduino15\packages\MegaCore\hardware\avr\3.0.3\cores\MCUdude_corefiles/wiring_analog.c:124
        break;
        
      case TIMER0A:
        // connect pwm to pin on timer 0
        // this combination is for the ATmega8535, ATmega16 and ATmega32
        TCCR0 |= _BV(COM01);
     54c:	83 b7       	in	r24, 0x33	; 51
     54e:	80 62       	ori	r24, 0x20	; 32
     550:	83 bf       	out	0x33, r24	; 51
C:\Users\Ryan\AppData\Local\Arduino15\packages\MegaCore\hardware\avr\3.0.3\cores\MCUdude_corefiles/wiring_analog.c:125
        OCR0 = val; // set pwm duty
     552:	c1 bf       	out	0x31, r28	; 49
C:\Users\Ryan\AppData\Local\Arduino15\packages\MegaCore\hardware\avr\3.0.3\cores\MCUdude_corefiles/wiring_analog.c:299
        } else {
          digitalWrite(pin, HIGH);
        }
    }
  }
}
     554:	df 91       	pop	r29
     556:	cf 91       	pop	r28
     558:	1f 91       	pop	r17
     55a:	08 95       	ret
C:\Users\Ryan\AppData\Local\Arduino15\packages\MegaCore\hardware\avr\3.0.3\cores\MCUdude_corefiles/wiring_analog.c:148
      #endif

      #if defined(TCCR1A) && defined(COM1A1)
      case TIMER1A:
        // connect pwm to pin on timer 1, channel A
        TCCR1A |= _BV(COM1A1);
     55c:	8f b5       	in	r24, 0x2f	; 47
     55e:	80 68       	ori	r24, 0x80	; 128
     560:	8f bd       	out	0x2f, r24	; 47
C:\Users\Ryan\AppData\Local\Arduino15\packages\MegaCore\hardware\avr\3.0.3\cores\MCUdude_corefiles/wiring_analog.c:149
        OCR1A = val; // set pwm duty
     562:	db bd       	out	0x2b, r29	; 43
     564:	ca bd       	out	0x2a, r28	; 42
     566:	f6 cf       	rjmp	.-20     	; 0x554 <analogWrite+0x68>
C:\Users\Ryan\AppData\Local\Arduino15\packages\MegaCore\hardware\avr\3.0.3\cores\MCUdude_corefiles/wiring_analog.c:156
      #endif

      #if defined(TCCR1A) && defined(COM1B1)
      case TIMER1B:
        // connect pwm to pin on timer 1, channel B
        TCCR1A |= _BV(COM1B1);
     568:	8f b5       	in	r24, 0x2f	; 47
     56a:	80 62       	ori	r24, 0x20	; 32
     56c:	8f bd       	out	0x2f, r24	; 47
C:\Users\Ryan\AppData\Local\Arduino15\packages\MegaCore\hardware\avr\3.0.3\cores\MCUdude_corefiles/wiring_analog.c:157
        OCR1B = val; // set pwm duty
     56e:	d9 bd       	out	0x29, r29	; 41
     570:	c8 bd       	out	0x28, r28	; 40
     572:	f0 cf       	rjmp	.-32     	; 0x554 <analogWrite+0x68>
C:\Users\Ryan\AppData\Local\Arduino15\packages\MegaCore\hardware\avr\3.0.3\cores\MCUdude_corefiles/wiring_analog.c:164
      #endif

      #if defined(TCCR1A) && defined(COM1C1)
      case TIMER1C:
        // connect pwm to pin on timer 1, channel B
        TCCR1A |= _BV(COM1C1);
     574:	8f b5       	in	r24, 0x2f	; 47
     576:	88 60       	ori	r24, 0x08	; 8
     578:	8f bd       	out	0x2f, r24	; 47
C:\Users\Ryan\AppData\Local\Arduino15\packages\MegaCore\hardware\avr\3.0.3\cores\MCUdude_corefiles/wiring_analog.c:165
        OCR1C = val; // set pwm duty
     57a:	d0 93 79 00 	sts	0x0079, r29	; 0x800079 <__TEXT_REGION_LENGTH__+0x7e0079>
     57e:	c0 93 78 00 	sts	0x0078, r28	; 0x800078 <__TEXT_REGION_LENGTH__+0x7e0078>
     582:	e8 cf       	rjmp	.-48     	; 0x554 <analogWrite+0x68>
C:\Users\Ryan\AppData\Local\Arduino15\packages\MegaCore\hardware\avr\3.0.3\cores\MCUdude_corefiles/wiring_analog.c:172
      #endif

      #if defined(TCCR2) && defined(COM21)
      case TIMER2:
        // connect pwm to pin on timer 2
        TCCR2 |= _BV(COM21);
     584:	85 b5       	in	r24, 0x25	; 37
     586:	80 62       	ori	r24, 0x20	; 32
     588:	85 bd       	out	0x25, r24	; 37
C:\Users\Ryan\AppData\Local\Arduino15\packages\MegaCore\hardware\avr\3.0.3\cores\MCUdude_corefiles/wiring_analog.c:173
        OCR2 = val; // set pwm duty
     58a:	c3 bd       	out	0x23, r28	; 35
     58c:	e3 cf       	rjmp	.-58     	; 0x554 <analogWrite+0x68>
C:\Users\Ryan\AppData\Local\Arduino15\packages\MegaCore\hardware\avr\3.0.3\cores\MCUdude_corefiles/wiring_analog.c:196
      #endif

      #if defined(TCCR3A) && defined(COM3A1)
      case TIMER3A:
        // connect pwm to pin on timer 3, channel A
        TCCR3A |= _BV(COM3A1);
     58e:	80 91 8b 00 	lds	r24, 0x008B	; 0x80008b <__TEXT_REGION_LENGTH__+0x7e008b>
     592:	80 68       	ori	r24, 0x80	; 128
     594:	80 93 8b 00 	sts	0x008B, r24	; 0x80008b <__TEXT_REGION_LENGTH__+0x7e008b>
C:\Users\Ryan\AppData\Local\Arduino15\packages\MegaCore\hardware\avr\3.0.3\cores\MCUdude_corefiles/wiring_analog.c:197
        OCR3A = val; // set pwm duty
     598:	d0 93 87 00 	sts	0x0087, r29	; 0x800087 <__TEXT_REGION_LENGTH__+0x7e0087>
     59c:	c0 93 86 00 	sts	0x0086, r28	; 0x800086 <__TEXT_REGION_LENGTH__+0x7e0086>
     5a0:	d9 cf       	rjmp	.-78     	; 0x554 <analogWrite+0x68>
C:\Users\Ryan\AppData\Local\Arduino15\packages\MegaCore\hardware\avr\3.0.3\cores\MCUdude_corefiles/wiring_analog.c:209
        #if defined(__AVR_ATmega328PB__) // Fix 324PB/328PB silicon bug
          PORTD |= _BV(PD2);
        #elif defined(__AVR_ATmega324PB__)
          PORTB |= _BV(PB7);
        #endif
        TCCR3A |= _BV(COM3B1);
     5a2:	80 91 8b 00 	lds	r24, 0x008B	; 0x80008b <__TEXT_REGION_LENGTH__+0x7e008b>
     5a6:	80 62       	ori	r24, 0x20	; 32
     5a8:	80 93 8b 00 	sts	0x008B, r24	; 0x80008b <__TEXT_REGION_LENGTH__+0x7e008b>
C:\Users\Ryan\AppData\Local\Arduino15\packages\MegaCore\hardware\avr\3.0.3\cores\MCUdude_corefiles/wiring_analog.c:210
        OCR3B = val; // set pwm duty
     5ac:	d0 93 85 00 	sts	0x0085, r29	; 0x800085 <__TEXT_REGION_LENGTH__+0x7e0085>
     5b0:	c0 93 84 00 	sts	0x0084, r28	; 0x800084 <__TEXT_REGION_LENGTH__+0x7e0084>
     5b4:	cf cf       	rjmp	.-98     	; 0x554 <analogWrite+0x68>
C:\Users\Ryan\AppData\Local\Arduino15\packages\MegaCore\hardware\avr\3.0.3\cores\MCUdude_corefiles/wiring_analog.c:217
      #endif

      #if defined(TCCR3A) && defined(COM3C1)
      case TIMER3C:
        // connect pwm to pin on timer 3, channel C
        TCCR3A |= _BV(COM3C1);
     5b6:	80 91 8b 00 	lds	r24, 0x008B	; 0x80008b <__TEXT_REGION_LENGTH__+0x7e008b>
     5ba:	88 60       	ori	r24, 0x08	; 8
     5bc:	80 93 8b 00 	sts	0x008B, r24	; 0x80008b <__TEXT_REGION_LENGTH__+0x7e008b>
C:\Users\Ryan\AppData\Local\Arduino15\packages\MegaCore\hardware\avr\3.0.3\cores\MCUdude_corefiles/wiring_analog.c:218
        OCR3C = val; // set pwm duty
     5c0:	d0 93 83 00 	sts	0x0083, r29	; 0x800083 <__TEXT_REGION_LENGTH__+0x7e0083>
     5c4:	c0 93 82 00 	sts	0x0082, r28	; 0x800082 <__TEXT_REGION_LENGTH__+0x7e0082>
     5c8:	c5 cf       	rjmp	.-118    	; 0x554 <analogWrite+0x68>
C:\Users\Ryan\AppData\Local\Arduino15\packages\MegaCore\hardware\avr\3.0.3\cores\MCUdude_corefiles/wiring_analog.c:292
        break;
      #endif

      case NOT_ON_TIMER:
      default:
        if (val < 128) {
     5ca:	c0 38       	cpi	r28, 0x80	; 128
     5cc:	d1 05       	cpc	r29, r1
     5ce:	0c f0       	brlt	.+2      	; 0x5d2 <analogWrite+0xe6>
     5d0:	a1 cf       	rjmp	.-190    	; 0x514 <analogWrite+0x28>
     5d2:	96 cf       	rjmp	.-212    	; 0x500 <analogWrite+0x14>

000005d4 <analogRead>:
analogRead():
C:\Users\Ryan\AppData\Local\Arduino15\packages\MegaCore\hardware\avr\3.0.3\cores\MCUdude_corefiles/wiring_analog.c:49
int analogRead(uint8_t pin)
{

// Macro located in the pins_arduino.h file
#ifdef analogPinToChannel
  pin = analogPinToChannel(pin);
     5d4:	8d 52       	subi	r24, 0x2D	; 45
C:\Users\Ryan\AppData\Local\Arduino15\packages\MegaCore\hardware\avr\3.0.3\cores\MCUdude_corefiles/wiring_analog.c:68
  
  // set the analog reference (high two bits of ADMUX) and select the
  // channel (low 4 bits).  this also sets ADLAR (left-adjust result)
  // to 0 (the default).
#if defined(ADMUX)
  ADMUX = (analog_reference << 6) | (pin & 0x07);
     5d6:	80 64       	ori	r24, 0x40	; 64
     5d8:	87 b9       	out	0x07, r24	; 7
C:\Users\Ryan\AppData\Local\Arduino15\packages\MegaCore\hardware\avr\3.0.3\cores\MCUdude_corefiles/wiring_analog.c:76
  // without a delay, we seem to read from the wrong channel
  //delay(1);

#if defined(ADCSRA) && defined(ADC)
  // start the conversion
  ADCSRA |= _BV(ADSC);
     5da:	36 9a       	sbi	0x06, 6	; 6
C:\Users\Ryan\AppData\Local\Arduino15\packages\MegaCore\hardware\avr\3.0.3\cores\MCUdude_corefiles/wiring_analog.c:79

  // ADSC is cleared when the conversion finishes
  while (ADCSRA & _BV(ADSC)) {};
     5dc:	36 99       	sbic	0x06, 6	; 6
     5de:	fe cf       	rjmp	.-4      	; 0x5dc <analogRead+0x8>
C:\Users\Ryan\AppData\Local\Arduino15\packages\MegaCore\hardware\avr\3.0.3\cores\MCUdude_corefiles/wiring_analog.c:83

  // ADC macro takes care of reading ADC register.
 	// avr-gcc implements the proper reading order: ADCL is read first.
 	return ADC;
     5e0:	84 b1       	in	r24, 0x04	; 4
     5e2:	95 b1       	in	r25, 0x05	; 5
C:\Users\Ryan\AppData\Local\Arduino15\packages\MegaCore\hardware\avr\3.0.3\cores\MCUdude_corefiles/wiring_analog.c:87
#else
  return 0;
#endif
}
     5e4:	08 95       	ret

000005e6 <delayMicroseconds>:
delayMicroseconds():
C:\Users\Ryan\AppData\Local\Arduino15\packages\MegaCore\hardware\avr\3.0.3\cores\MCUdude_corefiles/wiring.c:619
  us -= 7; // = 2 cycles

#elif F_CPU >= 16000000L
  // for a one-microsecond delay, simply return.  the overhead
  // of the function call takes 14 (16) cycles, which is 1 us
  if (us <= 1) return; //  = 3 cycles, (4 when true)
     5e6:	81 30       	cpi	r24, 0x01	; 1
     5e8:	91 05       	cpc	r25, r1
     5ea:	39 f0       	breq	.+14     	; 0x5fa <delayMicroseconds+0x14>
C:\Users\Ryan\AppData\Local\Arduino15\packages\MegaCore\hardware\avr\3.0.3\cores\MCUdude_corefiles/wiring.c:624

  // the following loop takes 1/4 of a microsecond (4 cycles)
  // per iteration, so execute it four times for each microsecond of
  // delay requested.
  us <<= 2; // x4 us, = 4 cycles
     5ec:	88 0f       	add	r24, r24
     5ee:	99 1f       	adc	r25, r25
     5f0:	88 0f       	add	r24, r24
     5f2:	99 1f       	adc	r25, r25
C:\Users\Ryan\AppData\Local\Arduino15\packages\MegaCore\hardware\avr\3.0.3\cores\MCUdude_corefiles/wiring.c:629

  // account for the time taken in the preceeding commands.
  // we just burned 19 (21) cycles above, remove 5, (5*4=20)
  // to 2nd us is at least 8 so we can substract 5
  us -= 5; // = 2 cycles,
     5f4:	05 97       	sbiw	r24, 0x05	; 5
C:\Users\Ryan\AppData\Local\Arduino15\packages\MegaCore\hardware\avr\3.0.3\cores\MCUdude_corefiles/wiring.c:929
  us >>= 2; // us div 4, = 4 cycles

#endif

  // busy wait
  __asm__ __volatile__ (
     5f6:	01 97       	sbiw	r24, 0x01	; 1
     5f8:	f1 f7       	brne	.-4      	; 0x5f6 <delayMicroseconds+0x10>
C:\Users\Ryan\AppData\Local\Arduino15\packages\MegaCore\hardware\avr\3.0.3\cores\MCUdude_corefiles/wiring.c:939
    "   brne 1b"                     // 2 cycles
    : /* no outputs */
    : "w" (us)
  );
  // return = 4 cycles
}
     5fa:	08 95       	ret

000005fc <micros>:
micros():
C:\Users\Ryan\AppData\Local\Arduino15\packages\MegaCore\hardware\avr\3.0.3\cores\MCUdude_corefiles/wiring.c:237
  unsigned char f; // temporary storage for millis fraction counter
  unsigned char q = 0; // record whether an overflow is flagged
#endif
  // t will be the number where the timer0 counter stopped
  uint8_t t;
  uint8_t oldSREG = SREG;
     5fc:	3f b7       	in	r19, 0x3f	; 63
C:\Users\Ryan\AppData\Local\Arduino15\packages\MegaCore\hardware\avr\3.0.3\cores\MCUdude_corefiles/wiring.c:240

  // Stop all interrupts
  cli();
     5fe:	f8 94       	cli
C:\Users\Ryan\AppData\Local\Arduino15\packages\MegaCore\hardware\avr\3.0.3\cores\MCUdude_corefiles/wiring.c:247
#ifdef CORRECT_EXACT_MICROS
  // combine exact millisec and 8usec counters
  m = timer0_millis;
  f = timer0_fract;
#else
  m = timer0_overflow_count;
     600:	80 91 ea 08 	lds	r24, 0x08EA	; 0x8008ea <timer0_overflow_count>
     604:	90 91 eb 08 	lds	r25, 0x08EB	; 0x8008eb <timer0_overflow_count+0x1>
     608:	a0 91 ec 08 	lds	r26, 0x08EC	; 0x8008ec <timer0_overflow_count+0x2>
     60c:	b0 91 ed 08 	lds	r27, 0x08ED	; 0x8008ed <timer0_overflow_count+0x3>
C:\Users\Ryan\AppData\Local\Arduino15\packages\MegaCore\hardware\avr\3.0.3\cores\MCUdude_corefiles/wiring.c:252
#endif

  // TCNT0 : The Timer Counter Register
#if defined(TCNT0)
  t = TCNT0;
     610:	22 b7       	in	r18, 0x32	; 50
C:\Users\Ryan\AppData\Local\Arduino15\packages\MegaCore\hardware\avr\3.0.3\cores\MCUdude_corefiles/wiring.c:268
    m++;
#else
    q = 1;
#endif
#else
  if ((TIFR & _BV(TOV0)) && (t < 255))
     612:	06 b6       	in	r0, 0x36	; 54
     614:	00 fe       	sbrs	r0, 0
     616:	05 c0       	rjmp	.+10     	; 0x622 <micros+0x26>
     618:	2f 3f       	cpi	r18, 0xFF	; 255
     61a:	19 f0       	breq	.+6      	; 0x622 <micros+0x26>
C:\Users\Ryan\AppData\Local\Arduino15\packages\MegaCore\hardware\avr\3.0.3\cores\MCUdude_corefiles/wiring.c:270
#ifndef CORRECT_EXACT_MICROS
    m++;
     61c:	01 96       	adiw	r24, 0x01	; 1
     61e:	a1 1d       	adc	r26, r1
     620:	b1 1d       	adc	r27, r1
C:\Users\Ryan\AppData\Local\Arduino15\packages\MegaCore\hardware\avr\3.0.3\cores\MCUdude_corefiles/wiring.c:276
#else
    q = 1;
#endif
#endif
  // Restore SREG
  SREG = oldSREG;
     622:	3f bf       	out	0x3f, r19	; 63
C:\Users\Ryan\AppData\Local\Arduino15\packages\MegaCore\hardware\avr\3.0.3\cores\MCUdude_corefiles/wiring.c:292
      ((t * MICROSECONDS_PER_TIMER0_OVERFLOW) >> 8);
  return q ? m + MICROSECONDS_PER_TIMER0_OVERFLOW : m;
#elif 1
  /* All power-of-two Megahertz frequencies enter here, as well as 12.8 MHz.
     We only end up here if right shift before multiplication is exact. */
  return ((m << 8) + t) * (MICROSECONDS_PER_TIMER0_OVERFLOW >> 8);
     624:	ba 2f       	mov	r27, r26
     626:	a9 2f       	mov	r26, r25
     628:	98 2f       	mov	r25, r24
     62a:	88 27       	eor	r24, r24
     62c:	bc 01       	movw	r22, r24
     62e:	cd 01       	movw	r24, r26
     630:	62 0f       	add	r22, r18
     632:	71 1d       	adc	r23, r1
     634:	81 1d       	adc	r24, r1
     636:	91 1d       	adc	r25, r1
     638:	42 e0       	ldi	r20, 0x02	; 2
     63a:	66 0f       	add	r22, r22
     63c:	77 1f       	adc	r23, r23
     63e:	88 1f       	adc	r24, r24
     640:	99 1f       	adc	r25, r25
     642:	4a 95       	dec	r20
     644:	d1 f7       	brne	.-12     	; 0x63a <micros+0x3e>
C:\Users\Ryan\AppData\Local\Arduino15\packages\MegaCore\hardware\avr\3.0.3\cores\MCUdude_corefiles/wiring.c:393
  // m & t are multiplied by 4 (since it was already multiplied by 256)
  // t is multiplied by 4
  return ((m << 8) + t) * (64 / clockCyclesPerMicrosecond());
#endif
#endif // 0
}
     646:	08 95       	ret

00000648 <delay>:
delay():
C:\Users\Ryan\AppData\Local\Arduino15\packages\MegaCore\hardware\avr\3.0.3\cores\MCUdude_corefiles/wiring.c:396

void delay(unsigned long ms)
{
     648:	8f 92       	push	r8
     64a:	9f 92       	push	r9
     64c:	af 92       	push	r10
     64e:	bf 92       	push	r11
     650:	cf 92       	push	r12
     652:	df 92       	push	r13
     654:	ef 92       	push	r14
     656:	ff 92       	push	r15
     658:	4b 01       	movw	r8, r22
     65a:	5c 01       	movw	r10, r24
C:\Users\Ryan\AppData\Local\Arduino15\packages\MegaCore\hardware\avr\3.0.3\cores\MCUdude_corefiles/wiring.c:397
  unsigned long start = micros();
     65c:	0e 94 fe 02 	call	0x5fc	; 0x5fc <micros>
     660:	6b 01       	movw	r12, r22
     662:	7c 01       	movw	r14, r24
C:\Users\Ryan\AppData\Local\Arduino15\packages\MegaCore\hardware\avr\3.0.3\cores\MCUdude_corefiles/wiring.c:401

  while (ms > 0UL) {
    yield();
    while (ms > 0UL && (micros() - start) >= 1000UL) {
     664:	0e 94 fe 02 	call	0x5fc	; 0x5fc <micros>
     668:	6c 19       	sub	r22, r12
     66a:	7d 09       	sbc	r23, r13
     66c:	8e 09       	sbc	r24, r14
     66e:	9f 09       	sbc	r25, r15
     670:	68 3e       	cpi	r22, 0xE8	; 232
     672:	73 40       	sbci	r23, 0x03	; 3
     674:	81 05       	cpc	r24, r1
     676:	91 05       	cpc	r25, r1
     678:	a8 f3       	brcs	.-22     	; 0x664 <delay+0x1c>
C:\Users\Ryan\AppData\Local\Arduino15\packages\MegaCore\hardware\avr\3.0.3\cores\MCUdude_corefiles/wiring.c:402
      ms--;
     67a:	21 e0       	ldi	r18, 0x01	; 1
     67c:	82 1a       	sub	r8, r18
     67e:	91 08       	sbc	r9, r1
     680:	a1 08       	sbc	r10, r1
     682:	b1 08       	sbc	r11, r1
C:\Users\Ryan\AppData\Local\Arduino15\packages\MegaCore\hardware\avr\3.0.3\cores\MCUdude_corefiles/wiring.c:403
      start += 1000UL;
     684:	88 ee       	ldi	r24, 0xE8	; 232
     686:	c8 0e       	add	r12, r24
     688:	83 e0       	ldi	r24, 0x03	; 3
     68a:	d8 1e       	adc	r13, r24
     68c:	e1 1c       	adc	r14, r1
     68e:	f1 1c       	adc	r15, r1
C:\Users\Ryan\AppData\Local\Arduino15\packages\MegaCore\hardware\avr\3.0.3\cores\MCUdude_corefiles/wiring.c:401
{
  unsigned long start = micros();

  while (ms > 0UL) {
    yield();
    while (ms > 0UL && (micros() - start) >= 1000UL) {
     690:	81 14       	cp	r8, r1
     692:	91 04       	cpc	r9, r1
     694:	a1 04       	cpc	r10, r1
     696:	b1 04       	cpc	r11, r1
     698:	29 f7       	brne	.-54     	; 0x664 <delay+0x1c>
C:\Users\Ryan\AppData\Local\Arduino15\packages\MegaCore\hardware\avr\3.0.3\cores\MCUdude_corefiles/wiring.c:406
      ms--;
      start += 1000UL;
    }
  }
}
     69a:	ff 90       	pop	r15
     69c:	ef 90       	pop	r14
     69e:	df 90       	pop	r13
     6a0:	cf 90       	pop	r12
     6a2:	bf 90       	pop	r11
     6a4:	af 90       	pop	r10
     6a6:	9f 90       	pop	r9
     6a8:	8f 90       	pop	r8
     6aa:	08 95       	ret

000006ac <TwoWire::onRequestService()>:
onRequestService():
C:\Users\Ryan\AppData\Local\Arduino15\packages\MegaCore\hardware\avr\3.0.3\libraries\Wire\src\TwoWire/TwoWire.cpp:368
  // !!! this will kill any pending pre-master sendTo() activity
  txBufferIndex = 0;
  txBufferLength = 0;
  // alert user program
  user_onRequest();
}
     6ac:	08 95       	ret

000006ae <TwoWire::onReceiveService(unsigned char*, int)>:
onReceiveService():
C:\Users\Ryan\AppData\Local\Arduino15\packages\MegaCore\hardware\avr\3.0.3\libraries\Wire\src\TwoWire/TwoWire.cpp:353
  // set rx iterator vars
  rxBufferIndex = 0;
  rxBufferLength = numBytes;
  // alert user program
  user_onReceive(numBytes);
}
     6ae:	08 95       	ret

000006b0 <Print::write(unsigned char const*, unsigned int)>:
write():
C:\Users\Ryan\AppData\Local\Arduino15\packages\MegaCore\hardware\avr\3.0.3\cores\MCUdude_corefiles/Print.cpp:35

// Public Methods //////////////////////////////////////////////////////////////

/* default implementation: may be overridden */
size_t Print::write(const uint8_t *buffer, size_t size)
{
     6b0:	af 92       	push	r10
     6b2:	bf 92       	push	r11
     6b4:	cf 92       	push	r12
     6b6:	df 92       	push	r13
     6b8:	ef 92       	push	r14
     6ba:	ff 92       	push	r15
     6bc:	0f 93       	push	r16
     6be:	1f 93       	push	r17
     6c0:	cf 93       	push	r28
     6c2:	df 93       	push	r29
     6c4:	6c 01       	movw	r12, r24
     6c6:	7b 01       	movw	r14, r22
     6c8:	8b 01       	movw	r16, r22
     6ca:	04 0f       	add	r16, r20
     6cc:	15 1f       	adc	r17, r21
     6ce:	eb 01       	movw	r28, r22
     6d0:	5e 01       	movw	r10, r28
     6d2:	ae 18       	sub	r10, r14
     6d4:	bf 08       	sbc	r11, r15
C:\Users\Ryan\AppData\Local\Arduino15\packages\MegaCore\hardware\avr\3.0.3\cores\MCUdude_corefiles/Print.cpp:37
  size_t n = 0;
  while (size--) {
     6d6:	c0 17       	cp	r28, r16
     6d8:	d1 07       	cpc	r29, r17
     6da:	59 f0       	breq	.+22     	; 0x6f2 <Print::write(unsigned char const*, unsigned int)+0x42>
C:\Users\Ryan\AppData\Local\Arduino15\packages\MegaCore\hardware\avr\3.0.3\cores\MCUdude_corefiles/Print.cpp:38
    if (write(*buffer++)) n++;
     6dc:	69 91       	ld	r22, Y+
     6de:	d6 01       	movw	r26, r12
     6e0:	ed 91       	ld	r30, X+
     6e2:	fc 91       	ld	r31, X
     6e4:	01 90       	ld	r0, Z+
     6e6:	f0 81       	ld	r31, Z
     6e8:	e0 2d       	mov	r30, r0
     6ea:	c6 01       	movw	r24, r12
     6ec:	09 95       	icall
     6ee:	89 2b       	or	r24, r25
     6f0:	79 f7       	brne	.-34     	; 0x6d0 <Print::write(unsigned char const*, unsigned int)+0x20>
C:\Users\Ryan\AppData\Local\Arduino15\packages\MegaCore\hardware\avr\3.0.3\cores\MCUdude_corefiles/Print.cpp:42
    else break;
  }
  return n;
}
     6f2:	c5 01       	movw	r24, r10
     6f4:	df 91       	pop	r29
     6f6:	cf 91       	pop	r28
     6f8:	1f 91       	pop	r17
     6fa:	0f 91       	pop	r16
     6fc:	ff 90       	pop	r15
     6fe:	ef 90       	pop	r14
     700:	df 90       	pop	r13
     702:	cf 90       	pop	r12
     704:	bf 90       	pop	r11
     706:	af 90       	pop	r10
     708:	08 95       	ret

0000070a <HardwareSerial::availableForWrite()>:
availableForWrite():
C:\Users\Ryan\AppData\Local\Arduino15\packages\MegaCore\hardware\avr\3.0.3\cores\MCUdude_corefiles/HardwareSerial.cpp:195
{
  tx_buffer_index_t head;
  tx_buffer_index_t tail;

  TX_BUFFER_ATOMIC {
    head = _tx_buffer_head;
     70a:	fc 01       	movw	r30, r24
     70c:	53 8d       	ldd	r21, Z+27	; 0x1b
C:\Users\Ryan\AppData\Local\Arduino15\packages\MegaCore\hardware\avr\3.0.3\cores\MCUdude_corefiles/HardwareSerial.cpp:196
    tail = _tx_buffer_tail;
     70e:	44 8d       	ldd	r20, Z+28	; 0x1c
     710:	25 2f       	mov	r18, r21
     712:	30 e0       	ldi	r19, 0x00	; 0
     714:	84 2f       	mov	r24, r20
     716:	90 e0       	ldi	r25, 0x00	; 0
C:\Users\Ryan\AppData\Local\Arduino15\packages\MegaCore\hardware\avr\3.0.3\cores\MCUdude_corefiles/HardwareSerial.cpp:198
  }
  if (head >= tail) return SERIAL_TX_BUFFER_SIZE - 1 - head + tail;
     718:	82 1b       	sub	r24, r18
     71a:	93 0b       	sbc	r25, r19
     71c:	54 17       	cp	r21, r20
     71e:	10 f0       	brcs	.+4      	; 0x724 <HardwareSerial::availableForWrite()+0x1a>
     720:	cf 96       	adiw	r24, 0x3f	; 63
     722:	08 95       	ret
C:\Users\Ryan\AppData\Local\Arduino15\packages\MegaCore\hardware\avr\3.0.3\cores\MCUdude_corefiles/HardwareSerial.cpp:199
  return tail - head - 1;
     724:	01 97       	sbiw	r24, 0x01	; 1
C:\Users\Ryan\AppData\Local\Arduino15\packages\MegaCore\hardware\avr\3.0.3\cores\MCUdude_corefiles/HardwareSerial.cpp:200
}
     726:	08 95       	ret

00000728 <HardwareSerial::read()>:
read():
C:\Users\Ryan\AppData\Local\Arduino15\packages\MegaCore\hardware\avr\3.0.3\cores\MCUdude_corefiles/HardwareSerial.cpp:178
    return _rx_buffer[_rx_buffer_tail];
  }
}

int HardwareSerial::read(void)
{
     728:	fc 01       	movw	r30, r24
C:\Users\Ryan\AppData\Local\Arduino15\packages\MegaCore\hardware\avr\3.0.3\cores\MCUdude_corefiles/HardwareSerial.cpp:180
  // if the head isn't ahead of the tail, we don't have any characters
  if (_rx_buffer_head == _rx_buffer_tail) {
     72a:	91 8d       	ldd	r25, Z+25	; 0x19
     72c:	82 8d       	ldd	r24, Z+26	; 0x1a
     72e:	98 17       	cp	r25, r24
     730:	61 f0       	breq	.+24     	; 0x74a <HardwareSerial::read()+0x22>
C:\Users\Ryan\AppData\Local\Arduino15\packages\MegaCore\hardware\avr\3.0.3\cores\MCUdude_corefiles/HardwareSerial.cpp:183
    return -1;
  } else {
    unsigned char c = _rx_buffer[_rx_buffer_tail];
     732:	a2 8d       	ldd	r26, Z+26	; 0x1a
     734:	ae 0f       	add	r26, r30
     736:	bf 2f       	mov	r27, r31
     738:	b1 1d       	adc	r27, r1
     73a:	5d 96       	adiw	r26, 0x1d	; 29
     73c:	8c 91       	ld	r24, X
C:\Users\Ryan\AppData\Local\Arduino15\packages\MegaCore\hardware\avr\3.0.3\cores\MCUdude_corefiles/HardwareSerial.cpp:184
    _rx_buffer_tail = (rx_buffer_index_t)(_rx_buffer_tail + 1) % SERIAL_RX_BUFFER_SIZE;
     73e:	92 8d       	ldd	r25, Z+26	; 0x1a
     740:	9f 5f       	subi	r25, 0xFF	; 255
     742:	9f 73       	andi	r25, 0x3F	; 63
     744:	92 8f       	std	Z+26, r25	; 0x1a
C:\Users\Ryan\AppData\Local\Arduino15\packages\MegaCore\hardware\avr\3.0.3\cores\MCUdude_corefiles/HardwareSerial.cpp:185
    return c;
     746:	90 e0       	ldi	r25, 0x00	; 0
     748:	08 95       	ret
C:\Users\Ryan\AppData\Local\Arduino15\packages\MegaCore\hardware\avr\3.0.3\cores\MCUdude_corefiles/HardwareSerial.cpp:181

int HardwareSerial::read(void)
{
  // if the head isn't ahead of the tail, we don't have any characters
  if (_rx_buffer_head == _rx_buffer_tail) {
    return -1;
     74a:	8f ef       	ldi	r24, 0xFF	; 255
     74c:	9f ef       	ldi	r25, 0xFF	; 255
C:\Users\Ryan\AppData\Local\Arduino15\packages\MegaCore\hardware\avr\3.0.3\cores\MCUdude_corefiles/HardwareSerial.cpp:187
  } else {
    unsigned char c = _rx_buffer[_rx_buffer_tail];
    _rx_buffer_tail = (rx_buffer_index_t)(_rx_buffer_tail + 1) % SERIAL_RX_BUFFER_SIZE;
    return c;
  }
}
     74e:	08 95       	ret

00000750 <HardwareSerial::peek()>:
peek():
C:\Users\Ryan\AppData\Local\Arduino15\packages\MegaCore\hardware\avr\3.0.3\cores\MCUdude_corefiles/HardwareSerial.cpp:169
{
  return ((unsigned int)(SERIAL_RX_BUFFER_SIZE + _rx_buffer_head - _rx_buffer_tail)) % SERIAL_RX_BUFFER_SIZE;
}

int HardwareSerial::peek(void)
{
     750:	fc 01       	movw	r30, r24
C:\Users\Ryan\AppData\Local\Arduino15\packages\MegaCore\hardware\avr\3.0.3\cores\MCUdude_corefiles/HardwareSerial.cpp:170
  if (_rx_buffer_head == _rx_buffer_tail) {
     752:	91 8d       	ldd	r25, Z+25	; 0x19
     754:	82 8d       	ldd	r24, Z+26	; 0x1a
     756:	98 17       	cp	r25, r24
     758:	31 f0       	breq	.+12     	; 0x766 <HardwareSerial::peek()+0x16>
C:\Users\Ryan\AppData\Local\Arduino15\packages\MegaCore\hardware\avr\3.0.3\cores\MCUdude_corefiles/HardwareSerial.cpp:173
    return -1;
  } else {
    return _rx_buffer[_rx_buffer_tail];
     75a:	82 8d       	ldd	r24, Z+26	; 0x1a
     75c:	e8 0f       	add	r30, r24
     75e:	f1 1d       	adc	r31, r1
     760:	85 8d       	ldd	r24, Z+29	; 0x1d
     762:	90 e0       	ldi	r25, 0x00	; 0
     764:	08 95       	ret
C:\Users\Ryan\AppData\Local\Arduino15\packages\MegaCore\hardware\avr\3.0.3\cores\MCUdude_corefiles/HardwareSerial.cpp:171
}

int HardwareSerial::peek(void)
{
  if (_rx_buffer_head == _rx_buffer_tail) {
    return -1;
     766:	8f ef       	ldi	r24, 0xFF	; 255
     768:	9f ef       	ldi	r25, 0xFF	; 255
C:\Users\Ryan\AppData\Local\Arduino15\packages\MegaCore\hardware\avr\3.0.3\cores\MCUdude_corefiles/HardwareSerial.cpp:175
  } else {
    return _rx_buffer[_rx_buffer_tail];
  }
}
     76a:	08 95       	ret

0000076c <HardwareSerial::available()>:
available():
C:\Users\Ryan\AppData\Local\Arduino15\packages\MegaCore\hardware\avr\3.0.3\cores\MCUdude_corefiles/HardwareSerial.cpp:164
  // clear any received data
  _rx_buffer_head = _rx_buffer_tail;
}

int HardwareSerial::available(void)
{
     76c:	fc 01       	movw	r30, r24
C:\Users\Ryan\AppData\Local\Arduino15\packages\MegaCore\hardware\avr\3.0.3\cores\MCUdude_corefiles/HardwareSerial.cpp:165
  return ((unsigned int)(SERIAL_RX_BUFFER_SIZE + _rx_buffer_head - _rx_buffer_tail)) % SERIAL_RX_BUFFER_SIZE;
     76e:	91 8d       	ldd	r25, Z+25	; 0x19
     770:	22 8d       	ldd	r18, Z+26	; 0x1a
     772:	89 2f       	mov	r24, r25
     774:	90 e0       	ldi	r25, 0x00	; 0
     776:	80 5c       	subi	r24, 0xC0	; 192
     778:	9f 4f       	sbci	r25, 0xFF	; 255
     77a:	82 1b       	sub	r24, r18
     77c:	91 09       	sbc	r25, r1
C:\Users\Ryan\AppData\Local\Arduino15\packages\MegaCore\hardware\avr\3.0.3\cores\MCUdude_corefiles/HardwareSerial.cpp:166
}
     77e:	8f 73       	andi	r24, 0x3F	; 63
     780:	99 27       	eor	r25, r25
     782:	08 95       	ret

00000784 <Serial1_available()>:
Serial1_available():
C:\Users\Ryan\AppData\Local\Arduino15\packages\MegaCore\hardware\avr\3.0.3\cores\MCUdude_corefiles/HardwareSerial1.cpp:68
HardwareSerial Serial1(&UBRR1H, &UBRR1L, &UCSR1A, &UCSR1B, &UCSR1C, &UDR1);

// Function that can be weakly referenced by serialEventRun to prevent
// pulling in this file if it's not otherwise used.
bool Serial1_available() {
  return Serial1.available();
     784:	89 e7       	ldi	r24, 0x79	; 121
     786:	99 e0       	ldi	r25, 0x09	; 9
     788:	0e 94 b6 03 	call	0x76c	; 0x76c <HardwareSerial::available()>
     78c:	21 e0       	ldi	r18, 0x01	; 1
     78e:	89 2b       	or	r24, r25
     790:	09 f4       	brne	.+2      	; 0x794 <Serial1_available()+0x10>
     792:	20 e0       	ldi	r18, 0x00	; 0
C:\Users\Ryan\AppData\Local\Arduino15\packages\MegaCore\hardware\avr\3.0.3\cores\MCUdude_corefiles/HardwareSerial1.cpp:69
}
     794:	82 2f       	mov	r24, r18
     796:	08 95       	ret

00000798 <Serial0_available()>:
Serial0_available():
C:\Users\Ryan\AppData\Local\Arduino15\packages\MegaCore\hardware\avr\3.0.3\cores\MCUdude_corefiles/HardwareSerial0.cpp:76
#endif

// Function that can be weakly referenced by serialEventRun to prevent
// pulling in this file if it's not otherwise used.
bool Serial0_available() {
  return Serial.available();
     798:	86 e1       	ldi	r24, 0x16	; 22
     79a:	9a e0       	ldi	r25, 0x0A	; 10
     79c:	0e 94 b6 03 	call	0x76c	; 0x76c <HardwareSerial::available()>
     7a0:	21 e0       	ldi	r18, 0x01	; 1
     7a2:	89 2b       	or	r24, r25
     7a4:	09 f4       	brne	.+2      	; 0x7a8 <Serial0_available()+0x10>
     7a6:	20 e0       	ldi	r18, 0x00	; 0
C:\Users\Ryan\AppData\Local\Arduino15\packages\MegaCore\hardware\avr\3.0.3\cores\MCUdude_corefiles/HardwareSerial0.cpp:77
}
     7a8:	82 2f       	mov	r24, r18
     7aa:	08 95       	ret

000007ac <HardwareSerial::_tx_udr_empty_irq()>:
_tx_udr_empty_irq():
C:\Users\Ryan\AppData\Local\Arduino15\packages\MegaCore\hardware\avr\3.0.3\cores\MCUdude_corefiles/HardwareSerial.cpp:90
#endif

// Actual interrupt handlers //////////////////////////////////////////////////////////////

void HardwareSerial::_tx_udr_empty_irq(void)
{
     7ac:	fc 01       	movw	r30, r24
C:\Users\Ryan\AppData\Local\Arduino15\packages\MegaCore\hardware\avr\3.0.3\cores\MCUdude_corefiles/HardwareSerial.cpp:93
  // If interrupts are enabled, there must be more data in the output
  // buffer. Send the next byte
  unsigned char c = _tx_buffer[_tx_buffer_tail];
     7ae:	a4 8d       	ldd	r26, Z+28	; 0x1c
     7b0:	a8 0f       	add	r26, r24
     7b2:	b9 2f       	mov	r27, r25
     7b4:	b1 1d       	adc	r27, r1
     7b6:	a3 5a       	subi	r26, 0xA3	; 163
     7b8:	bf 4f       	sbci	r27, 0xFF	; 255
     7ba:	2c 91       	ld	r18, X
C:\Users\Ryan\AppData\Local\Arduino15\packages\MegaCore\hardware\avr\3.0.3\cores\MCUdude_corefiles/HardwareSerial.cpp:94
  _tx_buffer_tail = (_tx_buffer_tail + 1) % SERIAL_TX_BUFFER_SIZE;
     7bc:	84 8d       	ldd	r24, Z+28	; 0x1c
     7be:	90 e0       	ldi	r25, 0x00	; 0
     7c0:	01 96       	adiw	r24, 0x01	; 1
     7c2:	8f 73       	andi	r24, 0x3F	; 63
     7c4:	99 27       	eor	r25, r25
     7c6:	84 8f       	std	Z+28, r24	; 0x1c
C:\Users\Ryan\AppData\Local\Arduino15\packages\MegaCore\hardware\avr\3.0.3\cores\MCUdude_corefiles/HardwareSerial.cpp:96

  *_udr = c;
     7c8:	a6 89       	ldd	r26, Z+22	; 0x16
     7ca:	b7 89       	ldd	r27, Z+23	; 0x17
     7cc:	2c 93       	st	X, r18
C:\Users\Ryan\AppData\Local\Arduino15\packages\MegaCore\hardware\avr\3.0.3\cores\MCUdude_corefiles/HardwareSerial.cpp:104
  // location". This makes sure flush() won't return until the bytes
  // actually got written. Other r/w bits are preserved, and zeroes
  // written to the rest.

  #ifdef MPCM0
    *_ucsra = ((*_ucsra) & ((1 << U2X0) | (1 << MPCM0))) | (1 << TXC0);
     7ce:	a0 89       	ldd	r26, Z+16	; 0x10
     7d0:	b1 89       	ldd	r27, Z+17	; 0x11
     7d2:	8c 91       	ld	r24, X
     7d4:	83 70       	andi	r24, 0x03	; 3
     7d6:	80 64       	ori	r24, 0x40	; 64
     7d8:	8c 93       	st	X, r24
C:\Users\Ryan\AppData\Local\Arduino15\packages\MegaCore\hardware\avr\3.0.3\cores\MCUdude_corefiles/HardwareSerial.cpp:109
  #else
    *_ucsra = ((*_ucsra) & ((1 << U2X0) | (1 << TXC0)));
  #endif

  if (_tx_buffer_head == _tx_buffer_tail) {
     7da:	93 8d       	ldd	r25, Z+27	; 0x1b
     7dc:	84 8d       	ldd	r24, Z+28	; 0x1c
     7de:	98 13       	cpse	r25, r24
     7e0:	06 c0       	rjmp	.+12     	; 0x7ee <HardwareSerial::_tx_udr_empty_irq()+0x42>
C:\Users\Ryan\AppData\Local\Arduino15\packages\MegaCore\hardware\avr\3.0.3\cores\MCUdude_corefiles/HardwareSerial.cpp:111
    // Buffer empty, so disable interrupts
    *_ucsrb &= ~_BV(UDRIE0);
     7e2:	02 88       	ldd	r0, Z+18	; 0x12
     7e4:	f3 89       	ldd	r31, Z+19	; 0x13
     7e6:	e0 2d       	mov	r30, r0
     7e8:	80 81       	ld	r24, Z
     7ea:	8f 7d       	andi	r24, 0xDF	; 223
     7ec:	80 83       	st	Z, r24
C:\Users\Ryan\AppData\Local\Arduino15\packages\MegaCore\hardware\avr\3.0.3\cores\MCUdude_corefiles/HardwareSerial.cpp:113
  }
}
     7ee:	08 95       	ret

000007f0 <HardwareSerial::write(unsigned char)>:
write():
C:\Users\Ryan\AppData\Local\Arduino15\packages\MegaCore\hardware\avr\3.0.3\cores\MCUdude_corefiles/HardwareSerial.cpp:223
  // If we get here, nothing is queued anymore (DRIE is disabled) and
  // the hardware finished tranmission (TXC is set).
}

size_t HardwareSerial::write(uint8_t c)
{
     7f0:	ef 92       	push	r14
     7f2:	ff 92       	push	r15
     7f4:	0f 93       	push	r16
     7f6:	1f 93       	push	r17
     7f8:	cf 93       	push	r28
     7fa:	df 93       	push	r29
     7fc:	ec 01       	movw	r28, r24
C:\Users\Ryan\AppData\Local\Arduino15\packages\MegaCore\hardware\avr\3.0.3\cores\MCUdude_corefiles/HardwareSerial.cpp:224
  _written = true;
     7fe:	81 e0       	ldi	r24, 0x01	; 1
     800:	88 8f       	std	Y+24, r24	; 0x18
C:\Users\Ryan\AppData\Local\Arduino15\packages\MegaCore\hardware\avr\3.0.3\cores\MCUdude_corefiles/HardwareSerial.cpp:229
  // If the buffer and the data register is empty, just write the byte
  // to the data register and be done. This shortcut helps
  // significantly improve the effective datarate at high (>
  // 500kbit/s) bitrates, where interrupt overhead becomes a slowdown.
  if (_tx_buffer_head == _tx_buffer_tail && bit_is_set(*_ucsra, UDRE0)) {
     802:	9b 8d       	ldd	r25, Y+27	; 0x1b
     804:	8c 8d       	ldd	r24, Y+28	; 0x1c
     806:	98 13       	cpse	r25, r24
     808:	1a c0       	rjmp	.+52     	; 0x83e <HardwareSerial::write(unsigned char)+0x4e>
     80a:	e8 89       	ldd	r30, Y+16	; 0x10
     80c:	f9 89       	ldd	r31, Y+17	; 0x11
     80e:	80 81       	ld	r24, Z
     810:	85 ff       	sbrs	r24, 5
     812:	15 c0       	rjmp	.+42     	; 0x83e <HardwareSerial::write(unsigned char)+0x4e>
C:\Users\Ryan\AppData\Local\Arduino15\packages\MegaCore\hardware\avr\3.0.3\cores\MCUdude_corefiles/HardwareSerial.cpp:238
    // So writing UDR must happen first.
    // Writing UDR and clearing TC must be done atomically, otherwise
    // interrupts might delay the TXC clear so the byte written to UDR
    // is transmitted (setting TXC) before clearing TXC. Then TXC will
    // be cleared when no bytes are left, causing flush() to hang
    ATOMIC_BLOCK(ATOMIC_RESTORESTATE) {
     814:	9f b7       	in	r25, 0x3f	; 63
__iCliRetVal():
c:\users\ryan\appdata\local\arduino15\packages\arduino\tools\avr-gcc\7.3.0-atmel3.6.1-arduino7\avr\include\util/atomic.h:50
    return 1;
}

static __inline__ uint8_t __iCliRetVal(void)
{
    cli();
     816:	f8 94       	cli
write():
C:\Users\Ryan\AppData\Local\Arduino15\packages\MegaCore\hardware\avr\3.0.3\cores\MCUdude_corefiles/HardwareSerial.cpp:239
      *_udr = c;
     818:	ee 89       	ldd	r30, Y+22	; 0x16
     81a:	ff 89       	ldd	r31, Y+23	; 0x17
     81c:	60 83       	st	Z, r22
C:\Users\Ryan\AppData\Local\Arduino15\packages\MegaCore\hardware\avr\3.0.3\cores\MCUdude_corefiles/HardwareSerial.cpp:241
      #ifdef MPCM0
        *_ucsra = ((*_ucsra) & ((1 << U2X0) | (1 << MPCM0))) | (1 << TXC0);
     81e:	e8 89       	ldd	r30, Y+16	; 0x10
     820:	f9 89       	ldd	r31, Y+17	; 0x11
     822:	80 81       	ld	r24, Z
     824:	83 70       	andi	r24, 0x03	; 3
     826:	80 64       	ori	r24, 0x40	; 64
C:\Users\Ryan\AppData\Local\Arduino15\packages\MegaCore\hardware\avr\3.0.3\cores\MCUdude_corefiles/HardwareSerial.cpp:271
  // make atomic to prevent execution of ISR between setting the
  // head pointer and setting the interrupt flag resulting in buffer
  // retransmission
  ATOMIC_BLOCK(ATOMIC_RESTORESTATE) {
    _tx_buffer_head = i;
    *_ucsrb |= _BV(UDRIE0);
     828:	80 83       	st	Z, r24
__iRestore():
c:\users\ryan\appdata\local\arduino15\packages\arduino\tools\avr-gcc\7.3.0-atmel3.6.1-arduino7\avr\include\util/atomic.h:70
    (void)__s;
}

static __inline__ void __iRestore(const  uint8_t *__s)
{
    SREG = *__s;
     82a:	9f bf       	out	0x3f, r25	; 63
write():
C:\Users\Ryan\AppData\Local\Arduino15\packages\MegaCore\hardware\avr\3.0.3\cores\MCUdude_corefiles/HardwareSerial.cpp:275
  }
  
  return 1;
}
     82c:	81 e0       	ldi	r24, 0x01	; 1
     82e:	90 e0       	ldi	r25, 0x00	; 0
     830:	df 91       	pop	r29
     832:	cf 91       	pop	r28
     834:	1f 91       	pop	r17
     836:	0f 91       	pop	r16
     838:	ff 90       	pop	r15
     83a:	ef 90       	pop	r14
     83c:	08 95       	ret
     83e:	f6 2e       	mov	r15, r22
C:\Users\Ryan\AppData\Local\Arduino15\packages\MegaCore\hardware\avr\3.0.3\cores\MCUdude_corefiles/HardwareSerial.cpp:248
        *_ucsra = ((*_ucsra) & ((1 << U2X0) | (1 << TXC0)));
      #endif
    }
    return 1;
  }
  tx_buffer_index_t i = (_tx_buffer_head + 1) % SERIAL_TX_BUFFER_SIZE;
     840:	0b 8d       	ldd	r16, Y+27	; 0x1b
     842:	10 e0       	ldi	r17, 0x00	; 0
     844:	0f 5f       	subi	r16, 0xFF	; 255
     846:	1f 4f       	sbci	r17, 0xFF	; 255
     848:	0f 73       	andi	r16, 0x3F	; 63
     84a:	11 27       	eor	r17, r17
     84c:	e0 2e       	mov	r14, r16
C:\Users\Ryan\AppData\Local\Arduino15\packages\MegaCore\hardware\avr\3.0.3\cores\MCUdude_corefiles/HardwareSerial.cpp:252

  // If the output buffer is full, there's nothing for it other than to 
  // wait for the interrupt handler to empty it a bit
  while (i == _tx_buffer_tail) {
     84e:	8c 8d       	ldd	r24, Y+28	; 0x1c
     850:	8e 11       	cpse	r24, r14
     852:	0c c0       	rjmp	.+24     	; 0x86c <HardwareSerial::write(unsigned char)+0x7c>
C:\Users\Ryan\AppData\Local\Arduino15\packages\MegaCore\hardware\avr\3.0.3\cores\MCUdude_corefiles/HardwareSerial.cpp:253
    if (bit_is_clear(SREG, SREG_I)) {
     854:	0f b6       	in	r0, 0x3f	; 63
     856:	07 fc       	sbrc	r0, 7
     858:	fa cf       	rjmp	.-12     	; 0x84e <HardwareSerial::write(unsigned char)+0x5e>
C:\Users\Ryan\AppData\Local\Arduino15\packages\MegaCore\hardware\avr\3.0.3\cores\MCUdude_corefiles/HardwareSerial.cpp:258
      // Interrupts are disabled, so we'll have to poll the data
      // register empty flag ourselves. If it is set, pretend an
      // interrupt has happened and call the handler to free up
      // space for us.
      if(bit_is_set(*_ucsra, UDRE0))
     85a:	e8 89       	ldd	r30, Y+16	; 0x10
     85c:	f9 89       	ldd	r31, Y+17	; 0x11
     85e:	80 81       	ld	r24, Z
     860:	85 ff       	sbrs	r24, 5
     862:	f5 cf       	rjmp	.-22     	; 0x84e <HardwareSerial::write(unsigned char)+0x5e>
C:\Users\Ryan\AppData\Local\Arduino15\packages\MegaCore\hardware\avr\3.0.3\cores\MCUdude_corefiles/HardwareSerial.cpp:259
        _tx_udr_empty_irq();
     864:	ce 01       	movw	r24, r28
     866:	0e 94 d6 03 	call	0x7ac	; 0x7ac <HardwareSerial::_tx_udr_empty_irq()>
     86a:	f1 cf       	rjmp	.-30     	; 0x84e <HardwareSerial::write(unsigned char)+0x5e>
C:\Users\Ryan\AppData\Local\Arduino15\packages\MegaCore\hardware\avr\3.0.3\cores\MCUdude_corefiles/HardwareSerial.cpp:265
    } else {
      // nop, the interrupt handler will free up space for us
    }
  }

  _tx_buffer[_tx_buffer_head] = c;
     86c:	eb 8d       	ldd	r30, Y+27	; 0x1b
     86e:	ec 0f       	add	r30, r28
     870:	fd 2f       	mov	r31, r29
     872:	f1 1d       	adc	r31, r1
     874:	e3 5a       	subi	r30, 0xA3	; 163
     876:	ff 4f       	sbci	r31, 0xFF	; 255
     878:	f0 82       	st	Z, r15
C:\Users\Ryan\AppData\Local\Arduino15\packages\MegaCore\hardware\avr\3.0.3\cores\MCUdude_corefiles/HardwareSerial.cpp:269
  // make atomic to prevent execution of ISR between setting the
  // head pointer and setting the interrupt flag resulting in buffer
  // retransmission
  ATOMIC_BLOCK(ATOMIC_RESTORESTATE) {
     87a:	9f b7       	in	r25, 0x3f	; 63
__iCliRetVal():
c:\users\ryan\appdata\local\arduino15\packages\arduino\tools\avr-gcc\7.3.0-atmel3.6.1-arduino7\avr\include\util/atomic.h:50
    return 1;
}

static __inline__ uint8_t __iCliRetVal(void)
{
    cli();
     87c:	f8 94       	cli
write():
C:\Users\Ryan\AppData\Local\Arduino15\packages\MegaCore\hardware\avr\3.0.3\cores\MCUdude_corefiles/HardwareSerial.cpp:270
    _tx_buffer_head = i;
     87e:	0b 8f       	std	Y+27, r16	; 0x1b
C:\Users\Ryan\AppData\Local\Arduino15\packages\MegaCore\hardware\avr\3.0.3\cores\MCUdude_corefiles/HardwareSerial.cpp:271
    *_ucsrb |= _BV(UDRIE0);
     880:	ea 89       	ldd	r30, Y+18	; 0x12
     882:	fb 89       	ldd	r31, Y+19	; 0x13
     884:	80 81       	ld	r24, Z
     886:	80 62       	ori	r24, 0x20	; 32
     888:	cf cf       	rjmp	.-98     	; 0x828 <HardwareSerial::write(unsigned char)+0x38>

0000088a <HardwareSerial::flush()>:
flush():
C:\Users\Ryan\AppData\Local\Arduino15\packages\MegaCore\hardware\avr\3.0.3\cores\MCUdude_corefiles/HardwareSerial.cpp:203
  if (head >= tail) return SERIAL_TX_BUFFER_SIZE - 1 - head + tail;
  return tail - head - 1;
}

void HardwareSerial::flush()
{
     88a:	cf 93       	push	r28
     88c:	df 93       	push	r29
     88e:	ec 01       	movw	r28, r24
C:\Users\Ryan\AppData\Local\Arduino15\packages\MegaCore\hardware\avr\3.0.3\cores\MCUdude_corefiles/HardwareSerial.cpp:207
  // If we have never written a byte, no need to flush. This special
  // case is needed since there is no way to force the TXC (transmit
  // complete) bit to 1 during initialization
  if (!_written)
     890:	88 8d       	ldd	r24, Y+24	; 0x18
     892:	88 23       	and	r24, r24
     894:	b9 f0       	breq	.+46     	; 0x8c4 <HardwareSerial::flush()+0x3a>
C:\Users\Ryan\AppData\Local\Arduino15\packages\MegaCore\hardware\avr\3.0.3\cores\MCUdude_corefiles/HardwareSerial.cpp:210
    return;

  while (bit_is_set(*_ucsrb, UDRIE0) || bit_is_clear(*_ucsra, TXC0)) {
     896:	aa 89       	ldd	r26, Y+18	; 0x12
     898:	bb 89       	ldd	r27, Y+19	; 0x13
     89a:	e8 89       	ldd	r30, Y+16	; 0x10
     89c:	f9 89       	ldd	r31, Y+17	; 0x11
     89e:	8c 91       	ld	r24, X
     8a0:	85 fd       	sbrc	r24, 5
     8a2:	03 c0       	rjmp	.+6      	; 0x8aa <HardwareSerial::flush()+0x20>
     8a4:	80 81       	ld	r24, Z
     8a6:	86 fd       	sbrc	r24, 6
     8a8:	0d c0       	rjmp	.+26     	; 0x8c4 <HardwareSerial::flush()+0x3a>
C:\Users\Ryan\AppData\Local\Arduino15\packages\MegaCore\hardware\avr\3.0.3\cores\MCUdude_corefiles/HardwareSerial.cpp:211
    if (bit_is_clear(SREG, SREG_I) && bit_is_set(*_ucsrb, UDRIE0))
     8aa:	0f b6       	in	r0, 0x3f	; 63
     8ac:	07 fc       	sbrc	r0, 7
     8ae:	f7 cf       	rjmp	.-18     	; 0x89e <HardwareSerial::flush()+0x14>
     8b0:	8c 91       	ld	r24, X
     8b2:	85 ff       	sbrs	r24, 5
     8b4:	f2 cf       	rjmp	.-28     	; 0x89a <HardwareSerial::flush()+0x10>
C:\Users\Ryan\AppData\Local\Arduino15\packages\MegaCore\hardware\avr\3.0.3\cores\MCUdude_corefiles/HardwareSerial.cpp:215
      // Interrupts are globally disabled, but the DR empty
      // interrupt should be enabled, so poll the DR empty flag to
      // prevent deadlock
      if (bit_is_set(*_ucsra, UDRE0))
     8b6:	80 81       	ld	r24, Z
     8b8:	85 ff       	sbrs	r24, 5
     8ba:	ed cf       	rjmp	.-38     	; 0x896 <HardwareSerial::flush()+0xc>
C:\Users\Ryan\AppData\Local\Arduino15\packages\MegaCore\hardware\avr\3.0.3\cores\MCUdude_corefiles/HardwareSerial.cpp:216
        _tx_udr_empty_irq();
     8bc:	ce 01       	movw	r24, r28
     8be:	0e 94 d6 03 	call	0x7ac	; 0x7ac <HardwareSerial::_tx_udr_empty_irq()>
     8c2:	e9 cf       	rjmp	.-46     	; 0x896 <HardwareSerial::flush()+0xc>
C:\Users\Ryan\AppData\Local\Arduino15\packages\MegaCore\hardware\avr\3.0.3\cores\MCUdude_corefiles/HardwareSerial.cpp:220
  }
  // If we get here, nothing is queued anymore (DRIE is disabled) and
  // the hardware finished tranmission (TXC is set).
}
     8c4:	df 91       	pop	r29
     8c6:	cf 91       	pop	r28
     8c8:	08 95       	ret

000008ca <serialEventRun()>:
serialEventRun():
C:\Users\Ryan\AppData\Local\Arduino15\packages\MegaCore\hardware\avr\3.0.3\cores\MCUdude_corefiles/HardwareSerial.cpp:67
#endif

void serialEventRun(void)
{
#if defined(HAVE_HWSERIAL0)
  if (Serial0_available && serialEvent && Serial0_available()) serialEvent();
     8ca:	80 e0       	ldi	r24, 0x00	; 0
     8cc:	90 e0       	ldi	r25, 0x00	; 0
     8ce:	89 2b       	or	r24, r25
     8d0:	29 f0       	breq	.+10     	; 0x8dc <serialEventRun()+0x12>
     8d2:	0e 94 cc 03 	call	0x798	; 0x798 <Serial0_available()>
     8d6:	81 11       	cpse	r24, r1
     8d8:	0e 94 00 00 	call	0	; 0x0 <__vectors>
C:\Users\Ryan\AppData\Local\Arduino15\packages\MegaCore\hardware\avr\3.0.3\cores\MCUdude_corefiles/HardwareSerial.cpp:70
#endif
#if defined(HAVE_HWSERIAL1)
  if (Serial1_available && serialEvent1 && Serial1_available()) serialEvent1();
     8dc:	80 e0       	ldi	r24, 0x00	; 0
     8de:	90 e0       	ldi	r25, 0x00	; 0
     8e0:	89 2b       	or	r24, r25
     8e2:	29 f0       	breq	.+10     	; 0x8ee <serialEventRun()+0x24>
     8e4:	0e 94 c2 03 	call	0x784	; 0x784 <Serial1_available()>
     8e8:	81 11       	cpse	r24, r1
     8ea:	0c 94 00 00 	jmp	0	; 0x0 <__vectors>
C:\Users\Ryan\AppData\Local\Arduino15\packages\MegaCore\hardware\avr\3.0.3\cores\MCUdude_corefiles/HardwareSerial.cpp:78
  if (Serial2_available && serialEvent2 && Serial2_available()) serialEvent2();
#endif
#if defined(HAVE_HWSERIAL3)
  if (Serial3_available && serialEvent3 && Serial3_available()) serialEvent3();
#endif
}
     8ee:	08 95       	ret

000008f0 <twi_stop>:
twi_stop():
C:\Users\Ryan\AppData\Local\Arduino15\packages\MegaCore\hardware\avr\3.0.3\libraries\Wire\src\TwoWire\utility/twi.c:430
 * Output   none
 */
void twi_stop(void)
{
  // send stop condition
  TWCR = _BV(TWEN) | _BV(TWIE) | _BV(TWEA) | _BV(TWINT) | _BV(TWSTO);
     8f0:	85 ed       	ldi	r24, 0xD5	; 213
     8f2:	80 93 74 00 	sts	0x0074, r24	; 0x800074 <__TEXT_REGION_LENGTH__+0x7e0074>
C:\Users\Ryan\AppData\Local\Arduino15\packages\MegaCore\hardware\avr\3.0.3\libraries\Wire\src\TwoWire\utility/twi.c:450
          return;
        }
      }
    }
  #else
    while(TWCR & _BV(TWSTO)){
     8f6:	80 91 74 00 	lds	r24, 0x0074	; 0x800074 <__TEXT_REGION_LENGTH__+0x7e0074>
     8fa:	84 fd       	sbrc	r24, 4
     8fc:	fc cf       	rjmp	.-8      	; 0x8f6 <twi_stop+0x6>
C:\Users\Ryan\AppData\Local\Arduino15\packages\MegaCore\hardware\avr\3.0.3\libraries\Wire\src\TwoWire\utility/twi.c:456
      continue;
    }
  #endif

  // update twi state
  twi_state = TWI_READY;
     8fe:	10 92 f6 08 	sts	0x08F6, r1	; 0x8008f6 <twi_state>
C:\Users\Ryan\AppData\Local\Arduino15\packages\MegaCore\hardware\avr\3.0.3\libraries\Wire\src\TwoWire\utility/twi.c:457
}
     902:	08 95       	ret

00000904 <twi_transmit>:
twi_transmit():
C:\Users\Ryan\AppData\Local\Arduino15\packages\MegaCore\hardware\avr\3.0.3\libraries\Wire\src\TwoWire\utility/twi.c:365
uint8_t twi_transmit(const uint8_t* data, uint8_t length)
{
  uint8_t i;

  // ensure data will fit into buffer
  if(TWI_BUFFER_SIZE < (twi_txBufferLength+length)){
     904:	20 91 9e 08 	lds	r18, 0x089E	; 0x80089e <twi_txBufferLength>
     908:	26 0f       	add	r18, r22
     90a:	33 27       	eor	r19, r19
     90c:	33 1f       	adc	r19, r19
     90e:	21 32       	cpi	r18, 0x21	; 33
     910:	31 05       	cpc	r19, r1
     912:	ec f4       	brge	.+58     	; 0x94e <twi_transmit+0x4a>
C:\Users\Ryan\AppData\Local\Arduino15\packages\MegaCore\hardware\avr\3.0.3\libraries\Wire\src\TwoWire\utility/twi.c:370
    return 1;
  }

  // ensure we are currently a slave transmitter
  if(TWI_STX != twi_state){
     914:	20 91 f6 08 	lds	r18, 0x08F6	; 0x8008f6 <twi_state>
     918:	fc 01       	movw	r30, r24
     91a:	90 e0       	ldi	r25, 0x00	; 0
     91c:	80 e0       	ldi	r24, 0x00	; 0
     91e:	24 30       	cpi	r18, 0x04	; 4
     920:	69 f0       	breq	.+26     	; 0x93c <twi_transmit+0x38>
C:\Users\Ryan\AppData\Local\Arduino15\packages\MegaCore\hardware\avr\3.0.3\libraries\Wire\src\TwoWire\utility/twi.c:371
    return 2;
     922:	82 e0       	ldi	r24, 0x02	; 2
C:\Users\Ryan\AppData\Local\Arduino15\packages\MegaCore\hardware\avr\3.0.3\libraries\Wire\src\TwoWire\utility/twi.c:381
    twi_txBuffer[twi_txBufferLength+i] = data[i];
  }
  twi_txBufferLength += length;

  return 0;
}
     924:	08 95       	ret
C:\Users\Ryan\AppData\Local\Arduino15\packages\MegaCore\hardware\avr\3.0.3\libraries\Wire\src\TwoWire\utility/twi.c:376
    return 2;
  }

  // set length and copy data into tx buffer
  for(i = 0; i < length; ++i){
    twi_txBuffer[twi_txBufferLength+i] = data[i];
     926:	a0 91 9e 08 	lds	r26, 0x089E	; 0x80089e <twi_txBufferLength>
     92a:	21 91       	ld	r18, Z+
     92c:	ac 01       	movw	r20, r24
     92e:	42 58       	subi	r20, 0x82	; 130
     930:	57 4f       	sbci	r21, 0xF7	; 247
     932:	a4 0f       	add	r26, r20
     934:	b5 2f       	mov	r27, r21
     936:	b1 1d       	adc	r27, r1
     938:	2c 93       	st	X, r18
     93a:	01 96       	adiw	r24, 0x01	; 1
C:\Users\Ryan\AppData\Local\Arduino15\packages\MegaCore\hardware\avr\3.0.3\libraries\Wire\src\TwoWire\utility/twi.c:375
  if(TWI_STX != twi_state){
    return 2;
  }

  // set length and copy data into tx buffer
  for(i = 0; i < length; ++i){
     93c:	86 17       	cp	r24, r22
     93e:	98 f3       	brcs	.-26     	; 0x926 <twi_transmit+0x22>
C:\Users\Ryan\AppData\Local\Arduino15\packages\MegaCore\hardware\avr\3.0.3\libraries\Wire\src\TwoWire\utility/twi.c:378
    twi_txBuffer[twi_txBufferLength+i] = data[i];
  }
  twi_txBufferLength += length;
     940:	80 91 9e 08 	lds	r24, 0x089E	; 0x80089e <twi_txBufferLength>
     944:	68 0f       	add	r22, r24
     946:	60 93 9e 08 	sts	0x089E, r22	; 0x80089e <twi_txBufferLength>
     94a:	80 e0       	ldi	r24, 0x00	; 0
     94c:	08 95       	ret
C:\Users\Ryan\AppData\Local\Arduino15\packages\MegaCore\hardware\avr\3.0.3\libraries\Wire\src\TwoWire\utility/twi.c:366
{
  uint8_t i;

  // ensure data will fit into buffer
  if(TWI_BUFFER_SIZE < (twi_txBufferLength+length)){
    return 1;
     94e:	81 e0       	ldi	r24, 0x01	; 1
     950:	08 95       	ret

00000952 <TwoWire::flush()>:
flush():
C:\Users\Ryan\AppData\Local\Arduino15\packages\MegaCore\hardware\avr\3.0.3\libraries\Wire\src\TwoWire/TwoWire.cpp:328
}

void TwoWire::flush(void)
{
  // XXX: to be implemented.
}
     952:	08 95       	ret

00000954 <TwoWire::peek()>:
peek():
C:\Users\Ryan\AppData\Local\Arduino15\packages\MegaCore\hardware\avr\3.0.3\libraries\Wire\src\TwoWire/TwoWire.cpp:318
// or after requestFrom(address, numBytes)
int TwoWire::peek(void)
{
  int value = -1;

  if(rxBufferIndex < rxBufferLength){
     954:	e0 91 3c 09 	lds	r30, 0x093C	; 0x80093c <TwoWire::rxBufferIndex>
     958:	80 91 3b 09 	lds	r24, 0x093B	; 0x80093b <TwoWire::rxBufferLength>
     95c:	e8 17       	cp	r30, r24
     95e:	30 f4       	brcc	.+12     	; 0x96c <TwoWire::peek()+0x18>
C:\Users\Ryan\AppData\Local\Arduino15\packages\MegaCore\hardware\avr\3.0.3\libraries\Wire\src\TwoWire/TwoWire.cpp:319
    value = rxBuffer[rxBufferIndex];
     960:	f0 e0       	ldi	r31, 0x00	; 0
     962:	e5 5e       	subi	r30, 0xE5	; 229
     964:	f6 4f       	sbci	r31, 0xF6	; 246
     966:	80 81       	ld	r24, Z
     968:	90 e0       	ldi	r25, 0x00	; 0
     96a:	08 95       	ret
C:\Users\Ryan\AppData\Local\Arduino15\packages\MegaCore\hardware\avr\3.0.3\libraries\Wire\src\TwoWire/TwoWire.cpp:316
// must be called in:
// slave rx event callback
// or after requestFrom(address, numBytes)
int TwoWire::peek(void)
{
  int value = -1;
     96c:	8f ef       	ldi	r24, 0xFF	; 255
     96e:	9f ef       	ldi	r25, 0xFF	; 255
C:\Users\Ryan\AppData\Local\Arduino15\packages\MegaCore\hardware\avr\3.0.3\libraries\Wire\src\TwoWire/TwoWire.cpp:323
  if(rxBufferIndex < rxBufferLength){
    value = rxBuffer[rxBufferIndex];
  }

  return value;
}
     970:	08 95       	ret

00000972 <TwoWire::available()>:
available():
C:\Users\Ryan\AppData\Local\Arduino15\packages\MegaCore\hardware\avr\3.0.3\libraries\Wire\src\TwoWire/TwoWire.cpp:292
// must be called in:
// slave rx event callback
// or after requestFrom(address, numBytes)
int TwoWire::available(void)
{
  return rxBufferLength - rxBufferIndex;
     972:	80 91 3b 09 	lds	r24, 0x093B	; 0x80093b <TwoWire::rxBufferLength>
     976:	90 91 3c 09 	lds	r25, 0x093C	; 0x80093c <TwoWire::rxBufferIndex>
C:\Users\Ryan\AppData\Local\Arduino15\packages\MegaCore\hardware\avr\3.0.3\libraries\Wire\src\TwoWire/TwoWire.cpp:293
}
     97a:	89 1b       	sub	r24, r25
     97c:	99 0b       	sbc	r25, r25
     97e:	08 95       	ret

00000980 <TwoWire::write(unsigned char const*, unsigned int)>:
write():
C:\Users\Ryan\AppData\Local\Arduino15\packages\MegaCore\hardware\avr\3.0.3\libraries\Wire\src\TwoWire/TwoWire.cpp:273

// must be called in:
// slave tx event callback
// or after beginTransmission(address)
size_t TwoWire::write(const uint8_t *data, size_t quantity)
{
     980:	cf 92       	push	r12
     982:	df 92       	push	r13
     984:	ef 92       	push	r14
     986:	ff 92       	push	r15
     988:	0f 93       	push	r16
     98a:	1f 93       	push	r17
     98c:	cf 93       	push	r28
     98e:	df 93       	push	r29
     990:	7c 01       	movw	r14, r24
     992:	cb 01       	movw	r24, r22
     994:	8a 01       	movw	r16, r20
C:\Users\Ryan\AppData\Local\Arduino15\packages\MegaCore\hardware\avr\3.0.3\libraries\Wire\src\TwoWire/TwoWire.cpp:274
  if(transmitting){
     996:	20 91 f7 08 	lds	r18, 0x08F7	; 0x8008f7 <TwoWire::transmitting>
     99a:	22 23       	and	r18, r18
     99c:	89 f0       	breq	.+34     	; 0x9c0 <TwoWire::write(unsigned char const*, unsigned int)+0x40>
     99e:	eb 01       	movw	r28, r22
     9a0:	6b 01       	movw	r12, r22
     9a2:	c4 0e       	add	r12, r20
     9a4:	d5 1e       	adc	r13, r21
C:\Users\Ryan\AppData\Local\Arduino15\packages\MegaCore\hardware\avr\3.0.3\libraries\Wire\src\TwoWire/TwoWire.cpp:276
  // in master transmitter mode
    for(size_t i = 0; i < quantity; ++i){
     9a6:	cc 15       	cp	r28, r12
     9a8:	dd 05       	cpc	r29, r13
     9aa:	69 f0       	breq	.+26     	; 0x9c6 <TwoWire::write(unsigned char const*, unsigned int)+0x46>
C:\Users\Ryan\AppData\Local\Arduino15\packages\MegaCore\hardware\avr\3.0.3\libraries\Wire\src\TwoWire/TwoWire.cpp:277
      write(data[i]);
     9ac:	69 91       	ld	r22, Y+
     9ae:	d7 01       	movw	r26, r14
     9b0:	ed 91       	ld	r30, X+
     9b2:	fc 91       	ld	r31, X
     9b4:	01 90       	ld	r0, Z+
     9b6:	f0 81       	ld	r31, Z
     9b8:	e0 2d       	mov	r30, r0
     9ba:	c7 01       	movw	r24, r14
     9bc:	09 95       	icall
     9be:	f3 cf       	rjmp	.-26     	; 0x9a6 <TwoWire::write(unsigned char const*, unsigned int)+0x26>
C:\Users\Ryan\AppData\Local\Arduino15\packages\MegaCore\hardware\avr\3.0.3\libraries\Wire\src\TwoWire/TwoWire.cpp:282
    }
  }else{
  // in slave send mode
    // reply to master
    twi_transmit(data, quantity);
     9c0:	64 2f       	mov	r22, r20
     9c2:	0e 94 82 04 	call	0x904	; 0x904 <twi_transmit>
C:\Users\Ryan\AppData\Local\Arduino15\packages\MegaCore\hardware\avr\3.0.3\libraries\Wire\src\TwoWire/TwoWire.cpp:285
  }
  return quantity;
}
     9c6:	c8 01       	movw	r24, r16
     9c8:	df 91       	pop	r29
     9ca:	cf 91       	pop	r28
     9cc:	1f 91       	pop	r17
     9ce:	0f 91       	pop	r16
     9d0:	ff 90       	pop	r15
     9d2:	ef 90       	pop	r14
     9d4:	df 90       	pop	r13
     9d6:	cf 90       	pop	r12
     9d8:	08 95       	ret

000009da <TwoWire::write(unsigned char)>:
C:\Users\Ryan\AppData\Local\Arduino15\packages\MegaCore\hardware\avr\3.0.3\libraries\Wire\src\TwoWire/TwoWire.cpp:248

// must be called in:
// slave tx event callback
// or after beginTransmission(address)
size_t TwoWire::write(uint8_t data)
{
     9da:	cf 93       	push	r28
     9dc:	df 93       	push	r29
     9de:	1f 92       	push	r1
     9e0:	cd b7       	in	r28, 0x3d	; 61
     9e2:	de b7       	in	r29, 0x3e	; 62
     9e4:	69 83       	std	Y+1, r22	; 0x01
C:\Users\Ryan\AppData\Local\Arduino15\packages\MegaCore\hardware\avr\3.0.3\libraries\Wire\src\TwoWire/TwoWire.cpp:249
  if(transmitting){
     9e6:	20 91 f7 08 	lds	r18, 0x08F7	; 0x8008f7 <TwoWire::transmitting>
     9ea:	22 23       	and	r18, r18
     9ec:	f9 f0       	breq	.+62     	; 0xa2c <TwoWire::write(unsigned char)+0x52>
C:\Users\Ryan\AppData\Local\Arduino15\packages\MegaCore\hardware\avr\3.0.3\libraries\Wire\src\TwoWire/TwoWire.cpp:252
  // in master transmitter mode
    // don't bother if buffer is full
    if(txBufferLength >= TWI_BUFFER_SIZE){
     9ee:	20 91 1a 09 	lds	r18, 0x091A	; 0x80091a <TwoWire::txBufferLength>
     9f2:	20 32       	cpi	r18, 0x20	; 32
     9f4:	58 f0       	brcs	.+22     	; 0xa0c <TwoWire::write(unsigned char)+0x32>
_ZN5Print13setWriteErrorEi():
C:\Users\Ryan\AppData\Local\Arduino15\packages\MegaCore\hardware\avr\3.0.3\cores\MCUdude_corefiles/Print.h:44
  private:
    int write_error;
    size_t printNumber(unsigned long, uint8_t);
    size_t printFloat(double, uint8_t);
  protected:
    void setWriteError(int err = 1) { write_error = err; }
     9f6:	21 e0       	ldi	r18, 0x01	; 1
     9f8:	30 e0       	ldi	r19, 0x00	; 0
     9fa:	fc 01       	movw	r30, r24
     9fc:	33 83       	std	Z+3, r19	; 0x03
     9fe:	22 83       	std	Z+2, r18	; 0x02
write():
C:\Users\Ryan\AppData\Local\Arduino15\packages\MegaCore\hardware\avr\3.0.3\libraries\Wire\src\TwoWire/TwoWire.cpp:254
      setWriteError();
      return 0;
     a00:	90 e0       	ldi	r25, 0x00	; 0
     a02:	80 e0       	ldi	r24, 0x00	; 0
C:\Users\Ryan\AppData\Local\Arduino15\packages\MegaCore\hardware\avr\3.0.3\libraries\Wire\src\TwoWire/TwoWire.cpp:267
  // in slave send mode
    // reply to master
    twi_transmit(&data, 1);
  }
  return 1;
}
     a04:	0f 90       	pop	r0
     a06:	df 91       	pop	r29
     a08:	cf 91       	pop	r28
     a0a:	08 95       	ret
C:\Users\Ryan\AppData\Local\Arduino15\packages\MegaCore\hardware\avr\3.0.3\libraries\Wire\src\TwoWire/TwoWire.cpp:257
    if(txBufferLength >= TWI_BUFFER_SIZE){
      setWriteError();
      return 0;
    }
    // put byte in tx buffer
    txBuffer[txBufferIndex] = data;
     a0c:	80 91 f8 08 	lds	r24, 0x08F8	; 0x8008f8 <TwoWire::txBufferIndex>
     a10:	e8 2f       	mov	r30, r24
     a12:	f0 e0       	ldi	r31, 0x00	; 0
     a14:	e7 50       	subi	r30, 0x07	; 7
     a16:	f7 4f       	sbci	r31, 0xF7	; 247
     a18:	99 81       	ldd	r25, Y+1	; 0x01
     a1a:	90 83       	st	Z, r25
C:\Users\Ryan\AppData\Local\Arduino15\packages\MegaCore\hardware\avr\3.0.3\libraries\Wire\src\TwoWire/TwoWire.cpp:258
    ++txBufferIndex;
     a1c:	8f 5f       	subi	r24, 0xFF	; 255
     a1e:	80 93 f8 08 	sts	0x08F8, r24	; 0x8008f8 <TwoWire::txBufferIndex>
C:\Users\Ryan\AppData\Local\Arduino15\packages\MegaCore\hardware\avr\3.0.3\libraries\Wire\src\TwoWire/TwoWire.cpp:260
    // update amount in buffer
    txBufferLength = txBufferIndex;
     a22:	80 93 1a 09 	sts	0x091A, r24	; 0x80091a <TwoWire::txBufferLength>
C:\Users\Ryan\AppData\Local\Arduino15\packages\MegaCore\hardware\avr\3.0.3\libraries\Wire\src\TwoWire/TwoWire.cpp:266
  }else{
  // in slave send mode
    // reply to master
    twi_transmit(&data, 1);
  }
  return 1;
     a26:	81 e0       	ldi	r24, 0x01	; 1
     a28:	90 e0       	ldi	r25, 0x00	; 0
     a2a:	ec cf       	rjmp	.-40     	; 0xa04 <TwoWire::write(unsigned char)+0x2a>
C:\Users\Ryan\AppData\Local\Arduino15\packages\MegaCore\hardware\avr\3.0.3\libraries\Wire\src\TwoWire/TwoWire.cpp:264
    // update amount in buffer
    txBufferLength = txBufferIndex;
  }else{
  // in slave send mode
    // reply to master
    twi_transmit(&data, 1);
     a2c:	61 e0       	ldi	r22, 0x01	; 1
     a2e:	ce 01       	movw	r24, r28
     a30:	01 96       	adiw	r24, 0x01	; 1
     a32:	0e 94 82 04 	call	0x904	; 0x904 <twi_transmit>
     a36:	f7 cf       	rjmp	.-18     	; 0xa26 <TwoWire::write(unsigned char)+0x4c>

00000a38 <LiquidCrystal::pulseEnable()>:
pulseEnable():
C:\Users\Ryan\AppData\Local\Arduino15\libraries\LiquidCrystal\src/LiquidCrystal.cpp:303
    write4bits(value>>4);
    write4bits(value);
  }
}

void LiquidCrystal::pulseEnable(void) {
     a38:	cf 93       	push	r28
     a3a:	df 93       	push	r29
     a3c:	ec 01       	movw	r28, r24
C:\Users\Ryan\AppData\Local\Arduino15\libraries\LiquidCrystal\src/LiquidCrystal.cpp:304
  digitalWrite(_enable_pin, LOW);
     a3e:	60 e0       	ldi	r22, 0x00	; 0
     a40:	8e 81       	ldd	r24, Y+6	; 0x06
     a42:	0e 94 0c 02 	call	0x418	; 0x418 <digitalWrite>
C:\Users\Ryan\AppData\Local\Arduino15\libraries\LiquidCrystal\src/LiquidCrystal.cpp:305
  delayMicroseconds(1);    
     a46:	81 e0       	ldi	r24, 0x01	; 1
     a48:	90 e0       	ldi	r25, 0x00	; 0
     a4a:	0e 94 f3 02 	call	0x5e6	; 0x5e6 <delayMicroseconds>
C:\Users\Ryan\AppData\Local\Arduino15\libraries\LiquidCrystal\src/LiquidCrystal.cpp:306
  digitalWrite(_enable_pin, HIGH);
     a4e:	61 e0       	ldi	r22, 0x01	; 1
     a50:	8e 81       	ldd	r24, Y+6	; 0x06
     a52:	0e 94 0c 02 	call	0x418	; 0x418 <digitalWrite>
C:\Users\Ryan\AppData\Local\Arduino15\libraries\LiquidCrystal\src/LiquidCrystal.cpp:307
  delayMicroseconds(1);    // enable pulse must be >450ns
     a56:	81 e0       	ldi	r24, 0x01	; 1
     a58:	90 e0       	ldi	r25, 0x00	; 0
     a5a:	0e 94 f3 02 	call	0x5e6	; 0x5e6 <delayMicroseconds>
C:\Users\Ryan\AppData\Local\Arduino15\libraries\LiquidCrystal\src/LiquidCrystal.cpp:308
  digitalWrite(_enable_pin, LOW);
     a5e:	60 e0       	ldi	r22, 0x00	; 0
     a60:	8e 81       	ldd	r24, Y+6	; 0x06
     a62:	0e 94 0c 02 	call	0x418	; 0x418 <digitalWrite>
C:\Users\Ryan\AppData\Local\Arduino15\libraries\LiquidCrystal\src/LiquidCrystal.cpp:309
  delayMicroseconds(100);   // commands need > 37us to settle
     a66:	84 e6       	ldi	r24, 0x64	; 100
     a68:	90 e0       	ldi	r25, 0x00	; 0
C:\Users\Ryan\AppData\Local\Arduino15\libraries\LiquidCrystal\src/LiquidCrystal.cpp:310
}
     a6a:	df 91       	pop	r29
     a6c:	cf 91       	pop	r28
C:\Users\Ryan\AppData\Local\Arduino15\libraries\LiquidCrystal\src/LiquidCrystal.cpp:309
  digitalWrite(_enable_pin, LOW);
  delayMicroseconds(1);    
  digitalWrite(_enable_pin, HIGH);
  delayMicroseconds(1);    // enable pulse must be >450ns
  digitalWrite(_enable_pin, LOW);
  delayMicroseconds(100);   // commands need > 37us to settle
     a6e:	0c 94 f3 02 	jmp	0x5e6	; 0x5e6 <delayMicroseconds>

00000a72 <LiquidCrystal::write4bits(unsigned char)>:
write4bits():
C:\Users\Ryan\AppData\Local\Arduino15\libraries\LiquidCrystal\src/LiquidCrystal.cpp:312
}

void LiquidCrystal::write4bits(uint8_t value) {
     a72:	cf 92       	push	r12
     a74:	df 92       	push	r13
     a76:	ef 92       	push	r14
     a78:	ff 92       	push	r15
     a7a:	0f 93       	push	r16
     a7c:	1f 93       	push	r17
     a7e:	cf 93       	push	r28
     a80:	df 93       	push	r29
     a82:	6c 01       	movw	r12, r24
     a84:	7c 01       	movw	r14, r24
     a86:	87 e0       	ldi	r24, 0x07	; 7
     a88:	e8 0e       	add	r14, r24
     a8a:	f1 1c       	adc	r15, r1
C:\Users\Ryan\AppData\Local\Arduino15\libraries\LiquidCrystal\src/LiquidCrystal.cpp:313
  for (int i = 0; i < 4; i++) {
     a8c:	d0 e0       	ldi	r29, 0x00	; 0
     a8e:	c0 e0       	ldi	r28, 0x00	; 0
C:\Users\Ryan\AppData\Local\Arduino15\libraries\LiquidCrystal\src/LiquidCrystal.cpp:314
    digitalWrite(_data_pins[i], (value >> i) & 0x01);
     a90:	06 2f       	mov	r16, r22
     a92:	10 e0       	ldi	r17, 0x00	; 0
     a94:	b8 01       	movw	r22, r16
     a96:	0c 2e       	mov	r0, r28
     a98:	02 c0       	rjmp	.+4      	; 0xa9e <LiquidCrystal::write4bits(unsigned char)+0x2c>
     a9a:	75 95       	asr	r23
     a9c:	67 95       	ror	r22
     a9e:	0a 94       	dec	r0
     aa0:	e2 f7       	brpl	.-8      	; 0xa9a <LiquidCrystal::write4bits(unsigned char)+0x28>
     aa2:	61 70       	andi	r22, 0x01	; 1
     aa4:	f7 01       	movw	r30, r14
     aa6:	81 91       	ld	r24, Z+
     aa8:	7f 01       	movw	r14, r30
     aaa:	0e 94 0c 02 	call	0x418	; 0x418 <digitalWrite>
C:\Users\Ryan\AppData\Local\Arduino15\libraries\LiquidCrystal\src/LiquidCrystal.cpp:313
  digitalWrite(_enable_pin, LOW);
  delayMicroseconds(100);   // commands need > 37us to settle
}

void LiquidCrystal::write4bits(uint8_t value) {
  for (int i = 0; i < 4; i++) {
     aae:	21 96       	adiw	r28, 0x01	; 1
     ab0:	c4 30       	cpi	r28, 0x04	; 4
     ab2:	d1 05       	cpc	r29, r1
     ab4:	79 f7       	brne	.-34     	; 0xa94 <LiquidCrystal::write4bits(unsigned char)+0x22>
C:\Users\Ryan\AppData\Local\Arduino15\libraries\LiquidCrystal\src/LiquidCrystal.cpp:317
    digitalWrite(_data_pins[i], (value >> i) & 0x01);
  }

  pulseEnable();
     ab6:	c6 01       	movw	r24, r12
C:\Users\Ryan\AppData\Local\Arduino15\libraries\LiquidCrystal\src/LiquidCrystal.cpp:318
}
     ab8:	df 91       	pop	r29
     aba:	cf 91       	pop	r28
     abc:	1f 91       	pop	r17
     abe:	0f 91       	pop	r16
     ac0:	ff 90       	pop	r15
     ac2:	ef 90       	pop	r14
     ac4:	df 90       	pop	r13
     ac6:	cf 90       	pop	r12
C:\Users\Ryan\AppData\Local\Arduino15\libraries\LiquidCrystal\src/LiquidCrystal.cpp:317
void LiquidCrystal::write4bits(uint8_t value) {
  for (int i = 0; i < 4; i++) {
    digitalWrite(_data_pins[i], (value >> i) & 0x01);
  }

  pulseEnable();
     ac8:	0c 94 1c 05 	jmp	0xa38	; 0xa38 <LiquidCrystal::pulseEnable()>

00000acc <LiquidCrystal::send(unsigned char, unsigned char)>:
send():
C:\Users\Ryan\AppData\Local\Arduino15\libraries\LiquidCrystal\src/LiquidCrystal.cpp:287
}

/************ low level data pushing commands **********/

// write either command or data, with automatic 4/8-bit selection
void LiquidCrystal::send(uint8_t value, uint8_t mode) {
     acc:	cf 92       	push	r12
     ace:	df 92       	push	r13
     ad0:	ef 92       	push	r14
     ad2:	ff 92       	push	r15
     ad4:	0f 93       	push	r16
     ad6:	1f 93       	push	r17
     ad8:	cf 93       	push	r28
     ada:	df 93       	push	r29
     adc:	ec 01       	movw	r28, r24
     ade:	f6 2e       	mov	r15, r22
C:\Users\Ryan\AppData\Local\Arduino15\libraries\LiquidCrystal\src/LiquidCrystal.cpp:288
  digitalWrite(_rs_pin, mode);
     ae0:	64 2f       	mov	r22, r20
     ae2:	8c 81       	ldd	r24, Y+4	; 0x04
     ae4:	0e 94 0c 02 	call	0x418	; 0x418 <digitalWrite>
C:\Users\Ryan\AppData\Local\Arduino15\libraries\LiquidCrystal\src/LiquidCrystal.cpp:291

  // if there is a RW pin indicated, set it low to Write
  if (_rw_pin != 255) { 
     ae8:	8d 81       	ldd	r24, Y+5	; 0x05
     aea:	8f 3f       	cpi	r24, 0xFF	; 255
     aec:	19 f0       	breq	.+6      	; 0xaf4 <LiquidCrystal::send(unsigned char, unsigned char)+0x28>
C:\Users\Ryan\AppData\Local\Arduino15\libraries\LiquidCrystal\src/LiquidCrystal.cpp:292
    digitalWrite(_rw_pin, LOW);
     aee:	60 e0       	ldi	r22, 0x00	; 0
     af0:	0e 94 0c 02 	call	0x418	; 0x418 <digitalWrite>
     af4:	0f 2d       	mov	r16, r15
     af6:	10 e0       	ldi	r17, 0x00	; 0
C:\Users\Ryan\AppData\Local\Arduino15\libraries\LiquidCrystal\src/LiquidCrystal.cpp:295
  }
  
  if (_displayfunction & LCD_8BITMODE) {
     af8:	8f 85       	ldd	r24, Y+15	; 0x0f
     afa:	84 ff       	sbrs	r24, 4
     afc:	25 c0       	rjmp	.+74     	; 0xb48 <LiquidCrystal::send(unsigned char, unsigned char)+0x7c>
     afe:	6e 01       	movw	r12, r28
     b00:	87 e0       	ldi	r24, 0x07	; 7
     b02:	c8 0e       	add	r12, r24
     b04:	d1 1c       	adc	r13, r1
C:\Users\Ryan\AppData\Local\Arduino15\libraries\LiquidCrystal\src/LiquidCrystal.cpp:321

  pulseEnable();
}

void LiquidCrystal::write8bits(uint8_t value) {
  for (int i = 0; i < 8; i++) {
     b06:	f1 2c       	mov	r15, r1
     b08:	e1 2c       	mov	r14, r1
write8bits():
C:\Users\Ryan\AppData\Local\Arduino15\libraries\LiquidCrystal\src/LiquidCrystal.cpp:322
    digitalWrite(_data_pins[i], (value >> i) & 0x01);
     b0a:	b8 01       	movw	r22, r16
     b0c:	0e 2c       	mov	r0, r14
     b0e:	02 c0       	rjmp	.+4      	; 0xb14 <LiquidCrystal::send(unsigned char, unsigned char)+0x48>
     b10:	75 95       	asr	r23
     b12:	67 95       	ror	r22
     b14:	0a 94       	dec	r0
     b16:	e2 f7       	brpl	.-8      	; 0xb10 <LiquidCrystal::send(unsigned char, unsigned char)+0x44>
     b18:	61 70       	andi	r22, 0x01	; 1
     b1a:	f6 01       	movw	r30, r12
     b1c:	81 91       	ld	r24, Z+
     b1e:	6f 01       	movw	r12, r30
     b20:	0e 94 0c 02 	call	0x418	; 0x418 <digitalWrite>
C:\Users\Ryan\AppData\Local\Arduino15\libraries\LiquidCrystal\src/LiquidCrystal.cpp:321

  pulseEnable();
}

void LiquidCrystal::write8bits(uint8_t value) {
  for (int i = 0; i < 8; i++) {
     b24:	ff ef       	ldi	r31, 0xFF	; 255
     b26:	ef 1a       	sub	r14, r31
     b28:	ff 0a       	sbc	r15, r31
     b2a:	88 e0       	ldi	r24, 0x08	; 8
     b2c:	e8 16       	cp	r14, r24
     b2e:	f1 04       	cpc	r15, r1
     b30:	61 f7       	brne	.-40     	; 0xb0a <LiquidCrystal::send(unsigned char, unsigned char)+0x3e>
C:\Users\Ryan\AppData\Local\Arduino15\libraries\LiquidCrystal\src/LiquidCrystal.cpp:325
    digitalWrite(_data_pins[i], (value >> i) & 0x01);
  }
  
  pulseEnable();
     b32:	ce 01       	movw	r24, r28
send():
C:\Users\Ryan\AppData\Local\Arduino15\libraries\LiquidCrystal\src/LiquidCrystal.cpp:301
    write8bits(value); 
  } else {
    write4bits(value>>4);
    write4bits(value);
  }
}
     b34:	df 91       	pop	r29
     b36:	cf 91       	pop	r28
     b38:	1f 91       	pop	r17
     b3a:	0f 91       	pop	r16
     b3c:	ff 90       	pop	r15
     b3e:	ef 90       	pop	r14
     b40:	df 90       	pop	r13
     b42:	cf 90       	pop	r12
write8bits():
C:\Users\Ryan\AppData\Local\Arduino15\libraries\LiquidCrystal\src/LiquidCrystal.cpp:325
void LiquidCrystal::write8bits(uint8_t value) {
  for (int i = 0; i < 8; i++) {
    digitalWrite(_data_pins[i], (value >> i) & 0x01);
  }
  
  pulseEnable();
     b44:	0c 94 1c 05 	jmp	0xa38	; 0xa38 <LiquidCrystal::pulseEnable()>
send():
C:\Users\Ryan\AppData\Local\Arduino15\libraries\LiquidCrystal\src/LiquidCrystal.cpp:298
  }
  
  if (_displayfunction & LCD_8BITMODE) {
    write8bits(value); 
  } else {
    write4bits(value>>4);
     b48:	b8 01       	movw	r22, r16
     b4a:	84 e0       	ldi	r24, 0x04	; 4
     b4c:	75 95       	asr	r23
     b4e:	67 95       	ror	r22
     b50:	8a 95       	dec	r24
     b52:	e1 f7       	brne	.-8      	; 0xb4c <LiquidCrystal::send(unsigned char, unsigned char)+0x80>
     b54:	ce 01       	movw	r24, r28
     b56:	0e 94 39 05 	call	0xa72	; 0xa72 <LiquidCrystal::write4bits(unsigned char)>
C:\Users\Ryan\AppData\Local\Arduino15\libraries\LiquidCrystal\src/LiquidCrystal.cpp:299
    write4bits(value);
     b5a:	6f 2d       	mov	r22, r15
     b5c:	ce 01       	movw	r24, r28
C:\Users\Ryan\AppData\Local\Arduino15\libraries\LiquidCrystal\src/LiquidCrystal.cpp:301
  }
}
     b5e:	df 91       	pop	r29
     b60:	cf 91       	pop	r28
     b62:	1f 91       	pop	r17
     b64:	0f 91       	pop	r16
     b66:	ff 90       	pop	r15
     b68:	ef 90       	pop	r14
     b6a:	df 90       	pop	r13
     b6c:	cf 90       	pop	r12
C:\Users\Ryan\AppData\Local\Arduino15\libraries\LiquidCrystal\src/LiquidCrystal.cpp:299
  
  if (_displayfunction & LCD_8BITMODE) {
    write8bits(value); 
  } else {
    write4bits(value>>4);
    write4bits(value);
     b6e:	0c 94 39 05 	jmp	0xa72	; 0xa72 <LiquidCrystal::write4bits(unsigned char)>

00000b72 <LiquidCrystal::command(unsigned char) [clone .constprop.39]>:
command():
C:\Users\Ryan\AppData\Local\Arduino15\libraries\LiquidCrystal\src/LiquidCrystal.cpp:276
}

/*********** mid level commands, for sending data/cmds */

inline void LiquidCrystal::command(uint8_t value) {
  send(value, LOW);
     b72:	40 e0       	ldi	r20, 0x00	; 0
     b74:	68 2f       	mov	r22, r24
     b76:	8f eb       	ldi	r24, 0xBF	; 191
     b78:	9a e0       	ldi	r25, 0x0A	; 10
     b7a:	0c 94 66 05 	jmp	0xacc	; 0xacc <LiquidCrystal::send(unsigned char, unsigned char)>

00000b7e <LiquidCrystal::clear() [clone .constprop.38]>:
clear():
C:\Users\Ryan\AppData\Local\Arduino15\libraries\LiquidCrystal\src/LiquidCrystal.cpp:178
}

/********** high level commands, for the user! */
void LiquidCrystal::clear()
{
  command(LCD_CLEARDISPLAY);  // clear display, set cursor position to zero
     b7e:	81 e0       	ldi	r24, 0x01	; 1
     b80:	0e 94 b9 05 	call	0xb72	; 0xb72 <LiquidCrystal::command(unsigned char) [clone .constprop.39]>
C:\Users\Ryan\AppData\Local\Arduino15\libraries\LiquidCrystal\src/LiquidCrystal.cpp:179
  delayMicroseconds(2000);  // this command takes a long time!
     b84:	80 ed       	ldi	r24, 0xD0	; 208
     b86:	97 e0       	ldi	r25, 0x07	; 7
     b88:	0c 94 f3 02 	jmp	0x5e6	; 0x5e6 <delayMicroseconds>

00000b8c <LiquidCrystal::begin(unsigned char, unsigned char, unsigned char) [clone .constprop.36]>:
begin():
C:\Users\Ryan\AppData\Local\Arduino15\libraries\LiquidCrystal\src/LiquidCrystal.cpp:78
    _displayfunction = LCD_8BITMODE | LCD_1LINE | LCD_5x8DOTS;
  
  begin(16, 1);  
}

void LiquidCrystal::begin(uint8_t cols, uint8_t lines, uint8_t dotsize) {
     b8c:	cf 93       	push	r28
     b8e:	df 93       	push	r29
C:\Users\Ryan\AppData\Local\Arduino15\libraries\LiquidCrystal\src/LiquidCrystal.cpp:79
  if (lines > 1) {
     b90:	61 30       	cpi	r22, 0x01	; 1
     b92:	29 f0       	breq	.+10     	; 0xb9e <LiquidCrystal::begin(unsigned char, unsigned char, unsigned char) [clone .constprop.36]+0x12>
C:\Users\Ryan\AppData\Local\Arduino15\libraries\LiquidCrystal\src/LiquidCrystal.cpp:80
    _displayfunction |= LCD_2LINE;
     b94:	90 91 ce 0a 	lds	r25, 0x0ACE	; 0x800ace <lcd+0xf>
     b98:	98 60       	ori	r25, 0x08	; 8
     b9a:	90 93 ce 0a 	sts	0x0ACE, r25	; 0x800ace <lcd+0xf>
C:\Users\Ryan\AppData\Local\Arduino15\libraries\LiquidCrystal\src/LiquidCrystal.cpp:82
  }
  _numlines = lines;
     b9e:	60 93 d2 0a 	sts	0x0AD2, r22	; 0x800ad2 <lcd+0x13>
setRowOffsets():
C:\Users\Ryan\AppData\Local\Arduino15\libraries\LiquidCrystal\src/LiquidCrystal.cpp:169

}

void LiquidCrystal::setRowOffsets(int row0, int row1, int row2, int row3)
{
  _row_offsets[0] = row0;
     ba2:	10 92 d3 0a 	sts	0x0AD3, r1	; 0x800ad3 <lcd+0x14>
C:\Users\Ryan\AppData\Local\Arduino15\libraries\LiquidCrystal\src/LiquidCrystal.cpp:170
  _row_offsets[1] = row1;
     ba6:	90 e4       	ldi	r25, 0x40	; 64
     ba8:	90 93 d4 0a 	sts	0x0AD4, r25	; 0x800ad4 <lcd+0x15>
C:\Users\Ryan\AppData\Local\Arduino15\libraries\LiquidCrystal\src/LiquidCrystal.cpp:171
  _row_offsets[2] = row2;
     bac:	80 93 d5 0a 	sts	0x0AD5, r24	; 0x800ad5 <lcd+0x16>
C:\Users\Ryan\AppData\Local\Arduino15\libraries\LiquidCrystal\src/LiquidCrystal.cpp:172
  _row_offsets[3] = row3;
     bb0:	80 5c       	subi	r24, 0xC0	; 192
     bb2:	80 93 d6 0a 	sts	0x0AD6, r24	; 0x800ad6 <lcd+0x17>
begin():
C:\Users\Ryan\AppData\Local\Arduino15\libraries\LiquidCrystal\src/LiquidCrystal.cpp:91
  // for some 1 line displays you can select a 10 pixel high font
  if ((dotsize != LCD_5x8DOTS) && (lines == 1)) {
    _displayfunction |= LCD_5x10DOTS;
  }

  pinMode(_rs_pin, OUTPUT);
     bb6:	61 e0       	ldi	r22, 0x01	; 1
     bb8:	80 91 c3 0a 	lds	r24, 0x0AC3	; 0x800ac3 <lcd+0x4>
     bbc:	0e 94 3a 02 	call	0x474	; 0x474 <pinMode>
C:\Users\Ryan\AppData\Local\Arduino15\libraries\LiquidCrystal\src/LiquidCrystal.cpp:93
  // we can save 1 pin by not using RW. Indicate by passing 255 instead of pin#
  if (_rw_pin != 255) { 
     bc0:	80 91 c4 0a 	lds	r24, 0x0AC4	; 0x800ac4 <lcd+0x5>
     bc4:	8f 3f       	cpi	r24, 0xFF	; 255
     bc6:	19 f0       	breq	.+6      	; 0xbce <LiquidCrystal::begin(unsigned char, unsigned char, unsigned char) [clone .constprop.36]+0x42>
C:\Users\Ryan\AppData\Local\Arduino15\libraries\LiquidCrystal\src/LiquidCrystal.cpp:94
    pinMode(_rw_pin, OUTPUT);
     bc8:	61 e0       	ldi	r22, 0x01	; 1
     bca:	0e 94 3a 02 	call	0x474	; 0x474 <pinMode>
C:\Users\Ryan\AppData\Local\Arduino15\libraries\LiquidCrystal\src/LiquidCrystal.cpp:96
  }
  pinMode(_enable_pin, OUTPUT);
     bce:	61 e0       	ldi	r22, 0x01	; 1
     bd0:	80 91 c5 0a 	lds	r24, 0x0AC5	; 0x800ac5 <lcd+0x6>
     bd4:	0e 94 3a 02 	call	0x474	; 0x474 <pinMode>
     bd8:	cf eb       	ldi	r28, 0xBF	; 191
     bda:	da e0       	ldi	r29, 0x0A	; 10
     bdc:	9e 01       	movw	r18, r28
     bde:	2f 5b       	subi	r18, 0xBF	; 191
     be0:	3a 40       	sbci	r19, 0x0A	; 10
C:\Users\Ryan\AppData\Local\Arduino15\libraries\LiquidCrystal\src/LiquidCrystal.cpp:99
  
  // Do these once, instead of every time a character is drawn for speed reasons.
  for (int i=0; i<((_displayfunction & LCD_8BITMODE) ? 8 : 4); ++i)
     be2:	80 91 ce 0a 	lds	r24, 0x0ACE	; 0x800ace <lcd+0xf>
     be6:	84 fd       	sbrc	r24, 4
     be8:	0b c0       	rjmp	.+22     	; 0xc00 <LiquidCrystal::begin(unsigned char, unsigned char, unsigned char) [clone .constprop.36]+0x74>
     bea:	84 e0       	ldi	r24, 0x04	; 4
     bec:	90 e0       	ldi	r25, 0x00	; 0
     bee:	21 96       	adiw	r28, 0x01	; 1
     bf0:	28 17       	cp	r18, r24
     bf2:	39 07       	cpc	r19, r25
     bf4:	44 f4       	brge	.+16     	; 0xc06 <LiquidCrystal::begin(unsigned char, unsigned char, unsigned char) [clone .constprop.36]+0x7a>
C:\Users\Ryan\AppData\Local\Arduino15\libraries\LiquidCrystal\src/LiquidCrystal.cpp:101
  {
    pinMode(_data_pins[i], OUTPUT);
     bf6:	61 e0       	ldi	r22, 0x01	; 1
     bf8:	8e 81       	ldd	r24, Y+6	; 0x06
     bfa:	0e 94 3a 02 	call	0x474	; 0x474 <pinMode>
     bfe:	ee cf       	rjmp	.-36     	; 0xbdc <LiquidCrystal::begin(unsigned char, unsigned char, unsigned char) [clone .constprop.36]+0x50>
C:\Users\Ryan\AppData\Local\Arduino15\libraries\LiquidCrystal\src/LiquidCrystal.cpp:99
    pinMode(_rw_pin, OUTPUT);
  }
  pinMode(_enable_pin, OUTPUT);
  
  // Do these once, instead of every time a character is drawn for speed reasons.
  for (int i=0; i<((_displayfunction & LCD_8BITMODE) ? 8 : 4); ++i)
     c00:	88 e0       	ldi	r24, 0x08	; 8
     c02:	90 e0       	ldi	r25, 0x00	; 0
     c04:	f4 cf       	rjmp	.-24     	; 0xbee <LiquidCrystal::begin(unsigned char, unsigned char, unsigned char) [clone .constprop.36]+0x62>
C:\Users\Ryan\AppData\Local\Arduino15\libraries\LiquidCrystal\src/LiquidCrystal.cpp:107
   } 

  // SEE PAGE 45/46 FOR INITIALIZATION SPECIFICATION!
  // according to datasheet, we need at least 40ms after power rises above 2.7V
  // before sending commands. Arduino can turn on way before 4.5V so we'll wait 50
  delayMicroseconds(50000); 
     c06:	80 e5       	ldi	r24, 0x50	; 80
     c08:	93 ec       	ldi	r25, 0xC3	; 195
     c0a:	0e 94 f3 02 	call	0x5e6	; 0x5e6 <delayMicroseconds>
C:\Users\Ryan\AppData\Local\Arduino15\libraries\LiquidCrystal\src/LiquidCrystal.cpp:109
  // Now we pull both RS and R/W low to begin commands
  digitalWrite(_rs_pin, LOW);
     c0e:	60 e0       	ldi	r22, 0x00	; 0
     c10:	80 91 c3 0a 	lds	r24, 0x0AC3	; 0x800ac3 <lcd+0x4>
     c14:	0e 94 0c 02 	call	0x418	; 0x418 <digitalWrite>
C:\Users\Ryan\AppData\Local\Arduino15\libraries\LiquidCrystal\src/LiquidCrystal.cpp:110
  digitalWrite(_enable_pin, LOW);
     c18:	60 e0       	ldi	r22, 0x00	; 0
     c1a:	80 91 c5 0a 	lds	r24, 0x0AC5	; 0x800ac5 <lcd+0x6>
     c1e:	0e 94 0c 02 	call	0x418	; 0x418 <digitalWrite>
C:\Users\Ryan\AppData\Local\Arduino15\libraries\LiquidCrystal\src/LiquidCrystal.cpp:111
  if (_rw_pin != 255) { 
     c22:	80 91 c4 0a 	lds	r24, 0x0AC4	; 0x800ac4 <lcd+0x5>
     c26:	8f 3f       	cpi	r24, 0xFF	; 255
     c28:	19 f0       	breq	.+6      	; 0xc30 <LiquidCrystal::begin(unsigned char, unsigned char, unsigned char) [clone .constprop.36]+0xa4>
C:\Users\Ryan\AppData\Local\Arduino15\libraries\LiquidCrystal\src/LiquidCrystal.cpp:112
    digitalWrite(_rw_pin, LOW);
     c2a:	60 e0       	ldi	r22, 0x00	; 0
     c2c:	0e 94 0c 02 	call	0x418	; 0x418 <digitalWrite>
C:\Users\Ryan\AppData\Local\Arduino15\libraries\LiquidCrystal\src/LiquidCrystal.cpp:116
  }
  
  //put the LCD into 4 bit or 8 bit mode
  if (! (_displayfunction & LCD_8BITMODE)) {
     c30:	80 91 ce 0a 	lds	r24, 0x0ACE	; 0x800ace <lcd+0xf>
     c34:	84 fd       	sbrc	r24, 4
     c36:	35 c0       	rjmp	.+106    	; 0xca2 <LiquidCrystal::begin(unsigned char, unsigned char, unsigned char) [clone .constprop.36]+0x116>
C:\Users\Ryan\AppData\Local\Arduino15\libraries\LiquidCrystal\src/LiquidCrystal.cpp:121
    // this is according to the hitachi HD44780 datasheet
    // figure 24, pg 46

    // we start in 8bit mode, try to set 4 bit mode
    write4bits(0x03);
     c38:	63 e0       	ldi	r22, 0x03	; 3
     c3a:	8f eb       	ldi	r24, 0xBF	; 191
     c3c:	9a e0       	ldi	r25, 0x0A	; 10
     c3e:	0e 94 39 05 	call	0xa72	; 0xa72 <LiquidCrystal::write4bits(unsigned char)>
C:\Users\Ryan\AppData\Local\Arduino15\libraries\LiquidCrystal\src/LiquidCrystal.cpp:122
    delayMicroseconds(4500); // wait min 4.1ms
     c42:	84 e9       	ldi	r24, 0x94	; 148
     c44:	91 e1       	ldi	r25, 0x11	; 17
     c46:	0e 94 f3 02 	call	0x5e6	; 0x5e6 <delayMicroseconds>
C:\Users\Ryan\AppData\Local\Arduino15\libraries\LiquidCrystal\src/LiquidCrystal.cpp:125

    // second try
    write4bits(0x03);
     c4a:	63 e0       	ldi	r22, 0x03	; 3
     c4c:	8f eb       	ldi	r24, 0xBF	; 191
     c4e:	9a e0       	ldi	r25, 0x0A	; 10
     c50:	0e 94 39 05 	call	0xa72	; 0xa72 <LiquidCrystal::write4bits(unsigned char)>
C:\Users\Ryan\AppData\Local\Arduino15\libraries\LiquidCrystal\src/LiquidCrystal.cpp:126
    delayMicroseconds(4500); // wait min 4.1ms
     c54:	84 e9       	ldi	r24, 0x94	; 148
     c56:	91 e1       	ldi	r25, 0x11	; 17
     c58:	0e 94 f3 02 	call	0x5e6	; 0x5e6 <delayMicroseconds>
C:\Users\Ryan\AppData\Local\Arduino15\libraries\LiquidCrystal\src/LiquidCrystal.cpp:129
    
    // third go!
    write4bits(0x03); 
     c5c:	63 e0       	ldi	r22, 0x03	; 3
     c5e:	8f eb       	ldi	r24, 0xBF	; 191
     c60:	9a e0       	ldi	r25, 0x0A	; 10
     c62:	0e 94 39 05 	call	0xa72	; 0xa72 <LiquidCrystal::write4bits(unsigned char)>
C:\Users\Ryan\AppData\Local\Arduino15\libraries\LiquidCrystal\src/LiquidCrystal.cpp:130
    delayMicroseconds(150);
     c66:	86 e9       	ldi	r24, 0x96	; 150
     c68:	90 e0       	ldi	r25, 0x00	; 0
     c6a:	0e 94 f3 02 	call	0x5e6	; 0x5e6 <delayMicroseconds>
C:\Users\Ryan\AppData\Local\Arduino15\libraries\LiquidCrystal\src/LiquidCrystal.cpp:133

    // finally, set to 4-bit interface
    write4bits(0x02); 
     c6e:	62 e0       	ldi	r22, 0x02	; 2
     c70:	8f eb       	ldi	r24, 0xBF	; 191
     c72:	9a e0       	ldi	r25, 0x0A	; 10
     c74:	0e 94 39 05 	call	0xa72	; 0xa72 <LiquidCrystal::write4bits(unsigned char)>
C:\Users\Ryan\AppData\Local\Arduino15\libraries\LiquidCrystal\src/LiquidCrystal.cpp:151
    // third go
    command(LCD_FUNCTIONSET | _displayfunction);
  }

  // finally, set # lines, font size, etc.
  command(LCD_FUNCTIONSET | _displayfunction);  
     c78:	80 91 ce 0a 	lds	r24, 0x0ACE	; 0x800ace <lcd+0xf>
     c7c:	80 62       	ori	r24, 0x20	; 32
     c7e:	0e 94 b9 05 	call	0xb72	; 0xb72 <LiquidCrystal::command(unsigned char) [clone .constprop.39]>
C:\Users\Ryan\AppData\Local\Arduino15\libraries\LiquidCrystal\src/LiquidCrystal.cpp:154

  // turn the display on with no cursor or blinking default
  _displaycontrol = LCD_DISPLAYON | LCD_CURSOROFF | LCD_BLINKOFF;  
     c82:	84 e0       	ldi	r24, 0x04	; 4
     c84:	80 93 cf 0a 	sts	0x0ACF, r24	; 0x800acf <lcd+0x10>
display():
C:\Users\Ryan\AppData\Local\Arduino15\libraries\LiquidCrystal\src/LiquidCrystal.cpp:208
  _displaycontrol &= ~LCD_DISPLAYON;
  command(LCD_DISPLAYCONTROL | _displaycontrol);
}
void LiquidCrystal::display() {
  _displaycontrol |= LCD_DISPLAYON;
  command(LCD_DISPLAYCONTROL | _displaycontrol);
     c88:	8c e0       	ldi	r24, 0x0C	; 12
     c8a:	0e 94 b9 05 	call	0xb72	; 0xb72 <LiquidCrystal::command(unsigned char) [clone .constprop.39]>
begin():
C:\Users\Ryan\AppData\Local\Arduino15\libraries\LiquidCrystal\src/LiquidCrystal.cpp:158
  // turn the display on with no cursor or blinking default
  _displaycontrol = LCD_DISPLAYON | LCD_CURSOROFF | LCD_BLINKOFF;  
  display();

  // clear it off
  clear();
     c8e:	0e 94 bf 05 	call	0xb7e	; 0xb7e <LiquidCrystal::clear() [clone .constprop.38]>
C:\Users\Ryan\AppData\Local\Arduino15\libraries\LiquidCrystal\src/LiquidCrystal.cpp:161

  // Initialize to default text direction (for romance languages)
  _displaymode = LCD_ENTRYLEFT | LCD_ENTRYSHIFTDECREMENT;
     c92:	82 e0       	ldi	r24, 0x02	; 2
     c94:	80 93 d0 0a 	sts	0x0AD0, r24	; 0x800ad0 <lcd+0x11>
C:\Users\Ryan\AppData\Local\Arduino15\libraries\LiquidCrystal\src/LiquidCrystal.cpp:163
  // set the entry mode
  command(LCD_ENTRYMODESET | _displaymode);
     c98:	86 e0       	ldi	r24, 0x06	; 6
C:\Users\Ryan\AppData\Local\Arduino15\libraries\LiquidCrystal\src/LiquidCrystal.cpp:165

}
     c9a:	df 91       	pop	r29
     c9c:	cf 91       	pop	r28
C:\Users\Ryan\AppData\Local\Arduino15\libraries\LiquidCrystal\src/LiquidCrystal.cpp:163
  clear();

  // Initialize to default text direction (for romance languages)
  _displaymode = LCD_ENTRYLEFT | LCD_ENTRYSHIFTDECREMENT;
  // set the entry mode
  command(LCD_ENTRYMODESET | _displaymode);
     c9e:	0c 94 b9 05 	jmp	0xb72	; 0xb72 <LiquidCrystal::command(unsigned char) [clone .constprop.39]>
C:\Users\Ryan\AppData\Local\Arduino15\libraries\LiquidCrystal\src/LiquidCrystal.cpp:139
  } else {
    // this is according to the hitachi HD44780 datasheet
    // page 45 figure 23

    // Send function set command sequence
    command(LCD_FUNCTIONSET | _displayfunction);
     ca2:	80 62       	ori	r24, 0x20	; 32
     ca4:	0e 94 b9 05 	call	0xb72	; 0xb72 <LiquidCrystal::command(unsigned char) [clone .constprop.39]>
C:\Users\Ryan\AppData\Local\Arduino15\libraries\LiquidCrystal\src/LiquidCrystal.cpp:140
    delayMicroseconds(4500);  // wait more than 4.1ms
     ca8:	84 e9       	ldi	r24, 0x94	; 148
     caa:	91 e1       	ldi	r25, 0x11	; 17
     cac:	0e 94 f3 02 	call	0x5e6	; 0x5e6 <delayMicroseconds>
C:\Users\Ryan\AppData\Local\Arduino15\libraries\LiquidCrystal\src/LiquidCrystal.cpp:143

    // second try
    command(LCD_FUNCTIONSET | _displayfunction);
     cb0:	80 91 ce 0a 	lds	r24, 0x0ACE	; 0x800ace <lcd+0xf>
     cb4:	80 62       	ori	r24, 0x20	; 32
     cb6:	0e 94 b9 05 	call	0xb72	; 0xb72 <LiquidCrystal::command(unsigned char) [clone .constprop.39]>
C:\Users\Ryan\AppData\Local\Arduino15\libraries\LiquidCrystal\src/LiquidCrystal.cpp:144
    delayMicroseconds(150);
     cba:	86 e9       	ldi	r24, 0x96	; 150
     cbc:	90 e0       	ldi	r25, 0x00	; 0
     cbe:	0e 94 f3 02 	call	0x5e6	; 0x5e6 <delayMicroseconds>
C:\Users\Ryan\AppData\Local\Arduino15\libraries\LiquidCrystal\src/LiquidCrystal.cpp:147

    // third go
    command(LCD_FUNCTIONSET | _displayfunction);
     cc2:	80 91 ce 0a 	lds	r24, 0x0ACE	; 0x800ace <lcd+0xf>
     cc6:	80 62       	ori	r24, 0x20	; 32
     cc8:	0e 94 b9 05 	call	0xb72	; 0xb72 <LiquidCrystal::command(unsigned char) [clone .constprop.39]>
     ccc:	d5 cf       	rjmp	.-86     	; 0xc78 <LiquidCrystal::begin(unsigned char, unsigned char, unsigned char) [clone .constprop.36]+0xec>

00000cce <LiquidCrystal::setCursor(unsigned char, unsigned char) [clone .constprop.27]>:
setCursor():
C:\Users\Ryan\AppData\Local\Arduino15\libraries\LiquidCrystal\src/LiquidCrystal.cpp:188
{
  command(LCD_RETURNHOME);  // set cursor position to zero
  delayMicroseconds(2000);  // this command takes a long time!
}

void LiquidCrystal::setCursor(uint8_t col, uint8_t row)
     cce:	64 30       	cpi	r22, 0x04	; 4
     cd0:	08 f0       	brcs	.+2      	; 0xcd4 <LiquidCrystal::setCursor(unsigned char, unsigned char) [clone .constprop.27]+0x6>
     cd2:	63 e0       	ldi	r22, 0x03	; 3
C:\Users\Ryan\AppData\Local\Arduino15\libraries\LiquidCrystal\src/LiquidCrystal.cpp:194
{
  const size_t max_lines = sizeof(_row_offsets) / sizeof(*_row_offsets);
  if ( row >= max_lines ) {
    row = max_lines - 1;    // we count rows starting w/0
  }
  if ( row >= _numlines ) {
     cd4:	90 91 d2 0a 	lds	r25, 0x0AD2	; 0x800ad2 <lcd+0x13>
     cd8:	69 17       	cp	r22, r25
     cda:	10 f0       	brcs	.+4      	; 0xce0 <LiquidCrystal::setCursor(unsigned char, unsigned char) [clone .constprop.27]+0x12>
C:\Users\Ryan\AppData\Local\Arduino15\libraries\LiquidCrystal\src/LiquidCrystal.cpp:195
    row = _numlines - 1;    // we count rows starting w/0
     cdc:	6f ef       	ldi	r22, 0xFF	; 255
     cde:	69 0f       	add	r22, r25
C:\Users\Ryan\AppData\Local\Arduino15\libraries\LiquidCrystal\src/LiquidCrystal.cpp:198
  }
  
  command(LCD_SETDDRAMADDR | (col + _row_offsets[row]));
     ce0:	e6 2f       	mov	r30, r22
     ce2:	f0 e0       	ldi	r31, 0x00	; 0
     ce4:	e1 54       	subi	r30, 0x41	; 65
     ce6:	f5 4f       	sbci	r31, 0xF5	; 245
     ce8:	94 89       	ldd	r25, Z+20	; 0x14
     cea:	89 0f       	add	r24, r25
     cec:	80 68       	ori	r24, 0x80	; 128
     cee:	0c 94 b9 05 	jmp	0xb72	; 0xb72 <LiquidCrystal::command(unsigned char) [clone .constprop.39]>

00000cf2 <LiquidCrystal::write(unsigned char)>:
write():
C:\Users\Ryan\AppData\Local\Arduino15\libraries\LiquidCrystal\src/LiquidCrystal.cpp:280
inline void LiquidCrystal::command(uint8_t value) {
  send(value, LOW);
}

inline size_t LiquidCrystal::write(uint8_t value) {
  send(value, HIGH);
     cf2:	41 e0       	ldi	r20, 0x01	; 1
     cf4:	0e 94 66 05 	call	0xacc	; 0xacc <LiquidCrystal::send(unsigned char, unsigned char)>
C:\Users\Ryan\AppData\Local\Arduino15\libraries\LiquidCrystal\src/LiquidCrystal.cpp:282
  return 1; // assume sucess
}
     cf8:	81 e0       	ldi	r24, 0x01	; 1
     cfa:	90 e0       	ldi	r25, 0x00	; 0
     cfc:	08 95       	ret

00000cfe <Print::flush()>:
flush():
C:\Users\Ryan\AppData\Local\Arduino15\packages\MegaCore\hardware\avr\3.0.3\cores\MCUdude_corefiles/Print.h:65

    // default to zero, meaning "a single write may block"
    // should be overriden by subclasses with buffering
    virtual int availableForWrite() { return 0; }

    virtual void flush() { /* Empty implementation for backward compatibility */ }
     cfe:	08 95       	ret

00000d00 <Print::availableForWrite()>:
availableForWrite():
C:\Users\Ryan\AppData\Local\Arduino15\packages\MegaCore\hardware\avr\3.0.3\cores\MCUdude_corefiles/Print.h:63
      return write((const uint8_t *)buffer, size);
    }

    // default to zero, meaning "a single write may block"
    // should be overriden by subclasses with buffering
    virtual int availableForWrite() { return 0; }
     d00:	90 e0       	ldi	r25, 0x00	; 0
     d02:	80 e0       	ldi	r24, 0x00	; 0
     d04:	08 95       	ret

00000d06 <read_sensor(char, char, char)>:
read_sensor():
C:\Users\Ryan\Documents\GitHub\sport_main_code_2023/sport_menu.h:205
  int result = 0;
  result = (EEPROM.read(address) << 8) + EEPROM.read(address + 1);
  return result;
}

int read_sensor(char sensorNum, char pinNum, char outputMode) {
     d06:	1f 93       	push	r17
     d08:	cf 93       	push	r28
     d0a:	df 93       	push	r29
     d0c:	d8 2f       	mov	r29, r24
     d0e:	c6 2f       	mov	r28, r22
     d10:	14 2f       	mov	r17, r20
C:\Users\Ryan\Documents\GitHub\sport_main_code_2023/sport_menu.h:207
  int output = 0;
  byte n1 = sensorNum & 0b0001;
     d12:	68 2f       	mov	r22, r24
     d14:	61 70       	andi	r22, 0x01	; 1
C:\Users\Ryan\Documents\GitHub\sport_main_code_2023/sport_menu.h:211
  byte n2 = (sensorNum & 0b0010) / 2;
  byte n3 = (sensorNum & 0b0100) / 4;

  digitalWrite(MUX_A, n1);
     d16:	8c e2       	ldi	r24, 0x2C	; 44
     d18:	0e 94 0c 02 	call	0x418	; 0x418 <digitalWrite>
C:\Users\Ryan\Documents\GitHub\sport_main_code_2023/sport_menu.h:208
}

int read_sensor(char sensorNum, char pinNum, char outputMode) {
  int output = 0;
  byte n1 = sensorNum & 0b0001;
  byte n2 = (sensorNum & 0b0010) / 2;
     d1c:	d1 fb       	bst	r29, 1
     d1e:	66 27       	eor	r22, r22
     d20:	60 f9       	bld	r22, 0
C:\Users\Ryan\Documents\GitHub\sport_main_code_2023/sport_menu.h:212
  byte n3 = (sensorNum & 0b0100) / 4;

  digitalWrite(MUX_A, n1);
  digitalWrite(MUX_B, n2);
     d22:	8b e2       	ldi	r24, 0x2B	; 43
     d24:	0e 94 0c 02 	call	0x418	; 0x418 <digitalWrite>
C:\Users\Ryan\Documents\GitHub\sport_main_code_2023/sport_menu.h:209

int read_sensor(char sensorNum, char pinNum, char outputMode) {
  int output = 0;
  byte n1 = sensorNum & 0b0001;
  byte n2 = (sensorNum & 0b0010) / 2;
  byte n3 = (sensorNum & 0b0100) / 4;
     d28:	6d 2f       	mov	r22, r29
     d2a:	65 95       	asr	r22
     d2c:	65 95       	asr	r22
C:\Users\Ryan\Documents\GitHub\sport_main_code_2023/sport_menu.h:213

  digitalWrite(MUX_A, n1);
  digitalWrite(MUX_B, n2);
  digitalWrite(MUX_C, n3);
     d2e:	8a e2       	ldi	r24, 0x2A	; 42
     d30:	0e 94 0c 02 	call	0x418	; 0x418 <digitalWrite>
C:\Users\Ryan\Documents\GitHub\sport_main_code_2023/sport_menu.h:214
  if (outputMode == 0)  // digital Mode
     d34:	11 11       	cpse	r17, r1
     d36:	0f c0       	rjmp	.+30     	; 0xd56 <read_sensor(char, char, char)+0x50>
C:\Users\Ryan\Documents\GitHub\sport_main_code_2023/sport_menu.h:217
  {
    if (pinNum == 0)
      output = digitalRead(A0);
     d38:	8d e2       	ldi	r24, 0x2D	; 45
C:\Users\Ryan\Documents\GitHub\sport_main_code_2023/sport_menu.h:216
  digitalWrite(MUX_A, n1);
  digitalWrite(MUX_B, n2);
  digitalWrite(MUX_C, n3);
  if (outputMode == 0)  // digital Mode
  {
    if (pinNum == 0)
     d3a:	cc 23       	and	r28, r28
     d3c:	39 f0       	breq	.+14     	; 0xd4c <read_sensor(char, char, char)+0x46>
C:\Users\Ryan\Documents\GitHub\sport_main_code_2023/sport_menu.h:219
      output = digitalRead(A0);
    else if (pinNum == 1)
      output = digitalRead(A1);
     d3e:	8e e2       	ldi	r24, 0x2E	; 46
C:\Users\Ryan\Documents\GitHub\sport_main_code_2023/sport_menu.h:218
  digitalWrite(MUX_C, n3);
  if (outputMode == 0)  // digital Mode
  {
    if (pinNum == 0)
      output = digitalRead(A0);
    else if (pinNum == 1)
     d40:	c1 30       	cpi	r28, 0x01	; 1
     d42:	21 f0       	breq	.+8      	; 0xd4c <read_sensor(char, char, char)+0x46>
C:\Users\Ryan\Documents\GitHub\sport_main_code_2023/sport_menu.h:221
      output = digitalRead(A1);
    else if (pinNum == 2)
      output = digitalRead(A2);
     d44:	8f e2       	ldi	r24, 0x2F	; 47
C:\Users\Ryan\Documents\GitHub\sport_main_code_2023/sport_menu.h:220
  {
    if (pinNum == 0)
      output = digitalRead(A0);
    else if (pinNum == 1)
      output = digitalRead(A1);
    else if (pinNum == 2)
     d46:	c2 30       	cpi	r28, 0x02	; 2
     d48:	09 f0       	breq	.+2      	; 0xd4c <read_sensor(char, char, char)+0x46>
C:\Users\Ryan\Documents\GitHub\sport_main_code_2023/sport_menu.h:223
      output = digitalRead(A2);
    else if (pinNum == 3)
      output = digitalRead(A3);
     d4a:	80 e3       	ldi	r24, 0x30	; 48
C:\Users\Ryan\Documents\GitHub\sport_main_code_2023/sport_menu.h:237
    else if (pinNum == 3)
      output = analogRead(A3);
    output = output * 5 / 102.3;
  }
  return output;
}
     d4c:	df 91       	pop	r29
     d4e:	cf 91       	pop	r28
     d50:	1f 91       	pop	r17
C:\Users\Ryan\Documents\GitHub\sport_main_code_2023/sport_menu.h:223
    else if (pinNum == 1)
      output = digitalRead(A1);
    else if (pinNum == 2)
      output = digitalRead(A2);
    else if (pinNum == 3)
      output = digitalRead(A3);
     d52:	0c 94 e3 01 	jmp	0x3c6	; 0x3c6 <digitalRead>
C:\Users\Ryan\Documents\GitHub\sport_main_code_2023/sport_menu.h:227
  } else if (outputMode == 1)  // analog Mode
  {
    if (pinNum == 0)
      output = analogRead(A0);
     d56:	8d e2       	ldi	r24, 0x2D	; 45
C:\Users\Ryan\Documents\GitHub\sport_main_code_2023/sport_menu.h:226
      output = digitalRead(A2);
    else if (pinNum == 3)
      output = digitalRead(A3);
  } else if (outputMode == 1)  // analog Mode
  {
    if (pinNum == 0)
     d58:	cc 23       	and	r28, r28
     d5a:	39 f0       	breq	.+14     	; 0xd6a <read_sensor(char, char, char)+0x64>
C:\Users\Ryan\Documents\GitHub\sport_main_code_2023/sport_menu.h:229
      output = analogRead(A0);
    else if (pinNum == 1)
      output = analogRead(A1);
     d5c:	8e e2       	ldi	r24, 0x2E	; 46
C:\Users\Ryan\Documents\GitHub\sport_main_code_2023/sport_menu.h:228
      output = digitalRead(A3);
  } else if (outputMode == 1)  // analog Mode
  {
    if (pinNum == 0)
      output = analogRead(A0);
    else if (pinNum == 1)
     d5e:	c1 30       	cpi	r28, 0x01	; 1
     d60:	21 f0       	breq	.+8      	; 0xd6a <read_sensor(char, char, char)+0x64>
C:\Users\Ryan\Documents\GitHub\sport_main_code_2023/sport_menu.h:231
      output = analogRead(A1);
    else if (pinNum == 2)
      output = analogRead(A2);
     d62:	8f e2       	ldi	r24, 0x2F	; 47
C:\Users\Ryan\Documents\GitHub\sport_main_code_2023/sport_menu.h:230
  {
    if (pinNum == 0)
      output = analogRead(A0);
    else if (pinNum == 1)
      output = analogRead(A1);
    else if (pinNum == 2)
     d64:	c2 30       	cpi	r28, 0x02	; 2
     d66:	09 f0       	breq	.+2      	; 0xd6a <read_sensor(char, char, char)+0x64>
C:\Users\Ryan\Documents\GitHub\sport_main_code_2023/sport_menu.h:233
      output = analogRead(A2);
    else if (pinNum == 3)
      output = analogRead(A3);
     d68:	80 e3       	ldi	r24, 0x30	; 48
     d6a:	0e 94 ea 02 	call	0x5d4	; 0x5d4 <analogRead>
C:\Users\Ryan\Documents\GitHub\sport_main_code_2023/sport_menu.h:234
    output = output * 5 / 102.3;
     d6e:	25 e0       	ldi	r18, 0x05	; 5
     d70:	28 9f       	mul	r18, r24
     d72:	b0 01       	movw	r22, r0
     d74:	29 9f       	mul	r18, r25
     d76:	70 0d       	add	r23, r0
     d78:	11 24       	eor	r1, r1
     d7a:	07 2e       	mov	r0, r23
     d7c:	00 0c       	add	r0, r0
     d7e:	88 0b       	sbc	r24, r24
     d80:	99 0b       	sbc	r25, r25
     d82:	0e 94 9f 34 	call	0x693e	; 0x693e <__floatsisf>
     d86:	2a e9       	ldi	r18, 0x9A	; 154
     d88:	39 e9       	ldi	r19, 0x99	; 153
     d8a:	4c ec       	ldi	r20, 0xCC	; 204
     d8c:	52 e4       	ldi	r21, 0x42	; 66
     d8e:	0e 94 f5 33 	call	0x67ea	; 0x67ea <__divsf3>
     d92:	0e 94 67 34 	call	0x68ce	; 0x68ce <__fixsfsi>
C:\Users\Ryan\Documents\GitHub\sport_main_code_2023/sport_menu.h:237
  }
  return output;
}
     d96:	cb 01       	movw	r24, r22
     d98:	df 91       	pop	r29
     d9a:	cf 91       	pop	r28
     d9c:	1f 91       	pop	r17
     d9e:	08 95       	ret

00000da0 <go(int, int)>:
go():
C:\Users\Ryan\Documents\GitHub\sport_main_code_2023/sport_menu.h:161
  else if (SR8) go(spd, -spd);

  else if (SL9) go(-spd, spd);
  else if (SR9) go(spd, -spd);
}
void go(int left, int right) {
     da0:	0f 93       	push	r16
     da2:	1f 93       	push	r17
     da4:	cf 93       	push	r28
     da6:	df 93       	push	r29
C:\Users\Ryan\Documents\GitHub\sport_main_code_2023/sport_menu.h:163
  left = -left;
  right = -right;
     da8:	00 27       	eor	r16, r16
     daa:	11 27       	eor	r17, r17
     dac:	06 1b       	sub	r16, r22
     dae:	17 0b       	sbc	r17, r23
C:\Users\Ryan\Documents\GitHub\sport_main_code_2023/sport_menu.h:165

  if (left > 255)
     db0:	81 30       	cpi	r24, 0x01	; 1
     db2:	2f ef       	ldi	r18, 0xFF	; 255
     db4:	92 07       	cpc	r25, r18
     db6:	0c f4       	brge	.+2      	; 0xdba <go(int, int)+0x1a>
     db8:	46 c0       	rjmp	.+140    	; 0xe46 <go(int, int)+0xa6>
C:\Users\Ryan\Documents\GitHub\sport_main_code_2023/sport_menu.h:167
    left = 255;
  if (left < -255)
     dba:	8f 3f       	cpi	r24, 0xFF	; 255
     dbc:	91 05       	cpc	r25, r1
     dbe:	09 f0       	breq	.+2      	; 0xdc2 <go(int, int)+0x22>
     dc0:	cc f5       	brge	.+114    	; 0xe34 <go(int, int)+0x94>
C:\Users\Ryan\Documents\GitHub\sport_main_code_2023/sport_menu.h:162

  else if (SL9) go(-spd, spd);
  else if (SR9) go(spd, -spd);
}
void go(int left, int right) {
  left = -left;
     dc2:	cc 27       	eor	r28, r28
     dc4:	dd 27       	eor	r29, r29
     dc6:	c8 1b       	sub	r28, r24
     dc8:	d9 0b       	sbc	r29, r25
C:\Users\Ryan\Documents\GitHub\sport_main_code_2023/sport_menu.h:169

  if (left > 255)
    left = 255;
  if (left < -255)
    left = -255;
  if (right > 255)
     dca:	61 30       	cpi	r22, 0x01	; 1
     dcc:	2f ef       	ldi	r18, 0xFF	; 255
     dce:	72 07       	cpc	r23, r18
     dd0:	2c f1       	brlt	.+74     	; 0xe1c <go(int, int)+0x7c>
C:\Users\Ryan\Documents\GitHub\sport_main_code_2023/sport_menu.h:171
    right = 255;
  if (right < -255)
     dd2:	6f 3f       	cpi	r22, 0xFF	; 255
     dd4:	71 05       	cpc	r23, r1
     dd6:	09 f0       	breq	.+2      	; 0xdda <go(int, int)+0x3a>
     dd8:	24 f5       	brge	.+72     	; 0xe22 <go(int, int)+0x82>
C:\Users\Ryan\Documents\GitHub\sport_main_code_2023/sport_menu.h:174
    right = -255;

  if (left <= 0) {
     dda:	97 fd       	sbrc	r25, 7
     ddc:	29 c0       	rjmp	.+82     	; 0xe30 <go(int, int)+0x90>
C:\Users\Ryan\Documents\GitHub\sport_main_code_2023/sport_menu.h:175
    digitalWrite(2, LOW);
     dde:	60 e0       	ldi	r22, 0x00	; 0
C:\Users\Ryan\Documents\GitHub\sport_main_code_2023/sport_menu.h:178
    analogWrite(3, -left);
  } else if (left > 0) {
    digitalWrite(2, HIGH);
     de0:	82 e0       	ldi	r24, 0x02	; 2
     de2:	0e 94 0c 02 	call	0x418	; 0x418 <digitalWrite>
C:\Users\Ryan\Documents\GitHub\sport_main_code_2023/sport_menu.h:179
    analogWrite(3, -left);
     de6:	66 27       	eor	r22, r22
     de8:	77 27       	eor	r23, r23
     dea:	6c 1b       	sub	r22, r28
     dec:	7d 0b       	sbc	r23, r29
     dee:	83 e0       	ldi	r24, 0x03	; 3
     df0:	0e 94 76 02 	call	0x4ec	; 0x4ec <analogWrite>
     df4:	cc 27       	eor	r28, r28
     df6:	dd 27       	eor	r29, r29
     df8:	c0 1b       	sub	r28, r16
     dfa:	d1 0b       	sbc	r29, r17
C:\Users\Ryan\Documents\GitHub\sport_main_code_2023/sport_menu.h:183
  }

  if (right <= 0) {
    digitalWrite(4, LOW);
     dfc:	60 e0       	ldi	r22, 0x00	; 0
C:\Users\Ryan\Documents\GitHub\sport_main_code_2023/sport_menu.h:182
  } else if (left > 0) {
    digitalWrite(2, HIGH);
    analogWrite(3, -left);
  }

  if (right <= 0) {
     dfe:	10 16       	cp	r1, r16
     e00:	11 06       	cpc	r1, r17
     e02:	0c f4       	brge	.+2      	; 0xe06 <go(int, int)+0x66>
C:\Users\Ryan\Documents\GitHub\sport_main_code_2023/sport_menu.h:188
    digitalWrite(4, LOW);
    analogWrite(5, -right);
  }

  else if (right > 0) {
    digitalWrite(4, HIGH);
     e04:	61 e0       	ldi	r22, 0x01	; 1
     e06:	84 e0       	ldi	r24, 0x04	; 4
     e08:	0e 94 0c 02 	call	0x418	; 0x418 <digitalWrite>
C:\Users\Ryan\Documents\GitHub\sport_main_code_2023/sport_menu.h:189
    analogWrite(5, -right);
     e0c:	be 01       	movw	r22, r28
     e0e:	85 e0       	ldi	r24, 0x05	; 5
C:\Users\Ryan\Documents\GitHub\sport_main_code_2023/sport_menu.h:191
  }
}
     e10:	df 91       	pop	r29
     e12:	cf 91       	pop	r28
     e14:	1f 91       	pop	r17
     e16:	0f 91       	pop	r16
C:\Users\Ryan\Documents\GitHub\sport_main_code_2023/sport_menu.h:189
    analogWrite(5, -right);
  }

  else if (right > 0) {
    digitalWrite(4, HIGH);
    analogWrite(5, -right);
     e18:	0c 94 76 02 	jmp	0x4ec	; 0x4ec <analogWrite>
C:\Users\Ryan\Documents\GitHub\sport_main_code_2023/sport_menu.h:170
  if (left > 255)
    left = 255;
  if (left < -255)
    left = -255;
  if (right > 255)
    right = 255;
     e1c:	0f ef       	ldi	r16, 0xFF	; 255
     e1e:	10 e0       	ldi	r17, 0x00	; 0
     e20:	dc cf       	rjmp	.-72     	; 0xdda <go(int, int)+0x3a>
C:\Users\Ryan\Documents\GitHub\sport_main_code_2023/sport_menu.h:172
  if (right < -255)
    right = -255;
     e22:	01 e0       	ldi	r16, 0x01	; 1
     e24:	1f ef       	ldi	r17, 0xFF	; 255
     e26:	d9 cf       	rjmp	.-78     	; 0xdda <go(int, int)+0x3a>
C:\Users\Ryan\Documents\GitHub\sport_main_code_2023/sport_menu.h:170
  if (left > 255)
    left = 255;
  if (left < -255)
    left = -255;
  if (right > 255)
    right = 255;
     e28:	0f ef       	ldi	r16, 0xFF	; 255
     e2a:	10 e0       	ldi	r17, 0x00	; 0
C:\Users\Ryan\Documents\GitHub\sport_main_code_2023/sport_menu.h:166
void go(int left, int right) {
  left = -left;
  right = -right;

  if (left > 255)
    left = 255;
     e2c:	cf ef       	ldi	r28, 0xFF	; 255
     e2e:	d0 e0       	ldi	r29, 0x00	; 0
C:\Users\Ryan\Documents\GitHub\sport_main_code_2023/sport_menu.h:178

  if (left <= 0) {
    digitalWrite(2, LOW);
    analogWrite(3, -left);
  } else if (left > 0) {
    digitalWrite(2, HIGH);
     e30:	61 e0       	ldi	r22, 0x01	; 1
     e32:	d6 cf       	rjmp	.-84     	; 0xde0 <go(int, int)+0x40>
C:\Users\Ryan\Documents\GitHub\sport_main_code_2023/sport_menu.h:169

  if (left > 255)
    left = 255;
  if (left < -255)
    left = -255;
  if (right > 255)
     e34:	61 30       	cpi	r22, 0x01	; 1
     e36:	8f ef       	ldi	r24, 0xFF	; 255
     e38:	78 07       	cpc	r23, r24
     e3a:	84 f4       	brge	.+32     	; 0xe5c <go(int, int)+0xbc>
C:\Users\Ryan\Documents\GitHub\sport_main_code_2023/sport_menu.h:170
    right = 255;
     e3c:	0f ef       	ldi	r16, 0xFF	; 255
     e3e:	10 e0       	ldi	r17, 0x00	; 0
C:\Users\Ryan\Documents\GitHub\sport_main_code_2023/sport_menu.h:168
  right = -right;

  if (left > 255)
    left = 255;
  if (left < -255)
    left = -255;
     e40:	c1 e0       	ldi	r28, 0x01	; 1
     e42:	df ef       	ldi	r29, 0xFF	; 255
     e44:	cc cf       	rjmp	.-104    	; 0xdde <go(int, int)+0x3e>
C:\Users\Ryan\Documents\GitHub\sport_main_code_2023/sport_menu.h:169
  if (right > 255)
     e46:	61 30       	cpi	r22, 0x01	; 1
     e48:	2f ef       	ldi	r18, 0xFF	; 255
     e4a:	72 07       	cpc	r23, r18
     e4c:	6c f3       	brlt	.-38     	; 0xe28 <go(int, int)+0x88>
C:\Users\Ryan\Documents\GitHub\sport_main_code_2023/sport_menu.h:171
    right = 255;
  if (right < -255)
     e4e:	6f 3f       	cpi	r22, 0xFF	; 255
     e50:	71 05       	cpc	r23, r1
     e52:	61 f3       	breq	.-40     	; 0xe2c <go(int, int)+0x8c>
     e54:	5c f3       	brlt	.-42     	; 0xe2c <go(int, int)+0x8c>
C:\Users\Ryan\Documents\GitHub\sport_main_code_2023/sport_menu.h:172
    right = -255;
     e56:	01 e0       	ldi	r16, 0x01	; 1
     e58:	1f ef       	ldi	r17, 0xFF	; 255
     e5a:	e8 cf       	rjmp	.-48     	; 0xe2c <go(int, int)+0x8c>
C:\Users\Ryan\Documents\GitHub\sport_main_code_2023/sport_menu.h:171
    left = 255;
  if (left < -255)
    left = -255;
  if (right > 255)
    right = 255;
  if (right < -255)
     e5c:	6f 3f       	cpi	r22, 0xFF	; 255
     e5e:	71 05       	cpc	r23, r1
     e60:	79 f3       	breq	.-34     	; 0xe40 <go(int, int)+0xa0>
     e62:	74 f3       	brlt	.-36     	; 0xe40 <go(int, int)+0xa0>
C:\Users\Ryan\Documents\GitHub\sport_main_code_2023/sport_menu.h:172
    right = -255;
     e64:	01 e0       	ldi	r16, 0x01	; 1
     e66:	1f ef       	ldi	r17, 0xFF	; 255
     e68:	eb cf       	rjmp	.-42     	; 0xe40 <go(int, int)+0xa0>

00000e6a <move(int, int, int)>:
move():
C:\Users\Ryan\Documents\GitHub\sport_main_code_2023/sport_menu.h:1857
      break;
    }
  }
  get_back();
}
void move(int direction, int lenth, int speed = 180) {
     e6a:	cf 92       	push	r12
     e6c:	df 92       	push	r13
     e6e:	ef 92       	push	r14
     e70:	ff 92       	push	r15
     e72:	0f 93       	push	r16
     e74:	1f 93       	push	r17
     e76:	cf 93       	push	r28
     e78:	df 93       	push	r29
     e7a:	8b 01       	movw	r16, r22
     e7c:	ea 01       	movw	r28, r20
C:\Users\Ryan\Documents\GitHub\sport_main_code_2023/sport_menu.h:1874
        go(-speed, speed);
      }
      go(0, 0);
      break;
    case Right:
      cnt = 0;
     e7e:	1d bc       	out	0x2d, r1	; 45
     e80:	1c bc       	out	0x2c, r1	; 44
C:\Users\Ryan\Documents\GitHub\sport_main_code_2023/sport_menu.h:1858
    }
  }
  get_back();
}
void move(int direction, int lenth, int speed = 180) {
  switch (direction) {
     e82:	8c 30       	cpi	r24, 0x0C	; 12
     e84:	91 05       	cpc	r25, r1
     e86:	c1 f1       	breq	.+112    	; 0xef8 <move(int, int, int)+0x8e>
     e88:	8d 30       	cpi	r24, 0x0D	; 13
     e8a:	91 05       	cpc	r25, r1
     e8c:	09 f4       	brne	.+2      	; 0xe90 <move(int, int, int)+0x26>
     e8e:	48 c0       	rjmp	.+144    	; 0xf20 <move(int, int, int)+0xb6>
     e90:	0b 97       	sbiw	r24, 0x0b	; 11
     e92:	f1 f0       	breq	.+60     	; 0xed0 <move(int, int, int)+0x66>
C:\Users\Ryan\Documents\GitHub\sport_main_code_2023/sport_menu.h:1861
    case forward:
      cnt = 0;
      while (cnt / 100 < lenth) {
     e94:	34 e6       	ldi	r19, 0x64	; 100
     e96:	e3 2e       	mov	r14, r19
     e98:	f1 2c       	mov	r15, r1
     e9a:	8c b5       	in	r24, 0x2c	; 44
     e9c:	9d b5       	in	r25, 0x2d	; 45
     e9e:	b7 01       	movw	r22, r14
     ea0:	0e 94 bc 35 	call	0x6b78	; 0x6b78 <__udivmodhi4>
     ea4:	60 17       	cp	r22, r16
     ea6:	71 07       	cpc	r23, r17
     ea8:	28 f4       	brcc	.+10     	; 0xeb4 <move(int, int, int)+0x4a>
C:\Users\Ryan\Documents\GitHub\sport_main_code_2023/sport_menu.h:1862
        go(speed, speed);
     eaa:	be 01       	movw	r22, r28
     eac:	ce 01       	movw	r24, r28
     eae:	0e 94 d0 06 	call	0xda0	; 0xda0 <go(int, int)>
     eb2:	f3 cf       	rjmp	.-26     	; 0xe9a <move(int, int, int)+0x30>
C:\Users\Ryan\Documents\GitHub\sport_main_code_2023/sport_menu.h:1864
      }
      go(0, 0);
     eb4:	70 e0       	ldi	r23, 0x00	; 0
     eb6:	60 e0       	ldi	r22, 0x00	; 0
     eb8:	90 e0       	ldi	r25, 0x00	; 0
     eba:	80 e0       	ldi	r24, 0x00	; 0
C:\Users\Ryan\Documents\GitHub\sport_main_code_2023/sport_menu.h:1888
        go(-speed, -speed);
      }
      go(0, 0);
      break;
  }
}
     ebc:	df 91       	pop	r29
     ebe:	cf 91       	pop	r28
     ec0:	1f 91       	pop	r17
     ec2:	0f 91       	pop	r16
     ec4:	ff 90       	pop	r15
     ec6:	ef 90       	pop	r14
     ec8:	df 90       	pop	r13
     eca:	cf 90       	pop	r12
C:\Users\Ryan\Documents\GitHub\sport_main_code_2023/sport_menu.h:1864
    case forward:
      cnt = 0;
      while (cnt / 100 < lenth) {
        go(speed, speed);
      }
      go(0, 0);
     ecc:	0c 94 d0 06 	jmp	0xda0	; 0xda0 <go(int, int)>
C:\Users\Ryan\Documents\GitHub\sport_main_code_2023/sport_menu.h:1868
      break;
    case Left:
      cnt = 0;
      while (cnt / 100 < lenth) {
     ed0:	24 e6       	ldi	r18, 0x64	; 100
     ed2:	c2 2e       	mov	r12, r18
     ed4:	d1 2c       	mov	r13, r1
C:\Users\Ryan\Documents\GitHub\sport_main_code_2023/sport_menu.h:1869
        go(-speed, speed);
     ed6:	ee 24       	eor	r14, r14
     ed8:	ff 24       	eor	r15, r15
     eda:	e4 1a       	sub	r14, r20
     edc:	f5 0a       	sbc	r15, r21
C:\Users\Ryan\Documents\GitHub\sport_main_code_2023/sport_menu.h:1868
      }
      go(0, 0);
      break;
    case Left:
      cnt = 0;
      while (cnt / 100 < lenth) {
     ede:	8c b5       	in	r24, 0x2c	; 44
     ee0:	9d b5       	in	r25, 0x2d	; 45
     ee2:	b6 01       	movw	r22, r12
     ee4:	0e 94 bc 35 	call	0x6b78	; 0x6b78 <__udivmodhi4>
     ee8:	60 17       	cp	r22, r16
     eea:	71 07       	cpc	r23, r17
     eec:	18 f7       	brcc	.-58     	; 0xeb4 <move(int, int, int)+0x4a>
C:\Users\Ryan\Documents\GitHub\sport_main_code_2023/sport_menu.h:1869
        go(-speed, speed);
     eee:	be 01       	movw	r22, r28
     ef0:	c7 01       	movw	r24, r14
     ef2:	0e 94 d0 06 	call	0xda0	; 0xda0 <go(int, int)>
     ef6:	f3 cf       	rjmp	.-26     	; 0xede <move(int, int, int)+0x74>
C:\Users\Ryan\Documents\GitHub\sport_main_code_2023/sport_menu.h:1875
      }
      go(0, 0);
      break;
    case Right:
      cnt = 0;
      while (cnt / 100 < lenth) {
     ef8:	94 e6       	ldi	r25, 0x64	; 100
     efa:	c9 2e       	mov	r12, r25
     efc:	d1 2c       	mov	r13, r1
C:\Users\Ryan\Documents\GitHub\sport_main_code_2023/sport_menu.h:1876
        go(speed, -speed);
     efe:	ee 24       	eor	r14, r14
     f00:	ff 24       	eor	r15, r15
     f02:	e4 1a       	sub	r14, r20
     f04:	f5 0a       	sbc	r15, r21
C:\Users\Ryan\Documents\GitHub\sport_main_code_2023/sport_menu.h:1875
      }
      go(0, 0);
      break;
    case Right:
      cnt = 0;
      while (cnt / 100 < lenth) {
     f06:	8c b5       	in	r24, 0x2c	; 44
     f08:	9d b5       	in	r25, 0x2d	; 45
     f0a:	b6 01       	movw	r22, r12
     f0c:	0e 94 bc 35 	call	0x6b78	; 0x6b78 <__udivmodhi4>
     f10:	60 17       	cp	r22, r16
     f12:	71 07       	cpc	r23, r17
     f14:	78 f6       	brcc	.-98     	; 0xeb4 <move(int, int, int)+0x4a>
C:\Users\Ryan\Documents\GitHub\sport_main_code_2023/sport_menu.h:1876
        go(speed, -speed);
     f16:	b7 01       	movw	r22, r14
     f18:	ce 01       	movw	r24, r28
     f1a:	0e 94 d0 06 	call	0xda0	; 0xda0 <go(int, int)>
     f1e:	f3 cf       	rjmp	.-26     	; 0xf06 <move(int, int, int)+0x9c>
C:\Users\Ryan\Documents\GitHub\sport_main_code_2023/sport_menu.h:1882
      }
      go(0, 0);
      break;
    case Back:
      cnt = 0;
      while (cnt / 100 < lenth) {
     f20:	84 e6       	ldi	r24, 0x64	; 100
     f22:	e8 2e       	mov	r14, r24
     f24:	f1 2c       	mov	r15, r1
C:\Users\Ryan\Documents\GitHub\sport_main_code_2023/sport_menu.h:1883
        go(-speed, -speed);
     f26:	d1 95       	neg	r29
     f28:	c1 95       	neg	r28
     f2a:	d1 09       	sbc	r29, r1
C:\Users\Ryan\Documents\GitHub\sport_main_code_2023/sport_menu.h:1882
      }
      go(0, 0);
      break;
    case Back:
      cnt = 0;
      while (cnt / 100 < lenth) {
     f2c:	8c b5       	in	r24, 0x2c	; 44
     f2e:	9d b5       	in	r25, 0x2d	; 45
     f30:	b7 01       	movw	r22, r14
     f32:	0e 94 bc 35 	call	0x6b78	; 0x6b78 <__udivmodhi4>
     f36:	60 17       	cp	r22, r16
     f38:	71 07       	cpc	r23, r17
     f3a:	08 f0       	brcs	.+2      	; 0xf3e <move(int, int, int)+0xd4>
     f3c:	bb cf       	rjmp	.-138    	; 0xeb4 <move(int, int, int)+0x4a>
C:\Users\Ryan\Documents\GitHub\sport_main_code_2023/sport_menu.h:1883
        go(-speed, -speed);
     f3e:	be 01       	movw	r22, r28
     f40:	ce 01       	movw	r24, r28
     f42:	0e 94 d0 06 	call	0xda0	; 0xda0 <go(int, int)>
     f46:	f2 cf       	rjmp	.-28     	; 0xf2c <move(int, int, int)+0xc2>

00000f48 <linefollow()>:
linefollow():
C:\Users\Ryan\Documents\GitHub\sport_main_code_2023/sport_menu.h:79
    }
  }
  */
}
void linefollow() {
  if (SM == HIGH) {
     f48:	40 e0       	ldi	r20, 0x00	; 0
     f4a:	60 e0       	ldi	r22, 0x00	; 0
     f4c:	80 e0       	ldi	r24, 0x00	; 0
     f4e:	0e 94 83 06 	call	0xd06	; 0xd06 <read_sensor(char, char, char)>
     f52:	01 97       	sbiw	r24, 0x01	; 1
     f54:	29 f4       	brne	.+10     	; 0xf60 <linefollow()+0x18>
C:\Users\Ryan\Documents\GitHub\sport_main_code_2023/sport_menu.h:80
    go(255, 255);
     f56:	6f ef       	ldi	r22, 0xFF	; 255
     f58:	70 e0       	ldi	r23, 0x00	; 0
C:\Users\Ryan\Documents\GitHub\sport_main_code_2023/sport_menu.h:90
  } else if (SR3 == HIGH) {
    go(255, -105);
  } else if (SR4 == HIGH) {
    go(255, -175);
  } else if (SR5 == HIGH) {
    go(255, -255);
     f5a:	8f ef       	ldi	r24, 0xFF	; 255
     f5c:	90 e0       	ldi	r25, 0x00	; 0
     f5e:	0b c0       	rjmp	.+22     	; 0xf76 <linefollow()+0x2e>
C:\Users\Ryan\Documents\GitHub\sport_main_code_2023/sport_menu.h:81
  */
}
void linefollow() {
  if (SM == HIGH) {
    go(255, 255);
  } else if (SR1 == HIGH) {
     f60:	40 e0       	ldi	r20, 0x00	; 0
     f62:	61 e0       	ldi	r22, 0x01	; 1
     f64:	81 e0       	ldi	r24, 0x01	; 1
     f66:	0e 94 83 06 	call	0xd06	; 0xd06 <read_sensor(char, char, char)>
     f6a:	01 97       	sbiw	r24, 0x01	; 1
     f6c:	31 f4       	brne	.+12     	; 0xf7a <linefollow()+0x32>
C:\Users\Ryan\Documents\GitHub\sport_main_code_2023/sport_menu.h:82
    go(220, 120);
     f6e:	68 e7       	ldi	r22, 0x78	; 120
     f70:	70 e0       	ldi	r23, 0x00	; 0
     f72:	8c ed       	ldi	r24, 0xDC	; 220
     f74:	90 e0       	ldi	r25, 0x00	; 0
C:\Users\Ryan\Documents\GitHub\sport_main_code_2023/sport_menu.h:102
  } else if (SL3 == HIGH) {
    go(-105, 255);
  } else if (SL4 == HIGH) {
    go(-175, 255);
  } else if (SL5 == HIGH) {
    go(-255, 255);
     f76:	0c 94 d0 06 	jmp	0xda0	; 0xda0 <go(int, int)>
C:\Users\Ryan\Documents\GitHub\sport_main_code_2023/sport_menu.h:83
void linefollow() {
  if (SM == HIGH) {
    go(255, 255);
  } else if (SR1 == HIGH) {
    go(220, 120);
  } else if (SR2 == HIGH) {
     f7a:	40 e0       	ldi	r20, 0x00	; 0
     f7c:	61 e0       	ldi	r22, 0x01	; 1
     f7e:	82 e0       	ldi	r24, 0x02	; 2
     f80:	0e 94 83 06 	call	0xd06	; 0xd06 <read_sensor(char, char, char)>
C:\Users\Ryan\Documents\GitHub\sport_main_code_2023/sport_menu.h:84
    go(255, 85);
     f84:	65 e5       	ldi	r22, 0x55	; 85
     f86:	70 e0       	ldi	r23, 0x00	; 0
C:\Users\Ryan\Documents\GitHub\sport_main_code_2023/sport_menu.h:83
void linefollow() {
  if (SM == HIGH) {
    go(255, 255);
  } else if (SR1 == HIGH) {
    go(220, 120);
  } else if (SR2 == HIGH) {
     f88:	01 97       	sbiw	r24, 0x01	; 1
     f8a:	39 f3       	breq	.-50     	; 0xf5a <linefollow()+0x12>
C:\Users\Ryan\Documents\GitHub\sport_main_code_2023/sport_menu.h:85
    go(255, 85);
  } else if (SR3 == HIGH) {
     f8c:	40 e0       	ldi	r20, 0x00	; 0
     f8e:	61 e0       	ldi	r22, 0x01	; 1
     f90:	83 e0       	ldi	r24, 0x03	; 3
     f92:	0e 94 83 06 	call	0xd06	; 0xd06 <read_sensor(char, char, char)>
C:\Users\Ryan\Documents\GitHub\sport_main_code_2023/sport_menu.h:86
    go(255, -105);
     f96:	67 e9       	ldi	r22, 0x97	; 151
     f98:	7f ef       	ldi	r23, 0xFF	; 255
C:\Users\Ryan\Documents\GitHub\sport_main_code_2023/sport_menu.h:85
    go(255, 255);
  } else if (SR1 == HIGH) {
    go(220, 120);
  } else if (SR2 == HIGH) {
    go(255, 85);
  } else if (SR3 == HIGH) {
     f9a:	01 97       	sbiw	r24, 0x01	; 1
     f9c:	f1 f2       	breq	.-68     	; 0xf5a <linefollow()+0x12>
C:\Users\Ryan\Documents\GitHub\sport_main_code_2023/sport_menu.h:87
    go(255, -105);
  } else if (SR4 == HIGH) {
     f9e:	40 e0       	ldi	r20, 0x00	; 0
     fa0:	61 e0       	ldi	r22, 0x01	; 1
     fa2:	84 e0       	ldi	r24, 0x04	; 4
     fa4:	0e 94 83 06 	call	0xd06	; 0xd06 <read_sensor(char, char, char)>
C:\Users\Ryan\Documents\GitHub\sport_main_code_2023/sport_menu.h:88
    go(255, -175);
     fa8:	61 e5       	ldi	r22, 0x51	; 81
     faa:	7f ef       	ldi	r23, 0xFF	; 255
C:\Users\Ryan\Documents\GitHub\sport_main_code_2023/sport_menu.h:87
    go(220, 120);
  } else if (SR2 == HIGH) {
    go(255, 85);
  } else if (SR3 == HIGH) {
    go(255, -105);
  } else if (SR4 == HIGH) {
     fac:	01 97       	sbiw	r24, 0x01	; 1
     fae:	a9 f2       	breq	.-86     	; 0xf5a <linefollow()+0x12>
C:\Users\Ryan\Documents\GitHub\sport_main_code_2023/sport_menu.h:89
    go(255, -175);
  } else if (SR5 == HIGH) {
     fb0:	40 e0       	ldi	r20, 0x00	; 0
     fb2:	61 e0       	ldi	r22, 0x01	; 1
     fb4:	85 e0       	ldi	r24, 0x05	; 5
     fb6:	0e 94 83 06 	call	0xd06	; 0xd06 <read_sensor(char, char, char)>
     fba:	01 97       	sbiw	r24, 0x01	; 1
     fbc:	19 f4       	brne	.+6      	; 0xfc4 <linefollow()+0x7c>
C:\Users\Ryan\Documents\GitHub\sport_main_code_2023/sport_menu.h:90
    go(255, -255);
     fbe:	61 e0       	ldi	r22, 0x01	; 1
     fc0:	7f ef       	ldi	r23, 0xFF	; 255
     fc2:	cb cf       	rjmp	.-106    	; 0xf5a <linefollow()+0x12>
C:\Users\Ryan\Documents\GitHub\sport_main_code_2023/sport_menu.h:91
  } else if (SR6 == HIGH) {
     fc4:	40 e0       	ldi	r20, 0x00	; 0
     fc6:	61 e0       	ldi	r22, 0x01	; 1
     fc8:	86 e0       	ldi	r24, 0x06	; 6
     fca:	0e 94 83 06 	call	0xd06	; 0xd06 <read_sensor(char, char, char)>
     fce:	01 97       	sbiw	r24, 0x01	; 1
     fd0:	b1 f3       	breq	.-20     	; 0xfbe <linefollow()+0x76>
C:\Users\Ryan\Documents\GitHub\sport_main_code_2023/sport_menu.h:93
    go(255, -255);
  } else if (SL1 == HIGH) {
     fd2:	40 e0       	ldi	r20, 0x00	; 0
     fd4:	60 e0       	ldi	r22, 0x00	; 0
     fd6:	81 e0       	ldi	r24, 0x01	; 1
     fd8:	0e 94 83 06 	call	0xd06	; 0xd06 <read_sensor(char, char, char)>
     fdc:	01 97       	sbiw	r24, 0x01	; 1
     fde:	29 f4       	brne	.+10     	; 0xfea <linefollow()+0xa2>
C:\Users\Ryan\Documents\GitHub\sport_main_code_2023/sport_menu.h:94
    go(155, 255);
     fe0:	6f ef       	ldi	r22, 0xFF	; 255
     fe2:	70 e0       	ldi	r23, 0x00	; 0
     fe4:	8b e9       	ldi	r24, 0x9B	; 155
     fe6:	90 e0       	ldi	r25, 0x00	; 0
     fe8:	c6 cf       	rjmp	.-116    	; 0xf76 <linefollow()+0x2e>
C:\Users\Ryan\Documents\GitHub\sport_main_code_2023/sport_menu.h:95
  } else if (SL2 == HIGH) {
     fea:	40 e0       	ldi	r20, 0x00	; 0
     fec:	60 e0       	ldi	r22, 0x00	; 0
     fee:	82 e0       	ldi	r24, 0x02	; 2
     ff0:	0e 94 83 06 	call	0xd06	; 0xd06 <read_sensor(char, char, char)>
     ff4:	01 97       	sbiw	r24, 0x01	; 1
     ff6:	29 f4       	brne	.+10     	; 0x1002 <linefollow()+0xba>
C:\Users\Ryan\Documents\GitHub\sport_main_code_2023/sport_menu.h:96
    go(85, 255);
     ff8:	6f ef       	ldi	r22, 0xFF	; 255
     ffa:	70 e0       	ldi	r23, 0x00	; 0
     ffc:	85 e5       	ldi	r24, 0x55	; 85
     ffe:	90 e0       	ldi	r25, 0x00	; 0
    1000:	ba cf       	rjmp	.-140    	; 0xf76 <linefollow()+0x2e>
C:\Users\Ryan\Documents\GitHub\sport_main_code_2023/sport_menu.h:97
  } else if (SL3 == HIGH) {
    1002:	40 e0       	ldi	r20, 0x00	; 0
    1004:	60 e0       	ldi	r22, 0x00	; 0
    1006:	83 e0       	ldi	r24, 0x03	; 3
    1008:	0e 94 83 06 	call	0xd06	; 0xd06 <read_sensor(char, char, char)>
    100c:	01 97       	sbiw	r24, 0x01	; 1
    100e:	29 f4       	brne	.+10     	; 0x101a <linefollow()+0xd2>
C:\Users\Ryan\Documents\GitHub\sport_main_code_2023/sport_menu.h:98
    go(-105, 255);
    1010:	6f ef       	ldi	r22, 0xFF	; 255
    1012:	70 e0       	ldi	r23, 0x00	; 0
    1014:	87 e9       	ldi	r24, 0x97	; 151
    1016:	9f ef       	ldi	r25, 0xFF	; 255
    1018:	ae cf       	rjmp	.-164    	; 0xf76 <linefollow()+0x2e>
C:\Users\Ryan\Documents\GitHub\sport_main_code_2023/sport_menu.h:99
  } else if (SL4 == HIGH) {
    101a:	40 e0       	ldi	r20, 0x00	; 0
    101c:	60 e0       	ldi	r22, 0x00	; 0
    101e:	84 e0       	ldi	r24, 0x04	; 4
    1020:	0e 94 83 06 	call	0xd06	; 0xd06 <read_sensor(char, char, char)>
    1024:	01 97       	sbiw	r24, 0x01	; 1
    1026:	29 f4       	brne	.+10     	; 0x1032 <linefollow()+0xea>
C:\Users\Ryan\Documents\GitHub\sport_main_code_2023/sport_menu.h:100
    go(-175, 255);
    1028:	6f ef       	ldi	r22, 0xFF	; 255
    102a:	70 e0       	ldi	r23, 0x00	; 0
    102c:	81 e5       	ldi	r24, 0x51	; 81
    102e:	9f ef       	ldi	r25, 0xFF	; 255
    1030:	a2 cf       	rjmp	.-188    	; 0xf76 <linefollow()+0x2e>
C:\Users\Ryan\Documents\GitHub\sport_main_code_2023/sport_menu.h:101
  } else if (SL5 == HIGH) {
    1032:	40 e0       	ldi	r20, 0x00	; 0
    1034:	60 e0       	ldi	r22, 0x00	; 0
    1036:	85 e0       	ldi	r24, 0x05	; 5
    1038:	0e 94 83 06 	call	0xd06	; 0xd06 <read_sensor(char, char, char)>
    103c:	01 97       	sbiw	r24, 0x01	; 1
    103e:	29 f4       	brne	.+10     	; 0x104a <linefollow()+0x102>
C:\Users\Ryan\Documents\GitHub\sport_main_code_2023/sport_menu.h:102
    go(-255, 255);
    1040:	6f ef       	ldi	r22, 0xFF	; 255
    1042:	70 e0       	ldi	r23, 0x00	; 0
    1044:	81 e0       	ldi	r24, 0x01	; 1
    1046:	9f ef       	ldi	r25, 0xFF	; 255
    1048:	96 cf       	rjmp	.-212    	; 0xf76 <linefollow()+0x2e>
C:\Users\Ryan\Documents\GitHub\sport_main_code_2023/sport_menu.h:103
  } else if (SL6 == HIGH) {
    104a:	40 e0       	ldi	r20, 0x00	; 0
    104c:	60 e0       	ldi	r22, 0x00	; 0
    104e:	86 e0       	ldi	r24, 0x06	; 6
    1050:	0e 94 83 06 	call	0xd06	; 0xd06 <read_sensor(char, char, char)>
    1054:	01 97       	sbiw	r24, 0x01	; 1
    1056:	09 f0       	breq	.+2      	; 0x105a <linefollow()+0x112>
    1058:	7e cf       	rjmp	.-260    	; 0xf56 <linefollow()+0xe>
    105a:	f2 cf       	rjmp	.-28     	; 0x1040 <linefollow()+0xf8>

0000105c <beep(int)>:
beep():
C:\Users\Ryan\Documents\GitHub\sport_main_code_2023/sport_menu.h:7
void move(int direction, int lenth, int speed);
unsigned int vl(char xv);
void handle_color();
void get_out();

void beep(int num) {
    105c:	0f 93       	push	r16
    105e:	1f 93       	push	r17
    1060:	cf 93       	push	r28
    1062:	df 93       	push	r29
    1064:	8c 01       	movw	r16, r24
C:\Users\Ryan\Documents\GitHub\sport_main_code_2023/sport_menu.h:8
  for (int i = 0; i < num; i++) {
    1066:	d0 e0       	ldi	r29, 0x00	; 0
    1068:	c0 e0       	ldi	r28, 0x00	; 0
C:\Users\Ryan\Documents\GitHub\sport_main_code_2023/sport_menu.h:9
    buz_on;
    106a:	61 e0       	ldi	r22, 0x01	; 1
    106c:	83 e2       	ldi	r24, 0x23	; 35
    106e:	0e 94 0c 02 	call	0x418	; 0x418 <digitalWrite>
C:\Users\Ryan\Documents\GitHub\sport_main_code_2023/sport_menu.h:10
    delay(50);
    1072:	62 e3       	ldi	r22, 0x32	; 50
    1074:	70 e0       	ldi	r23, 0x00	; 0
    1076:	80 e0       	ldi	r24, 0x00	; 0
    1078:	90 e0       	ldi	r25, 0x00	; 0
    107a:	0e 94 24 03 	call	0x648	; 0x648 <delay>
C:\Users\Ryan\Documents\GitHub\sport_main_code_2023/sport_menu.h:11
    buz_off;
    107e:	60 e0       	ldi	r22, 0x00	; 0
    1080:	83 e2       	ldi	r24, 0x23	; 35
    1082:	0e 94 0c 02 	call	0x418	; 0x418 <digitalWrite>
C:\Users\Ryan\Documents\GitHub\sport_main_code_2023/sport_menu.h:12
    delay(50);
    1086:	62 e3       	ldi	r22, 0x32	; 50
    1088:	70 e0       	ldi	r23, 0x00	; 0
    108a:	80 e0       	ldi	r24, 0x00	; 0
    108c:	90 e0       	ldi	r25, 0x00	; 0
    108e:	0e 94 24 03 	call	0x648	; 0x648 <delay>
C:\Users\Ryan\Documents\GitHub\sport_main_code_2023/sport_menu.h:8
unsigned int vl(char xv);
void handle_color();
void get_out();

void beep(int num) {
  for (int i = 0; i < num; i++) {
    1092:	21 96       	adiw	r28, 0x01	; 1
    1094:	0c 17       	cp	r16, r28
    1096:	1d 07       	cpc	r17, r29
    1098:	41 f7       	brne	.-48     	; 0x106a <beep(int)+0xe>
C:\Users\Ryan\Documents\GitHub\sport_main_code_2023/sport_menu.h:14
    buz_on;
    delay(50);
    buz_off;
    delay(50);
  }
}
    109a:	df 91       	pop	r29
    109c:	cf 91       	pop	r28
    109e:	1f 91       	pop	r17
    10a0:	0f 91       	pop	r16
    10a2:	08 95       	ret

000010a4 <AX(char, int, int)>:
AX():
C:\Users\Ryan\Documents\GitHub\sport_main_code_2023/sport_DXL2023.h:284
    delay(10); // bayad bashe hatman    hade aghal=10  // 1 bazi vaghta error mideh
               //    RXD;
}
void AX(char ID, int position, int speed)
{
    TxBuffer[0] = 0xff;
    10a4:	9f ef       	ldi	r25, 0xFF	; 255
    10a6:	90 93 68 08 	sts	0x0868, r25	; 0x800868 <TxBuffer>
C:\Users\Ryan\Documents\GitHub\sport_main_code_2023/sport_DXL2023.h:285
    TxBuffer[1] = 0xff;
    10aa:	90 93 69 08 	sts	0x0869, r25	; 0x800869 <TxBuffer+0x1>
C:\Users\Ryan\Documents\GitHub\sport_main_code_2023/sport_DXL2023.h:286
    TxBuffer[2] = ID; // ID
    10ae:	80 93 6a 08 	sts	0x086A, r24	; 0x80086a <TxBuffer+0x2>
C:\Users\Ryan\Documents\GitHub\sport_main_code_2023/sport_DXL2023.h:287
    TxBuffer[3] = 7;  // Length(Paramter=5,Instruction=1,Checksum=1)
    10b2:	87 e0       	ldi	r24, 0x07	; 7
    10b4:	80 93 6b 08 	sts	0x086B, r24	; 0x80086b <TxBuffer+0x3>
C:\Users\Ryan\Documents\GitHub\sport_main_code_2023/sport_DXL2023.h:288
    TxBuffer[4] = 3;  // bInstruction;
    10b8:	83 e0       	ldi	r24, 0x03	; 3
    10ba:	80 93 6c 08 	sts	0x086C, r24	; 0x80086c <TxBuffer+0x4>
C:\Users\Ryan\Documents\GitHub\sport_main_code_2023/sport_DXL2023.h:290

    TxBuffer[5] = 30;             // Address of position
    10be:	8e e1       	ldi	r24, 0x1E	; 30
    10c0:	80 93 6d 08 	sts	0x086D, r24	; 0x80086d <TxBuffer+0x5>
C:\Users\Ryan\Documents\GitHub\sport_main_code_2023/sport_DXL2023.h:291
    TxBuffer[6] = position & 255; // Writing Data P_GOAL_POSITION_L2
    10c4:	60 93 6e 08 	sts	0x086E, r22	; 0x80086e <TxBuffer+0x6>
C:\Users\Ryan\Documents\GitHub\sport_main_code_2023/sport_DXL2023.h:292
    TxBuffer[7] = position >> 8;  // Writing Data P_GOAL_POSITION_H
    10c8:	70 93 6f 08 	sts	0x086F, r23	; 0x80086f <TxBuffer+0x7>
C:\Users\Ryan\Documents\GitHub\sport_main_code_2023/sport_DXL2023.h:293
    TxBuffer[8] = speed & 255;    // Writing Data P_GOAL_SPEED_L2
    10cc:	40 93 70 08 	sts	0x0870, r20	; 0x800870 <TxBuffer+0x8>
C:\Users\Ryan\Documents\GitHub\sport_main_code_2023/sport_DXL2023.h:294
    TxBuffer[9] = speed >> 8;     // Writing Data P_GOAL_SPEED_H
    10d0:	50 93 71 08 	sts	0x0871, r21	; 0x800871 <TxBuffer+0x9>
_TXsend():
C:\Users\Ryan\Documents\GitHub\sport_main_code_2023/sport_DXL2023.h:262
void _TXsend(char last_TXBuffer)
{
    unsigned char CheckSum, Count;
    //    TXD;
    //    DDRD.3=1; ready to send
    send_mode;
    10d4:	61 e0       	ldi	r22, 0x01	; 1
    10d6:	86 e1       	ldi	r24, 0x16	; 22
    10d8:	0e 94 0c 02 	call	0x418	; 0x418 <digitalWrite>
    10dc:	ea e6       	ldi	r30, 0x6A	; 106
    10de:	f8 e0       	ldi	r31, 0x08	; 8
AX():
C:\Users\Ryan\Documents\GitHub\sport_main_code_2023/sport_DXL2023.h:263
    CheckSum = 0;
    10e0:	80 e0       	ldi	r24, 0x00	; 0
C:\Users\Ryan\Documents\GitHub\sport_main_code_2023/sport_DXL2023.h:264
    for (Count = 2; Count <= last_TXBuffer; Count++) // except 0xff,checksum
    10e2:	92 e0       	ldi	r25, 0x02	; 2
_TXsend():
C:\Users\Ryan\Documents\GitHub\sport_main_code_2023/sport_DXL2023.h:265
        CheckSum += TxBuffer[Count];
    10e4:	21 91       	ld	r18, Z+
    10e6:	82 0f       	add	r24, r18
C:\Users\Ryan\Documents\GitHub\sport_main_code_2023/sport_DXL2023.h:264
    unsigned char CheckSum, Count;
    //    TXD;
    //    DDRD.3=1; ready to send
    send_mode;
    CheckSum = 0;
    for (Count = 2; Count <= last_TXBuffer; Count++) // except 0xff,checksum
    10e8:	9f 5f       	subi	r25, 0xFF	; 255
    10ea:	9a 30       	cpi	r25, 0x0A	; 10
    10ec:	d9 f7       	brne	.-10     	; 0x10e4 <AX(char, int, int)+0x40>
C:\Users\Ryan\Documents\GitHub\sport_main_code_2023/sport_DXL2023.h:266
        CheckSum += TxBuffer[Count];
    TxBuffer[last_TXBuffer + 1] = ~CheckSum; // Writing Checksum with Bit Inversion
    10ee:	80 95       	com	r24
    10f0:	80 93 72 08 	sts	0x0872, r24	; 0x800872 <TxBuffer+0xa>
    10f4:	e8 e6       	ldi	r30, 0x68	; 104
    10f6:	f8 e0       	ldi	r31, 0x08	; 8
AX():
C:\Users\Ryan\Documents\GitHub\sport_main_code_2023/sport_DXL2023.h:267
    for (Count = 0; Count <= last_TXBuffer + 1; Count++)
    10f8:	80 e0       	ldi	r24, 0x00	; 0
_TXsend():
C:\Users\Ryan\Documents\GitHub\sport_main_code_2023/sport_DXL2023.h:271
    {
        // Serial1.write(TxBuffer[Count]);
        // delayMicroseconds(100);
        while (!TXD_READY)
    10fa:	90 91 9b 00 	lds	r25, 0x009B	; 0x80009b <__TEXT_REGION_LENGTH__+0x7e009b>
    10fe:	95 ff       	sbrs	r25, 5
    1100:	fc cf       	rjmp	.-8      	; 0x10fa <AX(char, int, int)+0x56>
C:\Users\Ryan\Documents\GitHub\sport_main_code_2023/sport_DXL2023.h:273
            ;
        M_UDR = TxBuffer[Count];
    1102:	91 91       	ld	r25, Z+
    1104:	90 93 9c 00 	sts	0x009C, r25	; 0x80009c <__TEXT_REGION_LENGTH__+0x7e009c>
C:\Users\Ryan\Documents\GitHub\sport_main_code_2023/sport_DXL2023.h:267
    send_mode;
    CheckSum = 0;
    for (Count = 2; Count <= last_TXBuffer; Count++) // except 0xff,checksum
        CheckSum += TxBuffer[Count];
    TxBuffer[last_TXBuffer + 1] = ~CheckSum; // Writing Checksum with Bit Inversion
    for (Count = 0; Count <= last_TXBuffer + 1; Count++)
    1108:	8f 5f       	subi	r24, 0xFF	; 255
    110a:	8b 30       	cpi	r24, 0x0B	; 11
    110c:	b1 f7       	brne	.-20     	; 0x10fa <AX(char, int, int)+0x56>
C:\Users\Ryan\Documents\GitHub\sport_main_code_2023/sport_DXL2023.h:275
        // delayMicroseconds(100);
        while (!TXD_READY)
            ;
        M_UDR = TxBuffer[Count];
    }
    while (!CHECK_TXD_FINISH)
    110e:	80 91 9b 00 	lds	r24, 0x009B	; 0x80009b <__TEXT_REGION_LENGTH__+0x7e009b>
    1112:	86 ff       	sbrs	r24, 6
    1114:	fc cf       	rjmp	.-8      	; 0x110e <__stack+0xf>
C:\Users\Ryan\Documents\GitHub\sport_main_code_2023/sport_DXL2023.h:279
        ; // Wait until TXD Shift register empty

    //    DDRD.3=0;
    delay(10); // bayad bashe hatman    hade aghal=10  // 1 bazi vaghta error mideh
    1116:	6a e0       	ldi	r22, 0x0A	; 10
    1118:	70 e0       	ldi	r23, 0x00	; 0
    111a:	80 e0       	ldi	r24, 0x00	; 0
    111c:	90 e0       	ldi	r25, 0x00	; 0
    111e:	0c 94 24 03 	jmp	0x648	; 0x648 <delay>

00001122 <move_arm(int, int)>:
move_arm():
C:\Users\Ryan\Documents\GitHub\sport_main_code_2023/sport_menu.h:15
void move_arm(int pos, int speed) {
    1122:	0f 93       	push	r16
    1124:	1f 93       	push	r17
    1126:	cf 93       	push	r28
    1128:	df 93       	push	r29
    112a:	8c 01       	movw	r16, r24
    112c:	eb 01       	movw	r28, r22
C:\Users\Ryan\Documents\GitHub\sport_main_code_2023/sport_menu.h:16
  AX(11, pos, speed);
    112e:	ab 01       	movw	r20, r22
    1130:	bc 01       	movw	r22, r24
    1132:	8b e0       	ldi	r24, 0x0B	; 11
    1134:	0e 94 52 08 	call	0x10a4	; 0x10a4 <AX(char, int, int)>
C:\Users\Ryan\Documents\GitHub\sport_main_code_2023/sport_menu.h:17
  AX(10, 1023 - pos, speed);
    1138:	6f ef       	ldi	r22, 0xFF	; 255
    113a:	73 e0       	ldi	r23, 0x03	; 3
    113c:	60 1b       	sub	r22, r16
    113e:	71 0b       	sbc	r23, r17
    1140:	ae 01       	movw	r20, r28
    1142:	8a e0       	ldi	r24, 0x0A	; 10
C:\Users\Ryan\Documents\GitHub\sport_main_code_2023/sport_menu.h:18
}
    1144:	df 91       	pop	r29
    1146:	cf 91       	pop	r28
    1148:	1f 91       	pop	r17
    114a:	0f 91       	pop	r16
C:\Users\Ryan\Documents\GitHub\sport_main_code_2023/sport_menu.h:17
    delay(50);
  }
}
void move_arm(int pos, int speed) {
  AX(11, pos, speed);
  AX(10, 1023 - pos, speed);
    114c:	0c 94 52 08 	jmp	0x10a4	; 0x10a4 <AX(char, int, int)>

00001150 <XL_Gripper(char, int, int)>:
XL_Gripper():
C:\Users\Ryan\Documents\GitHub\sport_main_code_2023/sport_DXL2023.h:151
void XL_Gripper(char ID, int position, int speed)
{
    char Count;
    unsigned short CRC;

    packet[0] = 0xFF;
    1150:	2f ef       	ldi	r18, 0xFF	; 255
    1152:	30 e0       	ldi	r19, 0x00	; 0
    1154:	30 93 3e 09 	sts	0x093E, r19	; 0x80093e <packet+0x1>
    1158:	20 93 3d 09 	sts	0x093D, r18	; 0x80093d <packet>
C:\Users\Ryan\Documents\GitHub\sport_main_code_2023/sport_DXL2023.h:152
    packet[1] = 0xFF;
    115c:	30 93 40 09 	sts	0x0940, r19	; 0x800940 <packet+0x3>
    1160:	20 93 3f 09 	sts	0x093F, r18	; 0x80093f <packet+0x2>
C:\Users\Ryan\Documents\GitHub\sport_main_code_2023/sport_DXL2023.h:153
    packet[2] = 0xFD;
    1164:	2d ef       	ldi	r18, 0xFD	; 253
    1166:	30 e0       	ldi	r19, 0x00	; 0
    1168:	30 93 42 09 	sts	0x0942, r19	; 0x800942 <packet+0x5>
    116c:	20 93 41 09 	sts	0x0941, r18	; 0x800941 <packet+0x4>
C:\Users\Ryan\Documents\GitHub\sport_main_code_2023/sport_DXL2023.h:154
    packet[3] = 0x00;                   // RESERVED
    1170:	10 92 44 09 	sts	0x0944, r1	; 0x800944 <packet+0x7>
    1174:	10 92 43 09 	sts	0x0943, r1	; 0x800943 <packet+0x6>
C:\Users\Ryan\Documents\GitHub\sport_main_code_2023/sport_DXL2023.h:155
    packet[4] = ID;                     // id
    1178:	08 2e       	mov	r0, r24
    117a:	00 0c       	add	r0, r0
    117c:	99 0b       	sbc	r25, r25
    117e:	90 93 46 09 	sts	0x0946, r25	; 0x800946 <packet+0x9>
    1182:	80 93 45 09 	sts	0x0945, r24	; 0x800945 <packet+0x8>
C:\Users\Ryan\Documents\GitHub\sport_main_code_2023/sport_DXL2023.h:156
    packet[5] = 7 + 2;                  // packet lengh L  : packet lengh after packet lengh
    1186:	89 e0       	ldi	r24, 0x09	; 9
    1188:	90 e0       	ldi	r25, 0x00	; 0
    118a:	90 93 48 09 	sts	0x0948, r25	; 0x800948 <packet+0xb>
    118e:	80 93 47 09 	sts	0x0947, r24	; 0x800947 <packet+0xa>
C:\Users\Ryan\Documents\GitHub\sport_main_code_2023/sport_DXL2023.h:157
    packet[6] = 0;                      // packet lengh H
    1192:	10 92 4a 09 	sts	0x094A, r1	; 0x80094a <packet+0xd>
    1196:	10 92 49 09 	sts	0x0949, r1	; 0x800949 <packet+0xc>
C:\Users\Ryan\Documents\GitHub\sport_main_code_2023/sport_DXL2023.h:158
    packet[7] = 3;                      // Instraction
    119a:	83 e0       	ldi	r24, 0x03	; 3
    119c:	90 e0       	ldi	r25, 0x00	; 0
    119e:	90 93 4c 09 	sts	0x094C, r25	; 0x80094c <packet+0xf>
    11a2:	80 93 4b 09 	sts	0x094B, r24	; 0x80094b <packet+0xe>
C:\Users\Ryan\Documents\GitHub\sport_main_code_2023/sport_DXL2023.h:159
    packet[8] = 30;                     // address L
    11a6:	8e e1       	ldi	r24, 0x1E	; 30
    11a8:	90 e0       	ldi	r25, 0x00	; 0
    11aa:	90 93 4e 09 	sts	0x094E, r25	; 0x80094e <packet+0x11>
    11ae:	80 93 4d 09 	sts	0x094D, r24	; 0x80094d <packet+0x10>
C:\Users\Ryan\Documents\GitHub\sport_main_code_2023/sport_DXL2023.h:160
    packet[9] = 0;                      // address H
    11b2:	10 92 50 09 	sts	0x0950, r1	; 0x800950 <packet+0x13>
    11b6:	10 92 4f 09 	sts	0x094F, r1	; 0x80094f <packet+0x12>
C:\Users\Ryan\Documents\GitHub\sport_main_code_2023/sport_DXL2023.h:161
    packet[10] = position & 255;        // parameter
    11ba:	cb 01       	movw	r24, r22
    11bc:	99 27       	eor	r25, r25
    11be:	90 93 52 09 	sts	0x0952, r25	; 0x800952 <packet+0x15>
    11c2:	80 93 51 09 	sts	0x0951, r24	; 0x800951 <packet+0x14>
C:\Users\Ryan\Documents\GitHub\sport_main_code_2023/sport_DXL2023.h:162
    packet[11] = (position >> 8) & 255; // parameter
    11c6:	70 93 53 09 	sts	0x0953, r23	; 0x800953 <packet+0x16>
    11ca:	10 92 54 09 	sts	0x0954, r1	; 0x800954 <packet+0x17>
C:\Users\Ryan\Documents\GitHub\sport_main_code_2023/sport_DXL2023.h:163
    packet[12] = speed & 255;           // parameter
    11ce:	ca 01       	movw	r24, r20
    11d0:	99 27       	eor	r25, r25
    11d2:	90 93 56 09 	sts	0x0956, r25	; 0x800956 <packet+0x19>
    11d6:	80 93 55 09 	sts	0x0955, r24	; 0x800955 <packet+0x18>
C:\Users\Ryan\Documents\GitHub\sport_main_code_2023/sport_DXL2023.h:164
    packet[13] = (speed >> 8) & 255;    // parameter
    11da:	50 93 57 09 	sts	0x0957, r21	; 0x800957 <packet+0x1a>
    11de:	10 92 58 09 	sts	0x0958, r1	; 0x800958 <packet+0x1b>
C:\Users\Ryan\Documents\GitHub\sport_main_code_2023/sport_DXL2023.h:166

    CRC = update_crc(0, packet, 14);
    11e2:	0e 94 db 00 	call	0x1b6	; 0x1b6 <update_crc(unsigned short, unsigned short*, unsigned short) [clone .constprop.32]>
C:\Users\Ryan\Documents\GitHub\sport_main_code_2023/sport_DXL2023.h:167
    packet[14] = CRC & 0xFF;        // CRC_L
    11e6:	9c 01       	movw	r18, r24
    11e8:	33 27       	eor	r19, r19
    11ea:	30 93 5a 09 	sts	0x095A, r19	; 0x80095a <packet+0x1d>
    11ee:	20 93 59 09 	sts	0x0959, r18	; 0x800959 <packet+0x1c>
C:\Users\Ryan\Documents\GitHub\sport_main_code_2023/sport_DXL2023.h:168
    packet[15] = (CRC >> 8) & 0xFF; // CRC_H
    11f2:	90 93 5b 09 	sts	0x095B, r25	; 0x80095b <packet+0x1e>
    11f6:	10 92 5c 09 	sts	0x095C, r1	; 0x80095c <packet+0x1f>
C:\Users\Ryan\Documents\GitHub\sport_main_code_2023/sport_DXL2023.h:169
    send_mode;
    11fa:	61 e0       	ldi	r22, 0x01	; 1
    11fc:	86 e1       	ldi	r24, 0x16	; 22
    11fe:	0e 94 0c 02 	call	0x418	; 0x418 <digitalWrite>
    1202:	ed e3       	ldi	r30, 0x3D	; 61
    1204:	f9 e0       	ldi	r31, 0x09	; 9
C:\Users\Ryan\Documents\GitHub\sport_main_code_2023/sport_DXL2023.h:172
    for (Count = 0; Count < 16; Count++)
    {
        while (!TXD_READY)
    1206:	80 91 9b 00 	lds	r24, 0x009B	; 0x80009b <__TEXT_REGION_LENGTH__+0x7e009b>
    120a:	85 ff       	sbrs	r24, 5
    120c:	fc cf       	rjmp	.-8      	; 0x1206 <XL_Gripper(char, int, int)+0xb6>
C:\Users\Ryan\Documents\GitHub\sport_main_code_2023/sport_DXL2023.h:174
            ;
        M_UDR = packet[Count];
    120e:	80 81       	ld	r24, Z
    1210:	32 96       	adiw	r30, 0x02	; 2
    1212:	80 93 9c 00 	sts	0x009C, r24	; 0x80009c <__TEXT_REGION_LENGTH__+0x7e009c>
C:\Users\Ryan\Documents\GitHub\sport_main_code_2023/sport_DXL2023.h:170

    CRC = update_crc(0, packet, 14);
    packet[14] = CRC & 0xFF;        // CRC_L
    packet[15] = (CRC >> 8) & 0xFF; // CRC_H
    send_mode;
    for (Count = 0; Count < 16; Count++)
    1216:	89 e0       	ldi	r24, 0x09	; 9
    1218:	ed 35       	cpi	r30, 0x5D	; 93
    121a:	f8 07       	cpc	r31, r24
    121c:	a1 f7       	brne	.-24     	; 0x1206 <XL_Gripper(char, int, int)+0xb6>
C:\Users\Ryan\Documents\GitHub\sport_main_code_2023/sport_DXL2023.h:176
    {
        while (!TXD_READY)
            ;
        M_UDR = packet[Count];
    }
    while (!CHECK_TXD_FINISH)
    121e:	80 91 9b 00 	lds	r24, 0x009B	; 0x80009b <__TEXT_REGION_LENGTH__+0x7e009b>
    1222:	86 ff       	sbrs	r24, 6
    1224:	fc cf       	rjmp	.-8      	; 0x121e <XL_Gripper(char, int, int)+0xce>
C:\Users\Ryan\Documents\GitHub\sport_main_code_2023/sport_DXL2023.h:178
        ; // Wait until TXD Shift register empty
    delay(15);
    1226:	6f e0       	ldi	r22, 0x0F	; 15
    1228:	70 e0       	ldi	r23, 0x00	; 0
    122a:	80 e0       	ldi	r24, 0x00	; 0
    122c:	90 e0       	ldi	r25, 0x00	; 0
    122e:	0c 94 24 03 	jmp	0x648	; 0x648 <delay>

00001232 <Print::printf(char const*, ...) [clone .constprop.28]>:
printf():
C:\Users\Ryan\AppData\Local\Arduino15\packages\MegaCore\hardware\avr\3.0.3\cores\MCUdude_corefiles/Print.cpp:208
{
  ((class Print *)(fdev_get_udata(fp)))->write((uint8_t)c);
  return 0;
}

int16_t Print::printf(const char *format, ...)
    1232:	cf 93       	push	r28
    1234:	df 93       	push	r29
    1236:	cd b7       	in	r28, 0x3d	; 61
    1238:	de b7       	in	r29, 0x3e	; 62
    123a:	2e 97       	sbiw	r28, 0x0e	; 14
    123c:	0f b6       	in	r0, 0x3f	; 63
    123e:	f8 94       	cli
    1240:	de bf       	out	0x3e, r29	; 62
    1242:	0f be       	out	0x3f, r0	; 63
    1244:	cd bf       	out	0x3d, r28	; 61
C:\Users\Ryan\AppData\Local\Arduino15\packages\MegaCore\hardware\avr\3.0.3\cores\MCUdude_corefiles/Print.cpp:213
{
  FILE f;
  va_list ap;

  fdev_setup_stream(&f, printf_putchar, NULL, _FDEV_SETUP_WRITE);
    1246:	84 e1       	ldi	r24, 0x14	; 20
    1248:	91 e0       	ldi	r25, 0x01	; 1
    124a:	9a 87       	std	Y+10, r25	; 0x0a
    124c:	89 87       	std	Y+9, r24	; 0x09
    124e:	1c 86       	std	Y+12, r1	; 0x0c
    1250:	1b 86       	std	Y+11, r1	; 0x0b
    1252:	82 e0       	ldi	r24, 0x02	; 2
    1254:	8c 83       	std	Y+4, r24	; 0x04
C:\Users\Ryan\AppData\Local\Arduino15\packages\MegaCore\hardware\avr\3.0.3\cores\MCUdude_corefiles/Print.cpp:214
  fdev_set_udata(&f, this);
    1256:	8f eb       	ldi	r24, 0xBF	; 191
    1258:	9a e0       	ldi	r25, 0x0A	; 10
    125a:	9e 87       	std	Y+14, r25	; 0x0e
    125c:	8d 87       	std	Y+13, r24	; 0x0d
C:\Users\Ryan\AppData\Local\Arduino15\packages\MegaCore\hardware\avr\3.0.3\cores\MCUdude_corefiles/Print.cpp:216
  va_start(ap, format);
  return vfprintf(&f, format, ap);
    125e:	ae 01       	movw	r20, r28
    1260:	49 5e       	subi	r20, 0xE9	; 233
    1262:	5f 4f       	sbci	r21, 0xFF	; 255
    1264:	6d 89       	ldd	r22, Y+21	; 0x15
    1266:	7e 89       	ldd	r23, Y+22	; 0x16
    1268:	ce 01       	movw	r24, r28
    126a:	01 96       	adiw	r24, 0x01	; 1
    126c:	0e 94 34 31 	call	0x6268	; 0x6268 <vfprintf>
C:\Users\Ryan\AppData\Local\Arduino15\packages\MegaCore\hardware\avr\3.0.3\cores\MCUdude_corefiles/Print.cpp:217
}
    1270:	2e 96       	adiw	r28, 0x0e	; 14
    1272:	0f b6       	in	r0, 0x3f	; 63
    1274:	f8 94       	cli
    1276:	de bf       	out	0x3e, r29	; 62
    1278:	0f be       	out	0x3f, r0	; 63
    127a:	cd bf       	out	0x3d, r28	; 61
    127c:	df 91       	pop	r29
    127e:	cf 91       	pop	r28
    1280:	08 95       	ret

00001282 <TwoWire::requestFrom(int, int) [clone .constprop.14]>:
requestFrom():
C:\Users\Ryan\AppData\Local\Arduino15\packages\MegaCore\hardware\avr\3.0.3\libraries\Wire\src\TwoWire/TwoWire.cpp:185
uint8_t TwoWire::requestFrom(uint8_t address, uint8_t quantity)
{
  return requestFrom((uint8_t)address, (uint8_t)quantity, (uint8_t)true);
}

uint8_t TwoWire::requestFrom(int address, int quantity)
    1282:	ac 01       	movw	r20, r24
twi_readFrom():
C:\Users\Ryan\AppData\Local\Arduino15\packages\MegaCore\hardware\avr\3.0.3\libraries\Wire\src\TwoWire\utility/twi.c:171
        twi_handleTimeout(twi_do_reset_on_timeout);
        return 0;
      }
    }
  #else
    while(TWI_READY != twi_state){
    1284:	80 91 f6 08 	lds	r24, 0x08F6	; 0x8008f6 <twi_state>
    1288:	81 11       	cpse	r24, r1
    128a:	fc cf       	rjmp	.-8      	; 0x1284 <TwoWire::requestFrom(int, int) [clone .constprop.14]+0x2>
requestFrom():
C:\Users\Ryan\AppData\Local\Arduino15\packages\MegaCore\hardware\avr\3.0.3\libraries\Wire\src\TwoWire/TwoWire.cpp:187
{
  return requestFrom((uint8_t)address, (uint8_t)quantity, (uint8_t)true);
    128c:	96 2f       	mov	r25, r22
twi_readFrom():
C:\Users\Ryan\AppData\Local\Arduino15\packages\MegaCore\hardware\avr\3.0.3\libraries\Wire\src\TwoWire\utility/twi.c:175
      continue;
    }
  #endif
  twi_state = TWI_MRX;
    128e:	81 e0       	ldi	r24, 0x01	; 1
    1290:	80 93 f6 08 	sts	0x08F6, r24	; 0x8008f6 <twi_state>
C:\Users\Ryan\AppData\Local\Arduino15\packages\MegaCore\hardware\avr\3.0.3\libraries\Wire\src\TwoWire\utility/twi.c:176
  twi_sendStop = sendStop;
    1294:	80 93 f5 08 	sts	0x08F5, r24	; 0x8008f5 <twi_sendStop>
C:\Users\Ryan\AppData\Local\Arduino15\packages\MegaCore\hardware\avr\3.0.3\libraries\Wire\src\TwoWire\utility/twi.c:178
  // reset error state (0xFF.. no error occurred)
  twi_error = 0xFF;
    1298:	2f ef       	ldi	r18, 0xFF	; 255
    129a:	20 93 f4 08 	sts	0x08F4, r18	; 0x8008f4 <twi_error>
C:\Users\Ryan\AppData\Local\Arduino15\packages\MegaCore\hardware\avr\3.0.3\libraries\Wire\src\TwoWire\utility/twi.c:181

  // initialize buffer iteration vars
  twi_masterBuffer = data;
    129e:	2b e1       	ldi	r18, 0x1B	; 27
    12a0:	39 e0       	ldi	r19, 0x09	; 9
    12a2:	30 93 f3 08 	sts	0x08F3, r19	; 0x8008f3 <twi_masterBuffer+0x1>
    12a6:	20 93 f2 08 	sts	0x08F2, r18	; 0x8008f2 <twi_masterBuffer>
C:\Users\Ryan\AppData\Local\Arduino15\packages\MegaCore\hardware\avr\3.0.3\libraries\Wire\src\TwoWire\utility/twi.c:182
  twi_masterBufferIndex = 0;
    12aa:	10 92 f1 08 	sts	0x08F1, r1	; 0x8008f1 <twi_masterBufferIndex>
C:\Users\Ryan\AppData\Local\Arduino15\packages\MegaCore\hardware\avr\3.0.3\libraries\Wire\src\TwoWire\utility/twi.c:183
  twi_masterBufferLength = length-1;  // This is not intuitive, read on...
    12ae:	2f ef       	ldi	r18, 0xFF	; 255
    12b0:	26 0f       	add	r18, r22
    12b2:	20 93 f0 08 	sts	0x08F0, r18	; 0x8008f0 <twi_masterBufferLength>
C:\Users\Ryan\AppData\Local\Arduino15\packages\MegaCore\hardware\avr\3.0.3\libraries\Wire\src\TwoWire\utility/twi.c:191
  // Therefore we must actually set NACK when the _next_ to last byte is
  // received, causing that NACK to be sent in response to receiving the last
  // expected byte of data.

  // build sla+w, slave device address + w bit
  twi_slarw = TW_READ;
    12b6:	80 93 ef 08 	sts	0x08EF, r24	; 0x8008ef <twi_slarw>
C:\Users\Ryan\AppData\Local\Arduino15\packages\MegaCore\hardware\avr\3.0.3\libraries\Wire\src\TwoWire\utility/twi.c:192
  twi_slarw |= address << 1;
    12ba:	20 91 ef 08 	lds	r18, 0x08EF	; 0x8008ef <twi_slarw>
    12be:	44 0f       	add	r20, r20
    12c0:	55 1f       	adc	r21, r21
    12c2:	82 2f       	mov	r24, r18
    12c4:	84 2b       	or	r24, r20
    12c6:	80 93 ef 08 	sts	0x08EF, r24	; 0x8008ef <twi_slarw>
C:\Users\Ryan\AppData\Local\Arduino15\packages\MegaCore\hardware\avr\3.0.3\libraries\Wire\src\TwoWire\utility/twi.c:194

  if (true == twi_inRepStart) {
    12ca:	80 91 ee 08 	lds	r24, 0x08EE	; 0x8008ee <twi_inRepStart>
    12ce:	81 30       	cpi	r24, 0x01	; 1
    12d0:	e9 f4       	brne	.+58     	; 0x130c <TwoWire::requestFrom(int, int) [clone .constprop.14]+0x8a>
C:\Users\Ryan\AppData\Local\Arduino15\packages\MegaCore\hardware\avr\3.0.3\libraries\Wire\src\TwoWire\utility/twi.c:201
    // (@@@ we hope), and the TWI statemachine is just waiting for the address byte.
    // We need to remove ourselves from the repeated start state before we enable interrupts,
    // since the ISR is ASYNC, and we could get confused if we hit the ISR before cleaning
    // up. Also, don't enable the START interrupt. There may be one pending from the
    // repeated start that we sent ourselves, and that would really confuse things.
    twi_inRepStart = false; // Remember, we're dealing with an ASYNC ISR
    12d2:	10 92 ee 08 	sts	0x08EE, r1	; 0x8008ee <twi_inRepStart>
C:\Users\Ryan\AppData\Local\Arduino15\packages\MegaCore\hardware\avr\3.0.3\libraries\Wire\src\TwoWire\utility/twi.c:213
          return 0;
        }
      } while(TWCR & _BV(TWWC));
    #else
      do {
        TWDR = twi_slarw;
    12d6:	80 91 ef 08 	lds	r24, 0x08EF	; 0x8008ef <twi_slarw>
    12da:	80 93 73 00 	sts	0x0073, r24	; 0x800073 <__TEXT_REGION_LENGTH__+0x7e0073>
C:\Users\Ryan\AppData\Local\Arduino15\packages\MegaCore\hardware\avr\3.0.3\libraries\Wire\src\TwoWire\utility/twi.c:214
      } while(TWCR & _BV(TWWC));
    12de:	80 91 74 00 	lds	r24, 0x0074	; 0x800074 <__TEXT_REGION_LENGTH__+0x7e0074>
    12e2:	83 fd       	sbrc	r24, 3
    12e4:	f8 cf       	rjmp	.-16     	; 0x12d6 <TwoWire::requestFrom(int, int) [clone .constprop.14]+0x54>
C:\Users\Ryan\AppData\Local\Arduino15\packages\MegaCore\hardware\avr\3.0.3\libraries\Wire\src\TwoWire\utility/twi.c:216
    #endif
    TWCR = _BV(TWINT) | _BV(TWEA) | _BV(TWEN) | _BV(TWIE);  // enable INTs, but not START
    12e6:	85 ec       	ldi	r24, 0xC5	; 197
C:\Users\Ryan\AppData\Local\Arduino15\packages\MegaCore\hardware\avr\3.0.3\libraries\Wire\src\TwoWire\utility/twi.c:220
  }
  else
    // send start condition
    TWCR = _BV(TWEN) | _BV(TWIE) | _BV(TWEA) | _BV(TWINT) | _BV(TWSTA);
    12e8:	80 93 74 00 	sts	0x0074, r24	; 0x800074 <__TEXT_REGION_LENGTH__+0x7e0074>
C:\Users\Ryan\AppData\Local\Arduino15\packages\MegaCore\hardware\avr\3.0.3\libraries\Wire\src\TwoWire\utility/twi.c:232
        twi_handleTimeout(twi_do_reset_on_timeout);
        return 0;
      }
    }
  #else
    while(TWI_MRX == twi_state){
    12ec:	80 91 f6 08 	lds	r24, 0x08F6	; 0x8008f6 <twi_state>
    12f0:	81 30       	cpi	r24, 0x01	; 1
    12f2:	e1 f3       	breq	.-8      	; 0x12ec <TwoWire::requestFrom(int, int) [clone .constprop.14]+0x6a>
C:\Users\Ryan\AppData\Local\Arduino15\packages\MegaCore\hardware\avr\3.0.3\libraries\Wire\src\TwoWire\utility/twi.c:237
      continue;
    }
  #endif

  if (twi_masterBufferIndex < length)
    12f4:	80 91 f1 08 	lds	r24, 0x08F1	; 0x8008f1 <twi_masterBufferIndex>
    12f8:	86 17       	cp	r24, r22
    12fa:	10 f4       	brcc	.+4      	; 0x1300 <TwoWire::requestFrom(int, int) [clone .constprop.14]+0x7e>
C:\Users\Ryan\AppData\Local\Arduino15\packages\MegaCore\hardware\avr\3.0.3\libraries\Wire\src\TwoWire\utility/twi.c:238
    length = twi_masterBufferIndex;
    12fc:	90 91 f1 08 	lds	r25, 0x08F1	; 0x8008f1 <twi_masterBufferIndex>
requestFrom():
C:\Users\Ryan\AppData\Local\Arduino15\packages\MegaCore\hardware\avr\3.0.3\libraries\Wire\src\TwoWire/TwoWire.cpp:122
    quantity = TWI_BUFFER_SIZE;
  }
  // perform blocking read into buffer
  uint8_t read = twi_readFrom(address, rxBuffer, quantity, sendStop);
  // set rx buffer iterator vars
  rxBufferIndex = 0;
    1300:	10 92 3c 09 	sts	0x093C, r1	; 0x80093c <TwoWire::rxBufferIndex>
C:\Users\Ryan\AppData\Local\Arduino15\packages\MegaCore\hardware\avr\3.0.3\libraries\Wire\src\TwoWire/TwoWire.cpp:123
  rxBufferLength = read;
    1304:	90 93 3b 09 	sts	0x093B, r25	; 0x80093b <TwoWire::rxBufferLength>
C:\Users\Ryan\AppData\Local\Arduino15\packages\MegaCore\hardware\avr\3.0.3\libraries\Wire\src\TwoWire/TwoWire.cpp:188
}

uint8_t TwoWire::requestFrom(int address, int quantity)
{
  return requestFrom((uint8_t)address, (uint8_t)quantity, (uint8_t)true);
}
    1308:	89 2f       	mov	r24, r25
    130a:	08 95       	ret
twi_readFrom():
C:\Users\Ryan\AppData\Local\Arduino15\packages\MegaCore\hardware\avr\3.0.3\libraries\Wire\src\TwoWire\utility/twi.c:220
    #endif
    TWCR = _BV(TWINT) | _BV(TWEA) | _BV(TWEN) | _BV(TWIE);  // enable INTs, but not START
  }
  else
    // send start condition
    TWCR = _BV(TWEN) | _BV(TWIE) | _BV(TWEA) | _BV(TWINT) | _BV(TWSTA);
    130c:	85 ee       	ldi	r24, 0xE5	; 229
    130e:	ec cf       	rjmp	.-40     	; 0x12e8 <TwoWire::requestFrom(int, int) [clone .constprop.14]+0x66>

00001310 <Print::printNumber(unsigned long, unsigned char) [clone .constprop.8]>:
printNumber():
C:\Users\Ryan\AppData\Local\Arduino15\packages\MegaCore\hardware\avr\3.0.3\cores\MCUdude_corefiles/Print.cpp:232
  return vfprintf_P(&f, (const char *)format, ap);
}

// Private Methods /////////////////////////////////////////////////////////////

size_t Print::printNumber(unsigned long n, uint8_t base)
    1310:	8f 92       	push	r8
    1312:	9f 92       	push	r9
    1314:	af 92       	push	r10
    1316:	bf 92       	push	r11
    1318:	0f 93       	push	r16
    131a:	1f 93       	push	r17
    131c:	cf 93       	push	r28
    131e:	df 93       	push	r29
    1320:	cd b7       	in	r28, 0x3d	; 61
    1322:	de b7       	in	r29, 0x3e	; 62
    1324:	a1 97       	sbiw	r28, 0x21	; 33
    1326:	0f b6       	in	r0, 0x3f	; 63
    1328:	f8 94       	cli
    132a:	de bf       	out	0x3e, r29	; 62
    132c:	0f be       	out	0x3f, r0	; 63
    132e:	cd bf       	out	0x3d, r28	; 61
C:\Users\Ryan\AppData\Local\Arduino15\packages\MegaCore\hardware\avr\3.0.3\cores\MCUdude_corefiles/Print.cpp:237
{
  char buf[8 * sizeof(long) + 1]; // Assumes 8-bit chars plus zero byte.
  char *str = &buf[sizeof(buf) - 1];

  *str = '\0';
    1330:	19 a2       	std	Y+33, r1	; 0x21
C:\Users\Ryan\AppData\Local\Arduino15\packages\MegaCore\hardware\avr\3.0.3\cores\MCUdude_corefiles/Print.cpp:240

  // prevent crash if called with base == 1
  if (base < 2) base = 10;
    1332:	42 30       	cpi	r20, 0x02	; 2
    1334:	08 f4       	brcc	.+2      	; 0x1338 <Print::printNumber(unsigned long, unsigned char) [clone .constprop.8]+0x28>
    1336:	4a e0       	ldi	r20, 0x0A	; 10
    1338:	8e 01       	movw	r16, r28
    133a:	0f 5d       	subi	r16, 0xDF	; 223
    133c:	1f 4f       	sbci	r17, 0xFF	; 255
C:\Users\Ryan\AppData\Local\Arduino15\packages\MegaCore\hardware\avr\3.0.3\cores\MCUdude_corefiles/Print.cpp:243

  do {
    char c = n % base;
    133e:	84 2e       	mov	r8, r20
    1340:	91 2c       	mov	r9, r1
    1342:	b1 2c       	mov	r11, r1
    1344:	a1 2c       	mov	r10, r1
    1346:	a5 01       	movw	r20, r10
    1348:	94 01       	movw	r18, r8
    134a:	0e 94 e4 35 	call	0x6bc8	; 0x6bc8 <__udivmodsi4>
    134e:	e6 2f       	mov	r30, r22
C:\Users\Ryan\AppData\Local\Arduino15\packages\MegaCore\hardware\avr\3.0.3\cores\MCUdude_corefiles/Print.cpp:244
    n /= base;
    1350:	b9 01       	movw	r22, r18
    1352:	ca 01       	movw	r24, r20
C:\Users\Ryan\AppData\Local\Arduino15\packages\MegaCore\hardware\avr\3.0.3\cores\MCUdude_corefiles/Print.cpp:246

    *--str = c < 10 ? c + '0' : c + 'A' - 10;
    1354:	ea 30       	cpi	r30, 0x0A	; 10
    1356:	44 f5       	brge	.+80     	; 0x13a8 <Print::printNumber(unsigned long, unsigned char) [clone .constprop.8]+0x98>
    1358:	e0 5d       	subi	r30, 0xD0	; 208
    135a:	d8 01       	movw	r26, r16
    135c:	ee 93       	st	-X, r30
    135e:	8d 01       	movw	r16, r26
C:\Users\Ryan\AppData\Local\Arduino15\packages\MegaCore\hardware\avr\3.0.3\cores\MCUdude_corefiles/Print.cpp:247
  } while(n);
    1360:	23 2b       	or	r18, r19
    1362:	24 2b       	or	r18, r20
    1364:	25 2b       	or	r18, r21
    1366:	79 f7       	brne	.-34     	; 0x1346 <Print::printNumber(unsigned long, unsigned char) [clone .constprop.8]+0x36>
C:\Users\Ryan\AppData\Local\Arduino15\packages\MegaCore\hardware\avr\3.0.3\cores\MCUdude_corefiles/Print.h:53
    int getWriteError() { return write_error; }
    void clearWriteError() { setWriteError(0); }

    virtual size_t write(uint8_t) = 0;
    size_t write(const char *str) {
      if (str == NULL) return 0;
    1368:	90 e0       	ldi	r25, 0x00	; 0
    136a:	80 e0       	ldi	r24, 0x00	; 0
write():
    136c:	10 97       	sbiw	r26, 0x00	; 0
    136e:	69 f0       	breq	.+26     	; 0x138a <Print::printNumber(unsigned long, unsigned char) [clone .constprop.8]+0x7a>
C:\Users\Ryan\AppData\Local\Arduino15\packages\MegaCore\hardware\avr\3.0.3\cores\MCUdude_corefiles/Print.h:54
      return write((const uint8_t *)str, strlen(str));
    1370:	fd 01       	movw	r30, r26
    1372:	01 90       	ld	r0, Z+
    1374:	00 20       	and	r0, r0
    1376:	e9 f7       	brne	.-6      	; 0x1372 <Print::printNumber(unsigned long, unsigned char) [clone .constprop.8]+0x62>
    1378:	31 97       	sbiw	r30, 0x01	; 1
    137a:	af 01       	movw	r20, r30
    137c:	4a 1b       	sub	r20, r26
    137e:	5b 0b       	sbc	r21, r27
    1380:	bd 01       	movw	r22, r26
    1382:	8f eb       	ldi	r24, 0xBF	; 191
    1384:	9a e0       	ldi	r25, 0x0A	; 10
    1386:	0e 94 58 03 	call	0x6b0	; 0x6b0 <Print::write(unsigned char const*, unsigned int)>
printNumber():
C:\Users\Ryan\AppData\Local\Arduino15\packages\MegaCore\hardware\avr\3.0.3\cores\MCUdude_corefiles/Print.cpp:250

  return write(str);
}
    138a:	a1 96       	adiw	r28, 0x21	; 33
    138c:	0f b6       	in	r0, 0x3f	; 63
    138e:	f8 94       	cli
    1390:	de bf       	out	0x3e, r29	; 62
    1392:	0f be       	out	0x3f, r0	; 63
    1394:	cd bf       	out	0x3d, r28	; 61
    1396:	df 91       	pop	r29
    1398:	cf 91       	pop	r28
    139a:	1f 91       	pop	r17
    139c:	0f 91       	pop	r16
    139e:	bf 90       	pop	r11
    13a0:	af 90       	pop	r10
    13a2:	9f 90       	pop	r9
    13a4:	8f 90       	pop	r8
    13a6:	08 95       	ret
C:\Users\Ryan\AppData\Local\Arduino15\packages\MegaCore\hardware\avr\3.0.3\cores\MCUdude_corefiles/Print.cpp:246

  do {
    char c = n % base;
    n /= base;

    *--str = c < 10 ? c + '0' : c + 'A' - 10;
    13a8:	e9 5c       	subi	r30, 0xC9	; 201
    13aa:	d7 cf       	rjmp	.-82     	; 0x135a <Print::printNumber(unsigned long, unsigned char) [clone .constprop.8]+0x4a>

000013ac <Print::print(int, int) [clone .constprop.4]>:
print():
C:\Users\Ryan\AppData\Local\Arduino15\packages\MegaCore\hardware\avr\3.0.3\cores\MCUdude_corefiles/Print.cpp:77
size_t Print::print(unsigned char b, int base)
{
  return print((unsigned long) b, base);
}

size_t Print::print(int n, int base)
    13ac:	cf 92       	push	r12
    13ae:	df 92       	push	r13
    13b0:	ef 92       	push	r14
    13b2:	ff 92       	push	r15
C:\Users\Ryan\AppData\Local\Arduino15\packages\MegaCore\hardware\avr\3.0.3\cores\MCUdude_corefiles/Print.cpp:79
{
  return print((long) n, base);
    13b4:	6c 01       	movw	r12, r24
    13b6:	99 0f       	add	r25, r25
    13b8:	ee 08       	sbc	r14, r14
    13ba:	ff 08       	sbc	r15, r15
C:\Users\Ryan\AppData\Local\Arduino15\packages\MegaCore\hardware\avr\3.0.3\cores\MCUdude_corefiles/Print.cpp:92
size_t Print::print(long n, int base)
{
  if (base == 0) {
    return write(n);
  } else if (base == 10) {
    if (n < 0) {
    13bc:	f7 fe       	sbrs	r15, 7
    13be:	16 c0       	rjmp	.+44     	; 0x13ec <Print::print(int, int) [clone .constprop.4]+0x40>
write():
C:\Users\Ryan\AppData\Local\Arduino15\libraries\LiquidCrystal\src/LiquidCrystal.cpp:280
inline void LiquidCrystal::command(uint8_t value) {
  send(value, LOW);
}

inline size_t LiquidCrystal::write(uint8_t value) {
  send(value, HIGH);
    13c0:	41 e0       	ldi	r20, 0x01	; 1
    13c2:	6d e2       	ldi	r22, 0x2D	; 45
    13c4:	8f eb       	ldi	r24, 0xBF	; 191
    13c6:	9a e0       	ldi	r25, 0x0A	; 10
    13c8:	0e 94 66 05 	call	0xacc	; 0xacc <LiquidCrystal::send(unsigned char, unsigned char)>
print():
C:\Users\Ryan\AppData\Local\Arduino15\packages\MegaCore\hardware\avr\3.0.3\cores\MCUdude_corefiles/Print.cpp:94
      int t = print('-');
      n = -n;
    13cc:	66 27       	eor	r22, r22
    13ce:	77 27       	eor	r23, r23
    13d0:	cb 01       	movw	r24, r22
    13d2:	6c 19       	sub	r22, r12
    13d4:	7d 09       	sbc	r23, r13
    13d6:	8e 09       	sbc	r24, r14
    13d8:	9f 09       	sbc	r25, r15
C:\Users\Ryan\AppData\Local\Arduino15\packages\MegaCore\hardware\avr\3.0.3\cores\MCUdude_corefiles/Print.cpp:95
      return printNumber(n, 10) + t;
    13da:	4a e0       	ldi	r20, 0x0A	; 10
    13dc:	0e 94 88 09 	call	0x1310	; 0x1310 <Print::printNumber(unsigned long, unsigned char) [clone .constprop.8]>
    13e0:	01 96       	adiw	r24, 0x01	; 1
C:\Users\Ryan\AppData\Local\Arduino15\packages\MegaCore\hardware\avr\3.0.3\cores\MCUdude_corefiles/Print.cpp:80
}

size_t Print::print(int n, int base)
{
  return print((long) n, base);
}
    13e2:	ff 90       	pop	r15
    13e4:	ef 90       	pop	r14
    13e6:	df 90       	pop	r13
    13e8:	cf 90       	pop	r12
    13ea:	08 95       	ret
C:\Users\Ryan\AppData\Local\Arduino15\packages\MegaCore\hardware\avr\3.0.3\cores\MCUdude_corefiles/Print.cpp:97
    if (n < 0) {
      int t = print('-');
      n = -n;
      return printNumber(n, 10) + t;
    }
    return printNumber(n, 10);
    13ec:	4a e0       	ldi	r20, 0x0A	; 10
    13ee:	c7 01       	movw	r24, r14
    13f0:	b6 01       	movw	r22, r12
C:\Users\Ryan\AppData\Local\Arduino15\packages\MegaCore\hardware\avr\3.0.3\cores\MCUdude_corefiles/Print.cpp:80
}

size_t Print::print(int n, int base)
{
  return print((long) n, base);
}
    13f2:	ff 90       	pop	r15
    13f4:	ef 90       	pop	r14
    13f6:	df 90       	pop	r13
    13f8:	cf 90       	pop	r12
C:\Users\Ryan\AppData\Local\Arduino15\packages\MegaCore\hardware\avr\3.0.3\cores\MCUdude_corefiles/Print.cpp:97
    if (n < 0) {
      int t = print('-');
      n = -n;
      return printNumber(n, 10) + t;
    }
    return printNumber(n, 10);
    13fa:	0c 94 88 09 	jmp	0x1310	; 0x1310 <Print::printNumber(unsigned long, unsigned char) [clone .constprop.8]>

000013fe <Print::print(char const*) [clone .constprop.9]>:
write():
C:\Users\Ryan\AppData\Local\Arduino15\packages\MegaCore\hardware\avr\3.0.3\cores\MCUdude_corefiles/Print.h:54
    13fe:	fc 01       	movw	r30, r24
    1400:	01 90       	ld	r0, Z+
    1402:	00 20       	and	r0, r0
    1404:	e9 f7       	brne	.-6      	; 0x1400 <Print::print(char const*) [clone .constprop.9]+0x2>
    1406:	31 97       	sbiw	r30, 0x01	; 1
    1408:	af 01       	movw	r20, r30
    140a:	48 1b       	sub	r20, r24
    140c:	59 0b       	sbc	r21, r25
    140e:	bc 01       	movw	r22, r24
    1410:	8f eb       	ldi	r24, 0xBF	; 191
    1412:	9a e0       	ldi	r25, 0x0A	; 10
    1414:	0c 94 58 03 	jmp	0x6b0	; 0x6b0 <Print::write(unsigned char const*, unsigned int)>

00001418 <EEPROM_write_int(int, int)>:
EEPROM_write_int():
C:\Users\Ryan\Documents\GitHub\sport_main_code_2023/sport_menu.h:194
    analogWrite(5, -right);
  }
}


void EEPROM_write_int(int address, int number) {
    1418:	1f 93       	push	r17
    141a:	cf 93       	push	r28
    141c:	df 93       	push	r29
    141e:	ec 01       	movw	r28, r24
    1420:	16 2f       	mov	r17, r22
    1422:	67 2f       	mov	r22, r23
operator=():
C:\Users\Ryan\AppData\Local\Arduino15\packages\MegaCore\hardware\avr\3.0.3\libraries\EEPROM\src/EEPROM.h:47
    uint8_t operator*() const            { return eeprom_read_byte( (uint8_t*) index ); }
    operator uint8_t() const             { return **this; }

    //Assignment/write members.
    EERef &operator=( const EERef &ref ) { return *this = *ref; }
    EERef &operator=( uint8_t in )       { return eeprom_write_byte( (uint8_t*) index, in ), *this;  }
    1424:	0e 94 e3 33 	call	0x67c6	; 0x67c6 <eeprom_write_byte>
    1428:	61 2f       	mov	r22, r17
    142a:	ce 01       	movw	r24, r28
    142c:	01 96       	adiw	r24, 0x01	; 1
EEPROM_write_int():
C:\Users\Ryan\Documents\GitHub\sport_main_code_2023/sport_menu.h:197
  EEPROM.write(address, number >> 8);
  EEPROM.write(address + 1, number & 0xFF);
}
    142e:	df 91       	pop	r29
    1430:	cf 91       	pop	r28
    1432:	1f 91       	pop	r17
operator=():
C:\Users\Ryan\AppData\Local\Arduino15\packages\MegaCore\hardware\avr\3.0.3\libraries\EEPROM\src/EEPROM.h:47
    1434:	0c 94 e3 33 	jmp	0x67c6	; 0x67c6 <eeprom_write_byte>

00001438 <EEPROM_read_int(int)>:
EEPROM_read_int():
C:\Users\Ryan\Documents\GitHub\sport_main_code_2023/sport_menu.h:199

int EEPROM_read_int(int address) {
    1438:	0f 93       	push	r16
    143a:	1f 93       	push	r17
    143c:	cf 93       	push	r28
    143e:	8c 01       	movw	r16, r24
operator*():
C:\Users\Ryan\AppData\Local\Arduino15\packages\MegaCore\hardware\avr\3.0.3\libraries\EEPROM\src/EEPROM.h:42

    EERef( const int index )
        : index( index )                 {}

    //Access/read members.
    uint8_t operator*() const            { return eeprom_read_byte( (uint8_t*) index ); }
    1440:	0e 94 db 33 	call	0x67b6	; 0x67b6 <eeprom_read_byte>
    1444:	c8 2f       	mov	r28, r24
    1446:	c8 01       	movw	r24, r16
    1448:	01 96       	adiw	r24, 0x01	; 1
    144a:	0e 94 db 33 	call	0x67b6	; 0x67b6 <eeprom_read_byte>
EEPROM_read_int():
C:\Users\Ryan\Documents\GitHub\sport_main_code_2023/sport_menu.h:201
  int result = 0;
  result = (EEPROM.read(address) << 8) + EEPROM.read(address + 1);
    144e:	2c 2f       	mov	r18, r28
    1450:	30 e0       	ldi	r19, 0x00	; 0
    1452:	32 2f       	mov	r19, r18
    1454:	22 27       	eor	r18, r18
C:\Users\Ryan\Documents\GitHub\sport_main_code_2023/sport_menu.h:203
  return result;
}
    1456:	82 0f       	add	r24, r18
    1458:	93 2f       	mov	r25, r19
    145a:	91 1d       	adc	r25, r1
    145c:	cf 91       	pop	r28
    145e:	1f 91       	pop	r17
    1460:	0f 91       	pop	r16
    1462:	08 95       	ret

00001464 <color(char)>:
color():
C:\Users\Ryan\Documents\GitHub\sport_main_code_2023/sport_menu.h:289
    delay(1000);
  }
  delay(500);
}

char color(char select) {
    1464:	af 92       	push	r10
    1466:	bf 92       	push	r11
    1468:	cf 92       	push	r12
    146a:	df 92       	push	r13
    146c:	ef 92       	push	r14
    146e:	ff 92       	push	r15
    1470:	0f 93       	push	r16
    1472:	1f 93       	push	r17
    1474:	cf 93       	push	r28
    1476:	df 93       	push	r29
    1478:	d8 2e       	mov	r13, r24
C:\Users\Ryan\Documents\GitHub\sport_main_code_2023/sport_menu.h:291
  unsigned char low_byte, high_byte;
  if (select == 1)  // left
    147a:	81 e0       	ldi	r24, 0x01	; 1
    147c:	d8 12       	cpse	r13, r24
    147e:	f5 c0       	rjmp	.+490    	; 0x166a <color(char)+0x206>
C:\Users\Ryan\Documents\GitHub\sport_main_code_2023/sport_menu.h:293
  {
    digitalWrite(MUX_C, LOW);
    1480:	60 e0       	ldi	r22, 0x00	; 0
    1482:	8a e2       	ldi	r24, 0x2A	; 42
    1484:	0e 94 0c 02 	call	0x418	; 0x418 <digitalWrite>
C:\Users\Ryan\Documents\GitHub\sport_main_code_2023/sport_menu.h:294
    digitalWrite(MUX_B, LOW);
    1488:	60 e0       	ldi	r22, 0x00	; 0
    148a:	8b e2       	ldi	r24, 0x2B	; 43
    148c:	0e 94 0c 02 	call	0x418	; 0x418 <digitalWrite>
C:\Users\Ryan\Documents\GitHub\sport_main_code_2023/sport_menu.h:295
    digitalWrite(MUX_A, LOW);
    1490:	60 e0       	ldi	r22, 0x00	; 0
C:\Users\Ryan\Documents\GitHub\sport_main_code_2023/sport_menu.h:301
    //  Serial.print("left color:  ");
  } else if (select == 2)  // right
  {
    digitalWrite(MUX_C, LOW);
    digitalWrite(MUX_B, LOW);
    digitalWrite(MUX_A, HIGH);
    1492:	8c e2       	ldi	r24, 0x2C	; 44
C:\Users\Ryan\Documents\GitHub\sport_main_code_2023/sport_menu.h:306
    //  Serial.print("right color:  ");
  } else {
    digitalWrite(MUX_A, HIGH);  //front
    digitalWrite(MUX_B, HIGH);
    digitalWrite(MUX_C, LOW);
    1494:	0e 94 0c 02 	call	0x418	; 0x418 <digitalWrite>
C:\Users\Ryan\Documents\GitHub\sport_main_code_2023/sport_menu.h:308
  }
  delayMicroseconds(10);
    1498:	8a e0       	ldi	r24, 0x0A	; 10
    149a:	90 e0       	ldi	r25, 0x00	; 0
    149c:	0e 94 f3 02 	call	0x5e6	; 0x5e6 <delayMicroseconds>
beginTransmission():
C:\Users\Ryan\AppData\Local\Arduino15\packages\MegaCore\hardware\avr\3.0.3\libraries\Wire\src\TwoWire/TwoWire.cpp:208
  txBufferLength = 0;
}

void TwoWire::beginTransmission(int address)
{
  beginTransmission((uint8_t)address);
    14a0:	89 e3       	ldi	r24, 0x39	; 57
    14a2:	0e 94 a1 01 	call	0x342	; 0x342 <TwoWire::beginTransmission(unsigned char) [clone .constprop.17]>
color():
C:\Users\Ryan\Documents\GitHub\sport_main_code_2023/sport_menu.h:311

  Wire.beginTransmission(57);  // transmit to device #57 (0x39)
  Wire.write(byte(0x80));
    14a6:	60 e8       	ldi	r22, 0x80	; 128
    14a8:	83 eb       	ldi	r24, 0xB3	; 179
    14aa:	9a e0       	ldi	r25, 0x0A	; 10
    14ac:	0e 94 ed 04 	call	0x9da	; 0x9da <TwoWire::write(unsigned char)>
C:\Users\Ryan\Documents\GitHub\sport_main_code_2023/sport_menu.h:312
  Wire.write(byte(3));  // power
    14b0:	63 e0       	ldi	r22, 0x03	; 3
    14b2:	83 eb       	ldi	r24, 0xB3	; 179
    14b4:	9a e0       	ldi	r25, 0x0A	; 10
    14b6:	0e 94 ed 04 	call	0x9da	; 0x9da <TwoWire::write(unsigned char)>
C:\Users\Ryan\Documents\GitHub\sport_main_code_2023/sport_menu.h:313
  Wire.endTransmission();
    14ba:	0e 94 ab 01 	call	0x356	; 0x356 <TwoWire::endTransmission() [clone .constprop.13]>
beginTransmission():
C:\Users\Ryan\AppData\Local\Arduino15\packages\MegaCore\hardware\avr\3.0.3\libraries\Wire\src\TwoWire/TwoWire.cpp:208
    14be:	89 e3       	ldi	r24, 0x39	; 57
    14c0:	0e 94 a1 01 	call	0x342	; 0x342 <TwoWire::beginTransmission(unsigned char) [clone .constprop.17]>
color():
C:\Users\Ryan\Documents\GitHub\sport_main_code_2023/sport_menu.h:316

  Wire.beginTransmission(57);  // transmit to device #57 (0x39)
  Wire.write(byte(0x8F));
    14c4:	6f e8       	ldi	r22, 0x8F	; 143
    14c6:	83 eb       	ldi	r24, 0xB3	; 179
    14c8:	9a e0       	ldi	r25, 0x0A	; 10
    14ca:	0e 94 ed 04 	call	0x9da	; 0x9da <TwoWire::write(unsigned char)>
C:\Users\Ryan\Documents\GitHub\sport_main_code_2023/sport_menu.h:317
  Wire.write(byte(1));  // gain
    14ce:	61 e0       	ldi	r22, 0x01	; 1
    14d0:	83 eb       	ldi	r24, 0xB3	; 179
    14d2:	9a e0       	ldi	r25, 0x0A	; 10
    14d4:	0e 94 ed 04 	call	0x9da	; 0x9da <TwoWire::write(unsigned char)>
C:\Users\Ryan\Documents\GitHub\sport_main_code_2023/sport_menu.h:318
  Wire.endTransmission();
    14d8:	0e 94 ab 01 	call	0x356	; 0x356 <TwoWire::endTransmission() [clone .constprop.13]>
beginTransmission():
C:\Users\Ryan\AppData\Local\Arduino15\packages\MegaCore\hardware\avr\3.0.3\libraries\Wire\src\TwoWire/TwoWire.cpp:208
    14dc:	89 e3       	ldi	r24, 0x39	; 57
    14de:	0e 94 a1 01 	call	0x342	; 0x342 <TwoWire::beginTransmission(unsigned char) [clone .constprop.17]>
color():
C:\Users\Ryan\Documents\GitHub\sport_main_code_2023/sport_menu.h:321

  Wire.beginTransmission(57);  // transmit to device #57 (0x39)
  Wire.write(byte(0x94));      // address of first data
    14e2:	64 e9       	ldi	r22, 0x94	; 148
    14e4:	83 eb       	ldi	r24, 0xB3	; 179
    14e6:	9a e0       	ldi	r25, 0x0A	; 10
    14e8:	0e 94 ed 04 	call	0x9da	; 0x9da <TwoWire::write(unsigned char)>
C:\Users\Ryan\Documents\GitHub\sport_main_code_2023/sport_menu.h:322
  Wire.endTransmission();
    14ec:	0e 94 ab 01 	call	0x356	; 0x356 <TwoWire::endTransmission() [clone .constprop.13]>
C:\Users\Ryan\Documents\GitHub\sport_main_code_2023/sport_menu.h:324

  Wire.requestFrom(57, 8);
    14f0:	68 e0       	ldi	r22, 0x08	; 8
    14f2:	70 e0       	ldi	r23, 0x00	; 0
    14f4:	89 e3       	ldi	r24, 0x39	; 57
    14f6:	90 e0       	ldi	r25, 0x00	; 0
    14f8:	0e 94 41 09 	call	0x1282	; 0x1282 <TwoWire::requestFrom(int, int) [clone .constprop.14]>
available():
C:\Users\Ryan\AppData\Local\Arduino15\packages\MegaCore\hardware\avr\3.0.3\libraries\Wire\src\TwoWire/TwoWire.cpp:292
// must be called in:
// slave rx event callback
// or after requestFrom(address, numBytes)
int TwoWire::available(void)
{
  return rxBufferLength - rxBufferIndex;
    14fc:	80 91 3b 09 	lds	r24, 0x093B	; 0x80093b <TwoWire::rxBufferLength>
    1500:	90 91 3c 09 	lds	r25, 0x093C	; 0x80093c <TwoWire::rxBufferIndex>
    1504:	89 1b       	sub	r24, r25
    1506:	99 0b       	sbc	r25, r25
color():
C:\Users\Ryan\Documents\GitHub\sport_main_code_2023/sport_menu.h:325
  if (8 <= Wire.available())  // if 8 bytes were received
    1508:	08 97       	sbiw	r24, 0x08	; 8
    150a:	d4 f1       	brlt	.+116    	; 0x1580 <color(char)+0x11c>
C:\Users\Ryan\Documents\GitHub\sport_main_code_2023/sport_menu.h:327
  {
    low_byte = Wire.read();
    150c:	0e 94 36 01 	call	0x26c	; 0x26c <TwoWire::read() [clone .constprop.22]>
    1510:	ec 01       	movw	r28, r24
C:\Users\Ryan\Documents\GitHub\sport_main_code_2023/sport_menu.h:328
    high_byte = Wire.read();
    1512:	0e 94 36 01 	call	0x26c	; 0x26c <TwoWire::read() [clone .constprop.22]>
C:\Users\Ryan\Documents\GitHub\sport_main_code_2023/sport_menu.h:329
    clear = high_byte * 255 + low_byte;
    1516:	1f ef       	ldi	r17, 0xFF	; 255
    1518:	dd 27       	eor	r29, r29
    151a:	81 9f       	mul	r24, r17
    151c:	c0 0d       	add	r28, r0
    151e:	d1 1d       	adc	r29, r1
    1520:	11 24       	eor	r1, r1
    1522:	d0 93 c6 08 	sts	0x08C6, r29	; 0x8008c6 <clear+0x1>
    1526:	c0 93 c5 08 	sts	0x08C5, r28	; 0x8008c5 <clear>
C:\Users\Ryan\Documents\GitHub\sport_main_code_2023/sport_menu.h:331

    low_byte = Wire.read();
    152a:	0e 94 36 01 	call	0x26c	; 0x26c <TwoWire::read() [clone .constprop.22]>
    152e:	ec 01       	movw	r28, r24
C:\Users\Ryan\Documents\GitHub\sport_main_code_2023/sport_menu.h:332
    high_byte = Wire.read();
    1530:	0e 94 36 01 	call	0x26c	; 0x26c <TwoWire::read() [clone .constprop.22]>
C:\Users\Ryan\Documents\GitHub\sport_main_code_2023/sport_menu.h:333
    red = high_byte * 255 + low_byte;
    1534:	dd 27       	eor	r29, r29
    1536:	81 9f       	mul	r24, r17
    1538:	c0 0d       	add	r28, r0
    153a:	d1 1d       	adc	r29, r1
    153c:	11 24       	eor	r1, r1
    153e:	d0 93 cc 08 	sts	0x08CC, r29	; 0x8008cc <red+0x1>
    1542:	c0 93 cb 08 	sts	0x08CB, r28	; 0x8008cb <red>
C:\Users\Ryan\Documents\GitHub\sport_main_code_2023/sport_menu.h:335

    low_byte = Wire.read();
    1546:	0e 94 36 01 	call	0x26c	; 0x26c <TwoWire::read() [clone .constprop.22]>
    154a:	ec 01       	movw	r28, r24
C:\Users\Ryan\Documents\GitHub\sport_main_code_2023/sport_menu.h:336
    high_byte = Wire.read();
    154c:	0e 94 36 01 	call	0x26c	; 0x26c <TwoWire::read() [clone .constprop.22]>
C:\Users\Ryan\Documents\GitHub\sport_main_code_2023/sport_menu.h:337
    green = high_byte * 255 + low_byte;
    1550:	dd 27       	eor	r29, r29
    1552:	81 9f       	mul	r24, r17
    1554:	c0 0d       	add	r28, r0
    1556:	d1 1d       	adc	r29, r1
    1558:	11 24       	eor	r1, r1
    155a:	d0 93 ca 08 	sts	0x08CA, r29	; 0x8008ca <green+0x1>
    155e:	c0 93 c9 08 	sts	0x08C9, r28	; 0x8008c9 <green>
C:\Users\Ryan\Documents\GitHub\sport_main_code_2023/sport_menu.h:339

    low_byte = Wire.read();
    1562:	0e 94 36 01 	call	0x26c	; 0x26c <TwoWire::read() [clone .constprop.22]>
    1566:	ec 01       	movw	r28, r24
C:\Users\Ryan\Documents\GitHub\sport_main_code_2023/sport_menu.h:340
    high_byte = Wire.read();
    1568:	0e 94 36 01 	call	0x26c	; 0x26c <TwoWire::read() [clone .constprop.22]>
C:\Users\Ryan\Documents\GitHub\sport_main_code_2023/sport_menu.h:341
    blue = (high_byte * 255 + low_byte) - 10;
    156c:	dd 27       	eor	r29, r29
    156e:	81 9f       	mul	r24, r17
    1570:	c0 0d       	add	r28, r0
    1572:	d1 1d       	adc	r29, r1
    1574:	11 24       	eor	r1, r1
    1576:	2a 97       	sbiw	r28, 0x0a	; 10
    1578:	d0 93 c8 08 	sts	0x08C8, r29	; 0x8008c8 <blue+0x1>
    157c:	c0 93 c7 08 	sts	0x08C7, r28	; 0x8008c7 <blue>
    1580:	e0 90 cb 08 	lds	r14, 0x08CB	; 0x8008cb <red>
    1584:	f0 90 cc 08 	lds	r15, 0x08CC	; 0x8008cc <red+0x1>
    1588:	00 91 c9 08 	lds	r16, 0x08C9	; 0x8008c9 <green>
    158c:	10 91 ca 08 	lds	r17, 0x08CA	; 0x8008ca <green+0x1>
C:\Users\Ryan\Documents\GitHub\sport_main_code_2023/sport_menu.h:344
  }

  if (select == 1)  // left
    1590:	81 e0       	ldi	r24, 0x01	; 1
    1592:	d8 12       	cpse	r13, r24
    1594:	b1 c1       	rjmp	.+866    	; 0x18f8 <color(char)+0x494>
    1596:	c0 90 c7 08 	lds	r12, 0x08C7	; 0x8008c7 <blue>
    159a:	d0 90 c8 08 	lds	r13, 0x08C8	; 0x8008c8 <blue+0x1>
    159e:	8a e9       	ldi	r24, 0x9A	; 154
    15a0:	90 e0       	ldi	r25, 0x00	; 0
    15a2:	0e 94 1c 0a 	call	0x1438	; 0x1438 <EEPROM_read_int(int)>
    15a6:	ec 01       	movw	r28, r24
C:\Users\Ryan\Documents\GitHub\sport_main_code_2023/sport_menu.h:346
  {
    if (red > green && red > blue && red < EEPROM_read_int(red_left_r) + range && red > EEPROM_read_int(red_left_r) - range && green < EEPROM_read_int(red_left_g) + range && green > EEPROM_read_int(red_left_g) - range && blue < EEPROM_read_int(red_left_b) + range && blue > EEPROM_read_int(red_left_b) - range && clear < EEPROM_read_int(red_left_c) + range && clear > EEPROM_read_int(red_left_c) - range)
    15a8:	0e 15       	cp	r16, r14
    15aa:	1f 05       	cpc	r17, r15
    15ac:	0c f0       	brlt	.+2      	; 0x15b0 <color(char)+0x14c>
    15ae:	75 c0       	rjmp	.+234    	; 0x169a <color(char)+0x236>
    15b0:	ce 14       	cp	r12, r14
    15b2:	df 04       	cpc	r13, r15
    15b4:	0c f0       	brlt	.+2      	; 0x15b8 <color(char)+0x154>
    15b6:	ba c0       	rjmp	.+372    	; 0x172c <color(char)+0x2c8>
    15b8:	84 e1       	ldi	r24, 0x14	; 20
    15ba:	90 e0       	ldi	r25, 0x00	; 0
    15bc:	0e 94 1c 0a 	call	0x1438	; 0x1438 <EEPROM_read_int(int)>
    15c0:	9c 01       	movw	r18, r24
    15c2:	2c 0f       	add	r18, r28
    15c4:	3d 1f       	adc	r19, r29
    15c6:	e2 16       	cp	r14, r18
    15c8:	f3 06       	cpc	r15, r19
    15ca:	0c f0       	brlt	.+2      	; 0x15ce <color(char)+0x16a>
    15cc:	b3 c0       	rjmp	.+358    	; 0x1734 <color(char)+0x2d0>
    15ce:	8c 1b       	sub	r24, r28
    15d0:	9d 0b       	sbc	r25, r29
    15d2:	8e 15       	cp	r24, r14
    15d4:	9f 05       	cpc	r25, r15
    15d6:	0c f0       	brlt	.+2      	; 0x15da <color(char)+0x176>
    15d8:	ad c0       	rjmp	.+346    	; 0x1734 <color(char)+0x2d0>
    15da:	86 e1       	ldi	r24, 0x16	; 22
    15dc:	90 e0       	ldi	r25, 0x00	; 0
    15de:	0e 94 1c 0a 	call	0x1438	; 0x1438 <EEPROM_read_int(int)>
    15e2:	9c 01       	movw	r18, r24
    15e4:	2c 0f       	add	r18, r28
    15e6:	3d 1f       	adc	r19, r29
    15e8:	02 17       	cp	r16, r18
    15ea:	13 07       	cpc	r17, r19
    15ec:	0c f0       	brlt	.+2      	; 0x15f0 <color(char)+0x18c>
    15ee:	a2 c0       	rjmp	.+324    	; 0x1734 <color(char)+0x2d0>
    15f0:	8c 1b       	sub	r24, r28
    15f2:	9d 0b       	sbc	r25, r29
    15f4:	80 17       	cp	r24, r16
    15f6:	91 07       	cpc	r25, r17
    15f8:	0c f0       	brlt	.+2      	; 0x15fc <color(char)+0x198>
    15fa:	9c c0       	rjmp	.+312    	; 0x1734 <color(char)+0x2d0>
    15fc:	88 e1       	ldi	r24, 0x18	; 24
    15fe:	90 e0       	ldi	r25, 0x00	; 0
    1600:	0e 94 1c 0a 	call	0x1438	; 0x1438 <EEPROM_read_int(int)>
    1604:	9c 01       	movw	r18, r24
    1606:	2c 0f       	add	r18, r28
    1608:	3d 1f       	adc	r19, r29
    160a:	c2 16       	cp	r12, r18
    160c:	d3 06       	cpc	r13, r19
    160e:	0c f0       	brlt	.+2      	; 0x1612 <color(char)+0x1ae>
    1610:	91 c0       	rjmp	.+290    	; 0x1734 <color(char)+0x2d0>
    1612:	8c 1b       	sub	r24, r28
    1614:	9d 0b       	sbc	r25, r29
    1616:	8c 15       	cp	r24, r12
    1618:	9d 05       	cpc	r25, r13
    161a:	0c f0       	brlt	.+2      	; 0x161e <color(char)+0x1ba>
    161c:	8b c0       	rjmp	.+278    	; 0x1734 <color(char)+0x2d0>
    161e:	8a e1       	ldi	r24, 0x1A	; 26
    1620:	90 e0       	ldi	r25, 0x00	; 0
    1622:	0e 94 1c 0a 	call	0x1438	; 0x1438 <EEPROM_read_int(int)>
    1626:	20 91 c5 08 	lds	r18, 0x08C5	; 0x8008c5 <clear>
    162a:	30 91 c6 08 	lds	r19, 0x08C6	; 0x8008c6 <clear+0x1>
    162e:	ac 01       	movw	r20, r24
    1630:	4c 0f       	add	r20, r28
    1632:	5d 1f       	adc	r21, r29
    1634:	24 17       	cp	r18, r20
    1636:	35 07       	cpc	r19, r21
    1638:	0c f0       	brlt	.+2      	; 0x163c <color(char)+0x1d8>
    163a:	7c c0       	rjmp	.+248    	; 0x1734 <color(char)+0x2d0>
    163c:	8c 1b       	sub	r24, r28
    163e:	9d 0b       	sbc	r25, r29
    1640:	82 17       	cp	r24, r18
    1642:	93 07       	cpc	r25, r19
    1644:	0c f0       	brlt	.+2      	; 0x1648 <color(char)+0x1e4>
    1646:	76 c0       	rjmp	.+236    	; 0x1734 <color(char)+0x2d0>
C:\Users\Ryan\Documents\GitHub\sport_main_code_2023/sport_menu.h:393

    return color_out;
  } else if (select == 3)  // front
  {
    if (red > green && red > blue && red < EEPROM_read_int(red_front_r) + range && red > EEPROM_read_int(red_front_r) - range && green < EEPROM_read_int(red_front_g) + range && green > EEPROM_read_int(red_front_g) - range && blue < EEPROM_read_int(red_front_b) + range && blue > EEPROM_read_int(red_front_b) - range && clear < EEPROM_read_int(red_front_c) + range && clear > EEPROM_read_int(red_front_c) - range)
      color_out = RED;
    1648:	10 92 7d 08 	sts	0x087D, r1	; 0x80087d <color_out+0x1>
    164c:	10 92 7c 08 	sts	0x087C, r1	; 0x80087c <color_out>
C:\Users\Ryan\Documents\GitHub\sport_main_code_2023/sport_menu.h:401
      color_out = GREEN;

    else
      color_out = WHITE;

    return color_out;
    1650:	80 91 7c 08 	lds	r24, 0x087C	; 0x80087c <color_out>
C:\Users\Ryan\Documents\GitHub\sport_main_code_2023/sport_menu.h:404
  }
  // delay(5);
}
    1654:	df 91       	pop	r29
    1656:	cf 91       	pop	r28
    1658:	1f 91       	pop	r17
    165a:	0f 91       	pop	r16
    165c:	ff 90       	pop	r15
    165e:	ef 90       	pop	r14
    1660:	df 90       	pop	r13
    1662:	cf 90       	pop	r12
    1664:	bf 90       	pop	r11
    1666:	af 90       	pop	r10
    1668:	08 95       	ret
C:\Users\Ryan\Documents\GitHub\sport_main_code_2023/sport_menu.h:297
  {
    digitalWrite(MUX_C, LOW);
    digitalWrite(MUX_B, LOW);
    digitalWrite(MUX_A, LOW);
    //  Serial.print("left color:  ");
  } else if (select == 2)  // right
    166a:	82 e0       	ldi	r24, 0x02	; 2
    166c:	d8 12       	cpse	r13, r24
    166e:	0a c0       	rjmp	.+20     	; 0x1684 <color(char)+0x220>
C:\Users\Ryan\Documents\GitHub\sport_main_code_2023/sport_menu.h:299
  {
    digitalWrite(MUX_C, LOW);
    1670:	60 e0       	ldi	r22, 0x00	; 0
    1672:	8a e2       	ldi	r24, 0x2A	; 42
    1674:	0e 94 0c 02 	call	0x418	; 0x418 <digitalWrite>
C:\Users\Ryan\Documents\GitHub\sport_main_code_2023/sport_menu.h:300
    digitalWrite(MUX_B, LOW);
    1678:	60 e0       	ldi	r22, 0x00	; 0
    167a:	8b e2       	ldi	r24, 0x2B	; 43
    167c:	0e 94 0c 02 	call	0x418	; 0x418 <digitalWrite>
C:\Users\Ryan\Documents\GitHub\sport_main_code_2023/sport_menu.h:301
    digitalWrite(MUX_A, HIGH);
    1680:	61 e0       	ldi	r22, 0x01	; 1
    1682:	07 cf       	rjmp	.-498    	; 0x1492 <color(char)+0x2e>
C:\Users\Ryan\Documents\GitHub\sport_main_code_2023/sport_menu.h:304
    //  Serial.print("right color:  ");
  } else {
    digitalWrite(MUX_A, HIGH);  //front
    1684:	61 e0       	ldi	r22, 0x01	; 1
    1686:	8c e2       	ldi	r24, 0x2C	; 44
    1688:	0e 94 0c 02 	call	0x418	; 0x418 <digitalWrite>
C:\Users\Ryan\Documents\GitHub\sport_main_code_2023/sport_menu.h:305
    digitalWrite(MUX_B, HIGH);
    168c:	61 e0       	ldi	r22, 0x01	; 1
    168e:	8b e2       	ldi	r24, 0x2B	; 43
    1690:	0e 94 0c 02 	call	0x418	; 0x418 <digitalWrite>
C:\Users\Ryan\Documents\GitHub\sport_main_code_2023/sport_menu.h:306
    digitalWrite(MUX_C, LOW);
    1694:	60 e0       	ldi	r22, 0x00	; 0
    1696:	8a e2       	ldi	r24, 0x2A	; 42
    1698:	fd ce       	rjmp	.-518    	; 0x1494 <color(char)+0x30>
C:\Users\Ryan\Documents\GitHub\sport_main_code_2023/sport_menu.h:350
  {
    if (red > green && red > blue && red < EEPROM_read_int(red_left_r) + range && red > EEPROM_read_int(red_left_r) - range && green < EEPROM_read_int(red_left_g) + range && green > EEPROM_read_int(red_left_g) - range && blue < EEPROM_read_int(red_left_b) + range && blue > EEPROM_read_int(red_left_b) - range && clear < EEPROM_read_int(red_left_c) + range && clear > EEPROM_read_int(red_left_c) - range)
      color_out = RED;

    //else if (green > red && green > blue && red < EEPROM_read_int(green_left_r) + range && red > EEPROM_read_int(green_left_r) - range && green > EEPROM_read_int(green_left_g)-range/2 && green < EEPROM_read_int(green_left_g) + range && blue < EEPROM_read_int(green_left_b) + range && blue > EEPROM_read_int(green_left_b) - range /*&& clear < EEPROM_read_int(green_left_c) + range*/ && clear > EEPROM_read_int(green_left_c) - range/2)
    else if (green > red && green > blue && red < EEPROM_read_int(green_left_r) + range && red > EEPROM_read_int(green_left_r) - range && green < EEPROM_read_int(green_left_g) + range && green > EEPROM_read_int(green_left_g) - range && blue < EEPROM_read_int(green_left_b) + range && blue > EEPROM_read_int(green_left_b) - range && clear < EEPROM_read_int(green_left_c) + range && clear > EEPROM_read_int(green_left_c) - range) { color_out = GREEN; }  //beep(1);}
    169a:	e0 16       	cp	r14, r16
    169c:	f1 06       	cpc	r15, r17
    169e:	0c f0       	brlt	.+2      	; 0x16a2 <color(char)+0x23e>
    16a0:	45 c0       	rjmp	.+138    	; 0x172c <color(char)+0x2c8>
    16a2:	c0 16       	cp	r12, r16
    16a4:	d1 06       	cpc	r13, r17
    16a6:	0c f0       	brlt	.+2      	; 0x16aa <color(char)+0x246>
    16a8:	41 c0       	rjmp	.+130    	; 0x172c <color(char)+0x2c8>
    16aa:	8c e1       	ldi	r24, 0x1C	; 28
    16ac:	90 e0       	ldi	r25, 0x00	; 0
    16ae:	0e 94 1c 0a 	call	0x1438	; 0x1438 <EEPROM_read_int(int)>
    16b2:	9c 01       	movw	r18, r24
    16b4:	2c 0f       	add	r18, r28
    16b6:	3d 1f       	adc	r19, r29
    16b8:	e2 16       	cp	r14, r18
    16ba:	f3 06       	cpc	r15, r19
    16bc:	bc f5       	brge	.+110    	; 0x172c <color(char)+0x2c8>
    16be:	8c 1b       	sub	r24, r28
    16c0:	9d 0b       	sbc	r25, r29
    16c2:	8e 15       	cp	r24, r14
    16c4:	9f 05       	cpc	r25, r15
    16c6:	94 f5       	brge	.+100    	; 0x172c <color(char)+0x2c8>
    16c8:	8e e1       	ldi	r24, 0x1E	; 30
    16ca:	90 e0       	ldi	r25, 0x00	; 0
    16cc:	0e 94 1c 0a 	call	0x1438	; 0x1438 <EEPROM_read_int(int)>
    16d0:	9c 01       	movw	r18, r24
    16d2:	2c 0f       	add	r18, r28
    16d4:	3d 1f       	adc	r19, r29
    16d6:	02 17       	cp	r16, r18
    16d8:	13 07       	cpc	r17, r19
    16da:	44 f5       	brge	.+80     	; 0x172c <color(char)+0x2c8>
    16dc:	8c 1b       	sub	r24, r28
    16de:	9d 0b       	sbc	r25, r29
    16e0:	80 17       	cp	r24, r16
    16e2:	91 07       	cpc	r25, r17
    16e4:	1c f5       	brge	.+70     	; 0x172c <color(char)+0x2c8>
    16e6:	80 e2       	ldi	r24, 0x20	; 32
    16e8:	90 e0       	ldi	r25, 0x00	; 0
    16ea:	0e 94 1c 0a 	call	0x1438	; 0x1438 <EEPROM_read_int(int)>
    16ee:	9e 01       	movw	r18, r28
    16f0:	28 0f       	add	r18, r24
    16f2:	39 1f       	adc	r19, r25
    16f4:	c2 16       	cp	r12, r18
    16f6:	d3 06       	cpc	r13, r19
    16f8:	cc f4       	brge	.+50     	; 0x172c <color(char)+0x2c8>
    16fa:	8c 1b       	sub	r24, r28
    16fc:	9d 0b       	sbc	r25, r29
    16fe:	8c 15       	cp	r24, r12
    1700:	9d 05       	cpc	r25, r13
    1702:	a4 f4       	brge	.+40     	; 0x172c <color(char)+0x2c8>
    1704:	82 e2       	ldi	r24, 0x22	; 34
    1706:	90 e0       	ldi	r25, 0x00	; 0
    1708:	0e 94 1c 0a 	call	0x1438	; 0x1438 <EEPROM_read_int(int)>
    170c:	20 91 c5 08 	lds	r18, 0x08C5	; 0x8008c5 <clear>
    1710:	30 91 c6 08 	lds	r19, 0x08C6	; 0x8008c6 <clear+0x1>
    1714:	ae 01       	movw	r20, r28
    1716:	48 0f       	add	r20, r24
    1718:	59 1f       	adc	r21, r25
    171a:	24 17       	cp	r18, r20
    171c:	35 07       	cpc	r19, r21
    171e:	34 f4       	brge	.+12     	; 0x172c <color(char)+0x2c8>
    1720:	8c 1b       	sub	r24, r28
    1722:	9d 0b       	sbc	r25, r29
    1724:	82 17       	cp	r24, r18
    1726:	93 07       	cpc	r25, r19
    1728:	0c f4       	brge	.+2      	; 0x172c <color(char)+0x2c8>
    172a:	1d c2       	rjmp	.+1082   	; 0x1b66 <color(char)+0x702>
C:\Users\Ryan\Documents\GitHub\sport_main_code_2023/sport_menu.h:352

    else if (blue > red && blue > green && red < EEPROM_read_int(blue_left_r) + range && red > EEPROM_read_int(blue_left_r) - range && green < EEPROM_read_int(blue_left_g) + range && green > EEPROM_read_int(blue_left_g) - range && blue < EEPROM_read_int(blue_left_b) + range && blue > EEPROM_read_int(blue_left_b) - range && clear < EEPROM_read_int(blue_left_c) + range && clear > EEPROM_read_int(blue_left_c) - range)
    172c:	ec 14       	cp	r14, r12
    172e:	fd 04       	cpc	r15, r13
    1730:	0c f4       	brge	.+2      	; 0x1734 <color(char)+0x2d0>
    1732:	4f c0       	rjmp	.+158    	; 0x17d2 <color(char)+0x36e>
C:\Users\Ryan\Documents\GitHub\sport_main_code_2023/sport_menu.h:355
      color_out = BLUE;

    else if (red < EEPROM_read_int(yellow_left_r) + range && red > EEPROM_read_int(yellow_left_r) - range && green < EEPROM_read_int(yellow_left_g) + range && green > EEPROM_read_int(yellow_left_g) - range && blue < EEPROM_read_int(yellow_left_b) + range && blue > EEPROM_read_int(yellow_left_b) - range && clear < EEPROM_read_int(yellow_left_c) + range && clear > EEPROM_read_int(yellow_left_c) - range)
    1734:	8c e2       	ldi	r24, 0x2C	; 44
    1736:	90 e0       	ldi	r25, 0x00	; 0
    1738:	0e 94 1c 0a 	call	0x1438	; 0x1438 <EEPROM_read_int(int)>
    173c:	9e 01       	movw	r18, r28
    173e:	28 0f       	add	r18, r24
    1740:	39 1f       	adc	r19, r25
    1742:	e2 16       	cp	r14, r18
    1744:	f3 06       	cpc	r15, r19
    1746:	0c f4       	brge	.+2      	; 0x174a <color(char)+0x2e6>
    1748:	97 c0       	rjmp	.+302    	; 0x1878 <color(char)+0x414>
C:\Users\Ryan\Documents\GitHub\sport_main_code_2023/sport_menu.h:359
      color_out = YELLOW;

    else if (
      red <= (EEPROM_read_int(silver_left_r) + range) && red >= (EEPROM_read_int(silver_left_r) - range) && green >= (EEPROM_read_int(silver_left_g) - range) && green <= (EEPROM_read_int(silver_left_g) + range) && blue >= (EEPROM_read_int(silver_left_b) - range) && blue <= (EEPROM_read_int(silver_left_b) + range) && clear <= (EEPROM_read_int(silver_left_c) + range) && clear >= (EEPROM_read_int(silver_left_c) - range)) {
    174a:	84 e3       	ldi	r24, 0x34	; 52
    174c:	90 e0       	ldi	r25, 0x00	; 0
    174e:	0e 94 1c 0a 	call	0x1438	; 0x1438 <EEPROM_read_int(int)>
    1752:	9e 01       	movw	r18, r28
    1754:	28 0f       	add	r18, r24
    1756:	39 1f       	adc	r19, r25
    1758:	2e 15       	cp	r18, r14
    175a:	3f 05       	cpc	r19, r15
    175c:	bc f1       	brlt	.+110    	; 0x17cc <color(char)+0x368>
    175e:	8c 1b       	sub	r24, r28
    1760:	9d 0b       	sbc	r25, r29
    1762:	e8 16       	cp	r14, r24
    1764:	f9 06       	cpc	r15, r25
    1766:	94 f1       	brlt	.+100    	; 0x17cc <color(char)+0x368>
    1768:	86 e3       	ldi	r24, 0x36	; 54
    176a:	90 e0       	ldi	r25, 0x00	; 0
    176c:	0e 94 1c 0a 	call	0x1438	; 0x1438 <EEPROM_read_int(int)>
    1770:	9c 01       	movw	r18, r24
    1772:	2c 1b       	sub	r18, r28
    1774:	3d 0b       	sbc	r19, r29
    1776:	02 17       	cp	r16, r18
    1778:	13 07       	cpc	r17, r19
    177a:	44 f1       	brlt	.+80     	; 0x17cc <color(char)+0x368>
    177c:	8c 0f       	add	r24, r28
    177e:	9d 1f       	adc	r25, r29
    1780:	80 17       	cp	r24, r16
    1782:	91 07       	cpc	r25, r17
    1784:	1c f1       	brlt	.+70     	; 0x17cc <color(char)+0x368>
    1786:	88 e3       	ldi	r24, 0x38	; 56
    1788:	90 e0       	ldi	r25, 0x00	; 0
    178a:	0e 94 1c 0a 	call	0x1438	; 0x1438 <EEPROM_read_int(int)>
    178e:	9c 01       	movw	r18, r24
    1790:	2c 1b       	sub	r18, r28
    1792:	3d 0b       	sbc	r19, r29
    1794:	c2 16       	cp	r12, r18
    1796:	d3 06       	cpc	r13, r19
    1798:	cc f0       	brlt	.+50     	; 0x17cc <color(char)+0x368>
    179a:	8c 0f       	add	r24, r28
    179c:	9d 1f       	adc	r25, r29
    179e:	8c 15       	cp	r24, r12
    17a0:	9d 05       	cpc	r25, r13
    17a2:	a4 f0       	brlt	.+40     	; 0x17cc <color(char)+0x368>
    17a4:	8a e3       	ldi	r24, 0x3A	; 58
    17a6:	90 e0       	ldi	r25, 0x00	; 0
C:\Users\Ryan\Documents\GitHub\sport_main_code_2023/sport_menu.h:382

    else if (red < EEPROM_read_int(yellow_right_r) + range && red > EEPROM_read_int(yellow_right_r) - range && green < EEPROM_read_int(yellow_right_g) + range && green > EEPROM_read_int(yellow_right_g) - range && blue < EEPROM_read_int(yellow_right_b) + range && blue > EEPROM_read_int(yellow_right_b) - range && clear < EEPROM_read_int(yellow_right_c) + range && clear > EEPROM_read_int(yellow_right_c) - range)
      color_out = YELLOW;

    else if (
      red <= (EEPROM_read_int(silver_right_r) + range) && red >= (EEPROM_read_int(silver_right_r) - range) && green >= (EEPROM_read_int(silver_right_g) - range) && green <= (EEPROM_read_int(silver_right_g) + range) && blue >= (EEPROM_read_int(silver_right_b) - range) && blue <= (EEPROM_read_int(silver_right_b) + range) && clear <= (EEPROM_read_int(silver_right_c) + range) && clear >= (EEPROM_read_int(silver_right_c) - range)) {
    17a8:	0e 94 1c 0a 	call	0x1438	; 0x1438 <EEPROM_read_int(int)>
    17ac:	20 91 c5 08 	lds	r18, 0x08C5	; 0x8008c5 <clear>
    17b0:	30 91 c6 08 	lds	r19, 0x08C6	; 0x8008c6 <clear+0x1>
    17b4:	ae 01       	movw	r20, r28
    17b6:	48 0f       	add	r20, r24
    17b8:	59 1f       	adc	r21, r25
    17ba:	42 17       	cp	r20, r18
    17bc:	53 07       	cpc	r21, r19
    17be:	34 f0       	brlt	.+12     	; 0x17cc <color(char)+0x368>
    17c0:	8c 1b       	sub	r24, r28
    17c2:	9d 0b       	sbc	r25, r29
    17c4:	28 17       	cp	r18, r24
    17c6:	39 07       	cpc	r19, r25
    17c8:	0c f0       	brlt	.+2      	; 0x17cc <color(char)+0x368>
    17ca:	0e c2       	rjmp	.+1052   	; 0x1be8 <color(char)+0x784>
C:\Users\Ryan\Documents\GitHub\sport_main_code_2023/sport_menu.h:399

    else if (green > red && green > blue && red < EEPROM_read_int(green_front_r) + range && red > EEPROM_read_int(green_front_r) - range && green < EEPROM_read_int(green_front_g) + range && green > EEPROM_read_int(green_front_g) - range && blue < EEPROM_read_int(green_front_b) + range && blue > EEPROM_read_int(green_front_b) - range && clear < EEPROM_read_int(green_front_c) + range && clear > EEPROM_read_int(green_front_c) - range)
      color_out = GREEN;

    else
      color_out = WHITE;
    17cc:	87 e0       	ldi	r24, 0x07	; 7
    17ce:	90 e0       	ldi	r25, 0x00	; 0
    17d0:	4e c0       	rjmp	.+156    	; 0x186e <color(char)+0x40a>
C:\Users\Ryan\Documents\GitHub\sport_main_code_2023/sport_menu.h:352
      color_out = RED;

    //else if (green > red && green > blue && red < EEPROM_read_int(green_left_r) + range && red > EEPROM_read_int(green_left_r) - range && green > EEPROM_read_int(green_left_g)-range/2 && green < EEPROM_read_int(green_left_g) + range && blue < EEPROM_read_int(green_left_b) + range && blue > EEPROM_read_int(green_left_b) - range /*&& clear < EEPROM_read_int(green_left_c) + range*/ && clear > EEPROM_read_int(green_left_c) - range/2)
    else if (green > red && green > blue && red < EEPROM_read_int(green_left_r) + range && red > EEPROM_read_int(green_left_r) - range && green < EEPROM_read_int(green_left_g) + range && green > EEPROM_read_int(green_left_g) - range && blue < EEPROM_read_int(green_left_b) + range && blue > EEPROM_read_int(green_left_b) - range && clear < EEPROM_read_int(green_left_c) + range && clear > EEPROM_read_int(green_left_c) - range) { color_out = GREEN; }  //beep(1);}

    else if (blue > red && blue > green && red < EEPROM_read_int(blue_left_r) + range && red > EEPROM_read_int(blue_left_r) - range && green < EEPROM_read_int(blue_left_g) + range && green > EEPROM_read_int(blue_left_g) - range && blue < EEPROM_read_int(blue_left_b) + range && blue > EEPROM_read_int(blue_left_b) - range && clear < EEPROM_read_int(blue_left_c) + range && clear > EEPROM_read_int(blue_left_c) - range)
    17d2:	0c 15       	cp	r16, r12
    17d4:	1d 05       	cpc	r17, r13
    17d6:	0c f0       	brlt	.+2      	; 0x17da <color(char)+0x376>
    17d8:	ad cf       	rjmp	.-166    	; 0x1734 <color(char)+0x2d0>
    17da:	84 e2       	ldi	r24, 0x24	; 36
    17dc:	90 e0       	ldi	r25, 0x00	; 0
    17de:	0e 94 1c 0a 	call	0x1438	; 0x1438 <EEPROM_read_int(int)>
    17e2:	9e 01       	movw	r18, r28
    17e4:	28 0f       	add	r18, r24
    17e6:	39 1f       	adc	r19, r25
    17e8:	e2 16       	cp	r14, r18
    17ea:	f3 06       	cpc	r15, r19
    17ec:	0c f0       	brlt	.+2      	; 0x17f0 <color(char)+0x38c>
    17ee:	a2 cf       	rjmp	.-188    	; 0x1734 <color(char)+0x2d0>
    17f0:	8c 1b       	sub	r24, r28
    17f2:	9d 0b       	sbc	r25, r29
    17f4:	8e 15       	cp	r24, r14
    17f6:	9f 05       	cpc	r25, r15
    17f8:	0c f0       	brlt	.+2      	; 0x17fc <color(char)+0x398>
    17fa:	9c cf       	rjmp	.-200    	; 0x1734 <color(char)+0x2d0>
    17fc:	86 e2       	ldi	r24, 0x26	; 38
    17fe:	90 e0       	ldi	r25, 0x00	; 0
    1800:	0e 94 1c 0a 	call	0x1438	; 0x1438 <EEPROM_read_int(int)>
    1804:	9e 01       	movw	r18, r28
    1806:	28 0f       	add	r18, r24
    1808:	39 1f       	adc	r19, r25
    180a:	02 17       	cp	r16, r18
    180c:	13 07       	cpc	r17, r19
    180e:	0c f0       	brlt	.+2      	; 0x1812 <color(char)+0x3ae>
    1810:	91 cf       	rjmp	.-222    	; 0x1734 <color(char)+0x2d0>
    1812:	8c 1b       	sub	r24, r28
    1814:	9d 0b       	sbc	r25, r29
    1816:	80 17       	cp	r24, r16
    1818:	91 07       	cpc	r25, r17
    181a:	0c f0       	brlt	.+2      	; 0x181e <color(char)+0x3ba>
    181c:	8b cf       	rjmp	.-234    	; 0x1734 <color(char)+0x2d0>
    181e:	88 e2       	ldi	r24, 0x28	; 40
    1820:	90 e0       	ldi	r25, 0x00	; 0
    1822:	0e 94 1c 0a 	call	0x1438	; 0x1438 <EEPROM_read_int(int)>
    1826:	9e 01       	movw	r18, r28
    1828:	28 0f       	add	r18, r24
    182a:	39 1f       	adc	r19, r25
    182c:	c2 16       	cp	r12, r18
    182e:	d3 06       	cpc	r13, r19
    1830:	0c f0       	brlt	.+2      	; 0x1834 <color(char)+0x3d0>
    1832:	80 cf       	rjmp	.-256    	; 0x1734 <color(char)+0x2d0>
    1834:	8c 1b       	sub	r24, r28
    1836:	9d 0b       	sbc	r25, r29
    1838:	8c 15       	cp	r24, r12
    183a:	9d 05       	cpc	r25, r13
    183c:	0c f0       	brlt	.+2      	; 0x1840 <color(char)+0x3dc>
    183e:	7a cf       	rjmp	.-268    	; 0x1734 <color(char)+0x2d0>
    1840:	8a e2       	ldi	r24, 0x2A	; 42
    1842:	90 e0       	ldi	r25, 0x00	; 0
    1844:	0e 94 1c 0a 	call	0x1438	; 0x1438 <EEPROM_read_int(int)>
    1848:	20 91 c5 08 	lds	r18, 0x08C5	; 0x8008c5 <clear>
    184c:	30 91 c6 08 	lds	r19, 0x08C6	; 0x8008c6 <clear+0x1>
    1850:	ae 01       	movw	r20, r28
    1852:	48 0f       	add	r20, r24
    1854:	59 1f       	adc	r21, r25
    1856:	24 17       	cp	r18, r20
    1858:	35 07       	cpc	r19, r21
    185a:	0c f0       	brlt	.+2      	; 0x185e <color(char)+0x3fa>
    185c:	6b cf       	rjmp	.-298    	; 0x1734 <color(char)+0x2d0>
    185e:	8c 1b       	sub	r24, r28
    1860:	9d 0b       	sbc	r25, r29
    1862:	82 17       	cp	r24, r18
    1864:	93 07       	cpc	r25, r19
    1866:	0c f0       	brlt	.+2      	; 0x186a <color(char)+0x406>
    1868:	65 cf       	rjmp	.-310    	; 0x1734 <color(char)+0x2d0>
C:\Users\Ryan\Documents\GitHub\sport_main_code_2023/sport_menu.h:376
    //else if (green > red && green > blue && red < EEPROM_read_int(green_right_r) + range && red > EEPROM_read_int(green_right_r) - range && green > EEPROM_read_int(green_right_g)-range/2 && green < EEPROM_read_int(green_right_g) + range && blue < EEPROM_read_int(green_right_b) + range && blue > EEPROM_read_int(green_right_b) - range /*&&  clear < EEPROM_read_int(green_right_c) + range */ && clear > EEPROM_read_int(green_right_c) - range/2)
    else if (green > red && green > blue && red < EEPROM_read_int(green_right_r) + range && red > EEPROM_read_int(green_right_r) - range && green < EEPROM_read_int(green_right_g) + range && green > EEPROM_read_int(green_right_g) - range && blue < EEPROM_read_int(green_right_b) + range && blue > EEPROM_read_int(green_right_b) - range && clear < EEPROM_read_int(green_right_c) + range && clear > EEPROM_read_int(green_right_c) - range)
      color_out = GREEN;

    else if (blue > red && blue > green && red < EEPROM_read_int(blue_right_r) + range && red > EEPROM_read_int(blue_right_r) - range && green < EEPROM_read_int(blue_right_g) + range && green > EEPROM_read_int(blue_right_g) - range && blue < EEPROM_read_int(blue_right_b) + range && blue > EEPROM_read_int(blue_right_b) - range && clear < EEPROM_read_int(blue_right_c) + range && clear > EEPROM_read_int(blue_right_c) - range)
      color_out = BLUE;
    186a:	82 e0       	ldi	r24, 0x02	; 2
    186c:	90 e0       	ldi	r25, 0x00	; 0
C:\Users\Ryan\Documents\GitHub\sport_main_code_2023/sport_menu.h:396
  {
    if (red > green && red > blue && red < EEPROM_read_int(red_front_r) + range && red > EEPROM_read_int(red_front_r) - range && green < EEPROM_read_int(red_front_g) + range && green > EEPROM_read_int(red_front_g) - range && blue < EEPROM_read_int(red_front_b) + range && blue > EEPROM_read_int(red_front_b) - range && clear < EEPROM_read_int(red_front_c) + range && clear > EEPROM_read_int(red_front_c) - range)
      color_out = RED;

    else if (green > red && green > blue && red < EEPROM_read_int(green_front_r) + range && red > EEPROM_read_int(green_front_r) - range && green < EEPROM_read_int(green_front_g) + range && green > EEPROM_read_int(green_front_g) - range && blue < EEPROM_read_int(green_front_b) + range && blue > EEPROM_read_int(green_front_b) - range && clear < EEPROM_read_int(green_front_c) + range && clear > EEPROM_read_int(green_front_c) - range)
      color_out = GREEN;
    186e:	90 93 7d 08 	sts	0x087D, r25	; 0x80087d <color_out+0x1>
    1872:	80 93 7c 08 	sts	0x087C, r24	; 0x80087c <color_out>
    1876:	ec ce       	rjmp	.-552    	; 0x1650 <color(char)+0x1ec>
C:\Users\Ryan\Documents\GitHub\sport_main_code_2023/sport_menu.h:355
    else if (green > red && green > blue && red < EEPROM_read_int(green_left_r) + range && red > EEPROM_read_int(green_left_r) - range && green < EEPROM_read_int(green_left_g) + range && green > EEPROM_read_int(green_left_g) - range && blue < EEPROM_read_int(green_left_b) + range && blue > EEPROM_read_int(green_left_b) - range && clear < EEPROM_read_int(green_left_c) + range && clear > EEPROM_read_int(green_left_c) - range) { color_out = GREEN; }  //beep(1);}

    else if (blue > red && blue > green && red < EEPROM_read_int(blue_left_r) + range && red > EEPROM_read_int(blue_left_r) - range && green < EEPROM_read_int(blue_left_g) + range && green > EEPROM_read_int(blue_left_g) - range && blue < EEPROM_read_int(blue_left_b) + range && blue > EEPROM_read_int(blue_left_b) - range && clear < EEPROM_read_int(blue_left_c) + range && clear > EEPROM_read_int(blue_left_c) - range)
      color_out = BLUE;

    else if (red < EEPROM_read_int(yellow_left_r) + range && red > EEPROM_read_int(yellow_left_r) - range && green < EEPROM_read_int(yellow_left_g) + range && green > EEPROM_read_int(yellow_left_g) - range && blue < EEPROM_read_int(yellow_left_b) + range && blue > EEPROM_read_int(yellow_left_b) - range && clear < EEPROM_read_int(yellow_left_c) + range && clear > EEPROM_read_int(yellow_left_c) - range)
    1878:	8c 1b       	sub	r24, r28
    187a:	9d 0b       	sbc	r25, r29
    187c:	8e 15       	cp	r24, r14
    187e:	9f 05       	cpc	r25, r15
    1880:	0c f0       	brlt	.+2      	; 0x1884 <color(char)+0x420>
    1882:	63 cf       	rjmp	.-314    	; 0x174a <color(char)+0x2e6>
    1884:	8e e2       	ldi	r24, 0x2E	; 46
    1886:	90 e0       	ldi	r25, 0x00	; 0
    1888:	0e 94 1c 0a 	call	0x1438	; 0x1438 <EEPROM_read_int(int)>
    188c:	9e 01       	movw	r18, r28
    188e:	28 0f       	add	r18, r24
    1890:	39 1f       	adc	r19, r25
    1892:	02 17       	cp	r16, r18
    1894:	13 07       	cpc	r17, r19
    1896:	0c f0       	brlt	.+2      	; 0x189a <color(char)+0x436>
    1898:	58 cf       	rjmp	.-336    	; 0x174a <color(char)+0x2e6>
    189a:	8c 1b       	sub	r24, r28
    189c:	9d 0b       	sbc	r25, r29
    189e:	80 17       	cp	r24, r16
    18a0:	91 07       	cpc	r25, r17
    18a2:	0c f0       	brlt	.+2      	; 0x18a6 <color(char)+0x442>
    18a4:	52 cf       	rjmp	.-348    	; 0x174a <color(char)+0x2e6>
    18a6:	80 e3       	ldi	r24, 0x30	; 48
    18a8:	90 e0       	ldi	r25, 0x00	; 0
    18aa:	0e 94 1c 0a 	call	0x1438	; 0x1438 <EEPROM_read_int(int)>
    18ae:	9e 01       	movw	r18, r28
    18b0:	28 0f       	add	r18, r24
    18b2:	39 1f       	adc	r19, r25
    18b4:	c2 16       	cp	r12, r18
    18b6:	d3 06       	cpc	r13, r19
    18b8:	0c f0       	brlt	.+2      	; 0x18bc <color(char)+0x458>
    18ba:	47 cf       	rjmp	.-370    	; 0x174a <color(char)+0x2e6>
    18bc:	8c 1b       	sub	r24, r28
    18be:	9d 0b       	sbc	r25, r29
    18c0:	8c 15       	cp	r24, r12
    18c2:	9d 05       	cpc	r25, r13
    18c4:	0c f0       	brlt	.+2      	; 0x18c8 <color(char)+0x464>
    18c6:	41 cf       	rjmp	.-382    	; 0x174a <color(char)+0x2e6>
    18c8:	82 e3       	ldi	r24, 0x32	; 50
    18ca:	90 e0       	ldi	r25, 0x00	; 0
    18cc:	0e 94 1c 0a 	call	0x1438	; 0x1438 <EEPROM_read_int(int)>
    18d0:	20 91 c5 08 	lds	r18, 0x08C5	; 0x8008c5 <clear>
    18d4:	30 91 c6 08 	lds	r19, 0x08C6	; 0x8008c6 <clear+0x1>
    18d8:	ae 01       	movw	r20, r28
    18da:	48 0f       	add	r20, r24
    18dc:	59 1f       	adc	r21, r25
    18de:	24 17       	cp	r18, r20
    18e0:	35 07       	cpc	r19, r21
    18e2:	0c f0       	brlt	.+2      	; 0x18e6 <color(char)+0x482>
    18e4:	32 cf       	rjmp	.-412    	; 0x174a <color(char)+0x2e6>
    18e6:	8c 1b       	sub	r24, r28
    18e8:	9d 0b       	sbc	r25, r29
    18ea:	82 17       	cp	r24, r18
    18ec:	93 07       	cpc	r25, r19
    18ee:	0c f0       	brlt	.+2      	; 0x18f2 <color(char)+0x48e>
    18f0:	2c cf       	rjmp	.-424    	; 0x174a <color(char)+0x2e6>
C:\Users\Ryan\Documents\GitHub\sport_main_code_2023/sport_menu.h:379

    else if (blue > red && blue > green && red < EEPROM_read_int(blue_right_r) + range && red > EEPROM_read_int(blue_right_r) - range && green < EEPROM_read_int(blue_right_g) + range && green > EEPROM_read_int(blue_right_g) - range && blue < EEPROM_read_int(blue_right_b) + range && blue > EEPROM_read_int(blue_right_b) - range && clear < EEPROM_read_int(blue_right_c) + range && clear > EEPROM_read_int(blue_right_c) - range)
      color_out = BLUE;

    else if (red < EEPROM_read_int(yellow_right_r) + range && red > EEPROM_read_int(yellow_right_r) - range && green < EEPROM_read_int(yellow_right_g) + range && green > EEPROM_read_int(yellow_right_g) - range && blue < EEPROM_read_int(yellow_right_b) + range && blue > EEPROM_read_int(yellow_right_b) - range && clear < EEPROM_read_int(yellow_right_c) + range && clear > EEPROM_read_int(yellow_right_c) - range)
      color_out = YELLOW;
    18f2:	84 e0       	ldi	r24, 0x04	; 4
    18f4:	90 e0       	ldi	r25, 0x00	; 0
    18f6:	bb cf       	rjmp	.-138    	; 0x186e <color(char)+0x40a>
C:\Users\Ryan\Documents\GitHub\sport_main_code_2023/sport_menu.h:367

    else
      color_out = WHITE;

    return color_out;
  } else if (select == 2)  // right
    18f8:	82 e0       	ldi	r24, 0x02	; 2
    18fa:	d8 12       	cpse	r13, r24
    18fc:	78 c1       	rjmp	.+752    	; 0x1bee <color(char)+0x78a>
    18fe:	c0 90 c7 08 	lds	r12, 0x08C7	; 0x8008c7 <blue>
    1902:	d0 90 c8 08 	lds	r13, 0x08C8	; 0x8008c8 <blue+0x1>
    1906:	8a e9       	ldi	r24, 0x9A	; 154
    1908:	90 e0       	ldi	r25, 0x00	; 0
    190a:	0e 94 1c 0a 	call	0x1438	; 0x1438 <EEPROM_read_int(int)>
    190e:	ec 01       	movw	r28, r24
C:\Users\Ryan\Documents\GitHub\sport_main_code_2023/sport_menu.h:369
  {
    if (red > green && red > blue && red < EEPROM_read_int(red_right_r) + range && red > EEPROM_read_int(red_right_r) - range && green < EEPROM_read_int(red_right_g) + range && green > EEPROM_read_int(red_right_g) - range && blue < EEPROM_read_int(red_right_b) + range && blue > EEPROM_read_int(red_right_b) - range && clear < EEPROM_read_int(red_right_c) + range && clear > EEPROM_read_int(red_right_c) - range)
    1910:	0e 15       	cp	r16, r14
    1912:	1f 05       	cpc	r17, r15
    1914:	0c f0       	brlt	.+2      	; 0x1918 <color(char)+0x4b4>
    1916:	86 c0       	rjmp	.+268    	; 0x1a24 <color(char)+0x5c0>
    1918:	ce 14       	cp	r12, r14
    191a:	df 04       	cpc	r13, r15
    191c:	0c f0       	brlt	.+2      	; 0x1920 <color(char)+0x4bc>
    191e:	86 c0       	rjmp	.+268    	; 0x1a2c <color(char)+0x5c8>
    1920:	8c e3       	ldi	r24, 0x3C	; 60
    1922:	90 e0       	ldi	r25, 0x00	; 0
    1924:	0e 94 1c 0a 	call	0x1438	; 0x1438 <EEPROM_read_int(int)>
    1928:	9e 01       	movw	r18, r28
    192a:	28 0f       	add	r18, r24
    192c:	39 1f       	adc	r19, r25
    192e:	e2 16       	cp	r14, r18
    1930:	f3 06       	cpc	r15, r19
    1932:	bc f5       	brge	.+110    	; 0x19a2 <color(char)+0x53e>
    1934:	8c 1b       	sub	r24, r28
    1936:	9d 0b       	sbc	r25, r29
    1938:	8e 15       	cp	r24, r14
    193a:	9f 05       	cpc	r25, r15
    193c:	94 f5       	brge	.+100    	; 0x19a2 <color(char)+0x53e>
    193e:	8e e3       	ldi	r24, 0x3E	; 62
    1940:	90 e0       	ldi	r25, 0x00	; 0
    1942:	0e 94 1c 0a 	call	0x1438	; 0x1438 <EEPROM_read_int(int)>
    1946:	9e 01       	movw	r18, r28
    1948:	28 0f       	add	r18, r24
    194a:	39 1f       	adc	r19, r25
    194c:	02 17       	cp	r16, r18
    194e:	13 07       	cpc	r17, r19
    1950:	44 f5       	brge	.+80     	; 0x19a2 <color(char)+0x53e>
    1952:	8c 1b       	sub	r24, r28
    1954:	9d 0b       	sbc	r25, r29
    1956:	80 17       	cp	r24, r16
    1958:	91 07       	cpc	r25, r17
    195a:	1c f5       	brge	.+70     	; 0x19a2 <color(char)+0x53e>
    195c:	80 e4       	ldi	r24, 0x40	; 64
    195e:	90 e0       	ldi	r25, 0x00	; 0
    1960:	0e 94 1c 0a 	call	0x1438	; 0x1438 <EEPROM_read_int(int)>
    1964:	9e 01       	movw	r18, r28
    1966:	28 0f       	add	r18, r24
    1968:	39 1f       	adc	r19, r25
    196a:	c2 16       	cp	r12, r18
    196c:	d3 06       	cpc	r13, r19
    196e:	cc f4       	brge	.+50     	; 0x19a2 <color(char)+0x53e>
    1970:	8c 1b       	sub	r24, r28
    1972:	9d 0b       	sbc	r25, r29
    1974:	8c 15       	cp	r24, r12
    1976:	9d 05       	cpc	r25, r13
    1978:	a4 f4       	brge	.+40     	; 0x19a2 <color(char)+0x53e>
    197a:	82 e4       	ldi	r24, 0x42	; 66
    197c:	90 e0       	ldi	r25, 0x00	; 0
    197e:	0e 94 1c 0a 	call	0x1438	; 0x1438 <EEPROM_read_int(int)>
    1982:	20 91 c5 08 	lds	r18, 0x08C5	; 0x8008c5 <clear>
    1986:	30 91 c6 08 	lds	r19, 0x08C6	; 0x8008c6 <clear+0x1>
    198a:	ae 01       	movw	r20, r28
    198c:	48 0f       	add	r20, r24
    198e:	59 1f       	adc	r21, r25
    1990:	24 17       	cp	r18, r20
    1992:	35 07       	cpc	r19, r21
    1994:	34 f4       	brge	.+12     	; 0x19a2 <color(char)+0x53e>
    1996:	8c 1b       	sub	r24, r28
    1998:	9d 0b       	sbc	r25, r29
    199a:	82 17       	cp	r24, r18
    199c:	93 07       	cpc	r25, r19
    199e:	0c f4       	brge	.+2      	; 0x19a2 <color(char)+0x53e>
    19a0:	53 ce       	rjmp	.-858    	; 0x1648 <color(char)+0x1e4>
C:\Users\Ryan\Documents\GitHub\sport_main_code_2023/sport_menu.h:378
      color_out = GREEN;

    else if (blue > red && blue > green && red < EEPROM_read_int(blue_right_r) + range && red > EEPROM_read_int(blue_right_r) - range && green < EEPROM_read_int(blue_right_g) + range && green > EEPROM_read_int(blue_right_g) - range && blue < EEPROM_read_int(blue_right_b) + range && blue > EEPROM_read_int(blue_right_b) - range && clear < EEPROM_read_int(blue_right_c) + range && clear > EEPROM_read_int(blue_right_c) - range)
      color_out = BLUE;

    else if (red < EEPROM_read_int(yellow_right_r) + range && red > EEPROM_read_int(yellow_right_r) - range && green < EEPROM_read_int(yellow_right_g) + range && green > EEPROM_read_int(yellow_right_g) - range && blue < EEPROM_read_int(yellow_right_b) + range && blue > EEPROM_read_int(yellow_right_b) - range && clear < EEPROM_read_int(yellow_right_c) + range && clear > EEPROM_read_int(yellow_right_c) - range)
    19a2:	84 e5       	ldi	r24, 0x54	; 84
    19a4:	90 e0       	ldi	r25, 0x00	; 0
    19a6:	0e 94 1c 0a 	call	0x1438	; 0x1438 <EEPROM_read_int(int)>
    19aa:	9e 01       	movw	r18, r28
    19ac:	28 0f       	add	r18, r24
    19ae:	39 1f       	adc	r19, r25
    19b0:	e2 16       	cp	r14, r18
    19b2:	f3 06       	cpc	r15, r19
    19b4:	0c f4       	brge	.+2      	; 0x19b8 <color(char)+0x554>
    19b6:	da c0       	rjmp	.+436    	; 0x1b6c <color(char)+0x708>
C:\Users\Ryan\Documents\GitHub\sport_main_code_2023/sport_menu.h:382
      color_out = YELLOW;

    else if (
      red <= (EEPROM_read_int(silver_right_r) + range) && red >= (EEPROM_read_int(silver_right_r) - range) && green >= (EEPROM_read_int(silver_right_g) - range) && green <= (EEPROM_read_int(silver_right_g) + range) && blue >= (EEPROM_read_int(silver_right_b) - range) && blue <= (EEPROM_read_int(silver_right_b) + range) && clear <= (EEPROM_read_int(silver_right_c) + range) && clear >= (EEPROM_read_int(silver_right_c) - range)) {
    19b8:	8c e5       	ldi	r24, 0x5C	; 92
    19ba:	90 e0       	ldi	r25, 0x00	; 0
    19bc:	0e 94 1c 0a 	call	0x1438	; 0x1438 <EEPROM_read_int(int)>
    19c0:	9e 01       	movw	r18, r28
    19c2:	28 0f       	add	r18, r24
    19c4:	39 1f       	adc	r19, r25
    19c6:	2e 15       	cp	r18, r14
    19c8:	3f 05       	cpc	r19, r15
    19ca:	0c f4       	brge	.+2      	; 0x19ce <color(char)+0x56a>
    19cc:	ff ce       	rjmp	.-514    	; 0x17cc <color(char)+0x368>
    19ce:	8c 1b       	sub	r24, r28
    19d0:	9d 0b       	sbc	r25, r29
    19d2:	e8 16       	cp	r14, r24
    19d4:	f9 06       	cpc	r15, r25
    19d6:	0c f4       	brge	.+2      	; 0x19da <color(char)+0x576>
    19d8:	f9 ce       	rjmp	.-526    	; 0x17cc <color(char)+0x368>
    19da:	8e e5       	ldi	r24, 0x5E	; 94
    19dc:	90 e0       	ldi	r25, 0x00	; 0
    19de:	0e 94 1c 0a 	call	0x1438	; 0x1438 <EEPROM_read_int(int)>
    19e2:	9c 01       	movw	r18, r24
    19e4:	2c 1b       	sub	r18, r28
    19e6:	3d 0b       	sbc	r19, r29
    19e8:	02 17       	cp	r16, r18
    19ea:	13 07       	cpc	r17, r19
    19ec:	0c f4       	brge	.+2      	; 0x19f0 <color(char)+0x58c>
    19ee:	ee ce       	rjmp	.-548    	; 0x17cc <color(char)+0x368>
    19f0:	8c 0f       	add	r24, r28
    19f2:	9d 1f       	adc	r25, r29
    19f4:	80 17       	cp	r24, r16
    19f6:	91 07       	cpc	r25, r17
    19f8:	0c f4       	brge	.+2      	; 0x19fc <color(char)+0x598>
    19fa:	e8 ce       	rjmp	.-560    	; 0x17cc <color(char)+0x368>
    19fc:	80 e6       	ldi	r24, 0x60	; 96
    19fe:	90 e0       	ldi	r25, 0x00	; 0
    1a00:	0e 94 1c 0a 	call	0x1438	; 0x1438 <EEPROM_read_int(int)>
    1a04:	9c 01       	movw	r18, r24
    1a06:	2c 1b       	sub	r18, r28
    1a08:	3d 0b       	sbc	r19, r29
    1a0a:	c2 16       	cp	r12, r18
    1a0c:	d3 06       	cpc	r13, r19
    1a0e:	0c f4       	brge	.+2      	; 0x1a12 <color(char)+0x5ae>
    1a10:	dd ce       	rjmp	.-582    	; 0x17cc <color(char)+0x368>
    1a12:	8c 0f       	add	r24, r28
    1a14:	9d 1f       	adc	r25, r29
    1a16:	8c 15       	cp	r24, r12
    1a18:	9d 05       	cpc	r25, r13
    1a1a:	0c f4       	brge	.+2      	; 0x1a1e <color(char)+0x5ba>
    1a1c:	d7 ce       	rjmp	.-594    	; 0x17cc <color(char)+0x368>
    1a1e:	82 e6       	ldi	r24, 0x62	; 98
    1a20:	90 e0       	ldi	r25, 0x00	; 0
    1a22:	c2 ce       	rjmp	.-636    	; 0x17a8 <color(char)+0x344>
C:\Users\Ryan\Documents\GitHub\sport_main_code_2023/sport_menu.h:372
  } else if (select == 2)  // right
  {
    if (red > green && red > blue && red < EEPROM_read_int(red_right_r) + range && red > EEPROM_read_int(red_right_r) - range && green < EEPROM_read_int(red_right_g) + range && green > EEPROM_read_int(red_right_g) - range && blue < EEPROM_read_int(red_right_b) + range && blue > EEPROM_read_int(red_right_b) - range && clear < EEPROM_read_int(red_right_c) + range && clear > EEPROM_read_int(red_right_c) - range)
      color_out = RED;
    //else if (green > red && green > blue && red < EEPROM_read_int(green_right_r) + range && red > EEPROM_read_int(green_right_r) - range && green > EEPROM_read_int(green_right_g)-range/2 && green < EEPROM_read_int(green_right_g) + range && blue < EEPROM_read_int(green_right_b) + range && blue > EEPROM_read_int(green_right_b) - range /*&&  clear < EEPROM_read_int(green_right_c) + range */ && clear > EEPROM_read_int(green_right_c) - range/2)
    else if (green > red && green > blue && red < EEPROM_read_int(green_right_r) + range && red > EEPROM_read_int(green_right_r) - range && green < EEPROM_read_int(green_right_g) + range && green > EEPROM_read_int(green_right_g) - range && blue < EEPROM_read_int(green_right_b) + range && blue > EEPROM_read_int(green_right_b) - range && clear < EEPROM_read_int(green_right_c) + range && clear > EEPROM_read_int(green_right_c) - range)
    1a24:	e0 16       	cp	r14, r16
    1a26:	f1 06       	cpc	r15, r17
    1a28:	0c f4       	brge	.+2      	; 0x1a2c <color(char)+0x5c8>
    1a2a:	51 c0       	rjmp	.+162    	; 0x1ace <color(char)+0x66a>
C:\Users\Ryan\Documents\GitHub\sport_main_code_2023/sport_menu.h:375
      color_out = GREEN;

    else if (blue > red && blue > green && red < EEPROM_read_int(blue_right_r) + range && red > EEPROM_read_int(blue_right_r) - range && green < EEPROM_read_int(blue_right_g) + range && green > EEPROM_read_int(blue_right_g) - range && blue < EEPROM_read_int(blue_right_b) + range && blue > EEPROM_read_int(blue_right_b) - range && clear < EEPROM_read_int(blue_right_c) + range && clear > EEPROM_read_int(blue_right_c) - range)
    1a2c:	ec 14       	cp	r14, r12
    1a2e:	fd 04       	cpc	r15, r13
    1a30:	0c f0       	brlt	.+2      	; 0x1a34 <color(char)+0x5d0>
    1a32:	b7 cf       	rjmp	.-146    	; 0x19a2 <color(char)+0x53e>
    1a34:	0c 15       	cp	r16, r12
    1a36:	1d 05       	cpc	r17, r13
    1a38:	0c f0       	brlt	.+2      	; 0x1a3c <color(char)+0x5d8>
    1a3a:	b3 cf       	rjmp	.-154    	; 0x19a2 <color(char)+0x53e>
    1a3c:	8c e4       	ldi	r24, 0x4C	; 76
    1a3e:	90 e0       	ldi	r25, 0x00	; 0
    1a40:	0e 94 1c 0a 	call	0x1438	; 0x1438 <EEPROM_read_int(int)>
    1a44:	9e 01       	movw	r18, r28
    1a46:	28 0f       	add	r18, r24
    1a48:	39 1f       	adc	r19, r25
    1a4a:	e2 16       	cp	r14, r18
    1a4c:	f3 06       	cpc	r15, r19
    1a4e:	0c f0       	brlt	.+2      	; 0x1a52 <color(char)+0x5ee>
    1a50:	a8 cf       	rjmp	.-176    	; 0x19a2 <color(char)+0x53e>
    1a52:	8c 1b       	sub	r24, r28
    1a54:	9d 0b       	sbc	r25, r29
    1a56:	8e 15       	cp	r24, r14
    1a58:	9f 05       	cpc	r25, r15
    1a5a:	0c f0       	brlt	.+2      	; 0x1a5e <color(char)+0x5fa>
    1a5c:	a2 cf       	rjmp	.-188    	; 0x19a2 <color(char)+0x53e>
    1a5e:	8e e4       	ldi	r24, 0x4E	; 78
    1a60:	90 e0       	ldi	r25, 0x00	; 0
    1a62:	0e 94 1c 0a 	call	0x1438	; 0x1438 <EEPROM_read_int(int)>
    1a66:	9e 01       	movw	r18, r28
    1a68:	28 0f       	add	r18, r24
    1a6a:	39 1f       	adc	r19, r25
    1a6c:	02 17       	cp	r16, r18
    1a6e:	13 07       	cpc	r17, r19
    1a70:	0c f0       	brlt	.+2      	; 0x1a74 <color(char)+0x610>
    1a72:	97 cf       	rjmp	.-210    	; 0x19a2 <color(char)+0x53e>
    1a74:	8c 1b       	sub	r24, r28
    1a76:	9d 0b       	sbc	r25, r29
    1a78:	80 17       	cp	r24, r16
    1a7a:	91 07       	cpc	r25, r17
    1a7c:	0c f0       	brlt	.+2      	; 0x1a80 <color(char)+0x61c>
    1a7e:	91 cf       	rjmp	.-222    	; 0x19a2 <color(char)+0x53e>
    1a80:	80 e5       	ldi	r24, 0x50	; 80
    1a82:	90 e0       	ldi	r25, 0x00	; 0
    1a84:	0e 94 1c 0a 	call	0x1438	; 0x1438 <EEPROM_read_int(int)>
    1a88:	9e 01       	movw	r18, r28
    1a8a:	28 0f       	add	r18, r24
    1a8c:	39 1f       	adc	r19, r25
    1a8e:	c2 16       	cp	r12, r18
    1a90:	d3 06       	cpc	r13, r19
    1a92:	0c f0       	brlt	.+2      	; 0x1a96 <color(char)+0x632>
    1a94:	86 cf       	rjmp	.-244    	; 0x19a2 <color(char)+0x53e>
    1a96:	8c 1b       	sub	r24, r28
    1a98:	9d 0b       	sbc	r25, r29
    1a9a:	8c 15       	cp	r24, r12
    1a9c:	9d 05       	cpc	r25, r13
    1a9e:	0c f0       	brlt	.+2      	; 0x1aa2 <color(char)+0x63e>
    1aa0:	80 cf       	rjmp	.-256    	; 0x19a2 <color(char)+0x53e>
    1aa2:	82 e5       	ldi	r24, 0x52	; 82
    1aa4:	90 e0       	ldi	r25, 0x00	; 0
    1aa6:	0e 94 1c 0a 	call	0x1438	; 0x1438 <EEPROM_read_int(int)>
    1aaa:	20 91 c5 08 	lds	r18, 0x08C5	; 0x8008c5 <clear>
    1aae:	30 91 c6 08 	lds	r19, 0x08C6	; 0x8008c6 <clear+0x1>
    1ab2:	ae 01       	movw	r20, r28
    1ab4:	48 0f       	add	r20, r24
    1ab6:	59 1f       	adc	r21, r25
    1ab8:	24 17       	cp	r18, r20
    1aba:	35 07       	cpc	r19, r21
    1abc:	0c f0       	brlt	.+2      	; 0x1ac0 <color(char)+0x65c>
    1abe:	71 cf       	rjmp	.-286    	; 0x19a2 <color(char)+0x53e>
    1ac0:	8c 1b       	sub	r24, r28
    1ac2:	9d 0b       	sbc	r25, r29
    1ac4:	82 17       	cp	r24, r18
    1ac6:	93 07       	cpc	r25, r19
    1ac8:	0c f4       	brge	.+2      	; 0x1acc <color(char)+0x668>
    1aca:	cf ce       	rjmp	.-610    	; 0x186a <color(char)+0x406>
    1acc:	6a cf       	rjmp	.-300    	; 0x19a2 <color(char)+0x53e>
C:\Users\Ryan\Documents\GitHub\sport_main_code_2023/sport_menu.h:372
  } else if (select == 2)  // right
  {
    if (red > green && red > blue && red < EEPROM_read_int(red_right_r) + range && red > EEPROM_read_int(red_right_r) - range && green < EEPROM_read_int(red_right_g) + range && green > EEPROM_read_int(red_right_g) - range && blue < EEPROM_read_int(red_right_b) + range && blue > EEPROM_read_int(red_right_b) - range && clear < EEPROM_read_int(red_right_c) + range && clear > EEPROM_read_int(red_right_c) - range)
      color_out = RED;
    //else if (green > red && green > blue && red < EEPROM_read_int(green_right_r) + range && red > EEPROM_read_int(green_right_r) - range && green > EEPROM_read_int(green_right_g)-range/2 && green < EEPROM_read_int(green_right_g) + range && blue < EEPROM_read_int(green_right_b) + range && blue > EEPROM_read_int(green_right_b) - range /*&&  clear < EEPROM_read_int(green_right_c) + range */ && clear > EEPROM_read_int(green_right_c) - range/2)
    else if (green > red && green > blue && red < EEPROM_read_int(green_right_r) + range && red > EEPROM_read_int(green_right_r) - range && green < EEPROM_read_int(green_right_g) + range && green > EEPROM_read_int(green_right_g) - range && blue < EEPROM_read_int(green_right_b) + range && blue > EEPROM_read_int(green_right_b) - range && clear < EEPROM_read_int(green_right_c) + range && clear > EEPROM_read_int(green_right_c) - range)
    1ace:	c0 16       	cp	r12, r16
    1ad0:	d1 06       	cpc	r13, r17
    1ad2:	0c f0       	brlt	.+2      	; 0x1ad6 <color(char)+0x672>
    1ad4:	ab cf       	rjmp	.-170    	; 0x1a2c <color(char)+0x5c8>
    1ad6:	84 e4       	ldi	r24, 0x44	; 68
    1ad8:	90 e0       	ldi	r25, 0x00	; 0
    1ada:	0e 94 1c 0a 	call	0x1438	; 0x1438 <EEPROM_read_int(int)>
    1ade:	9e 01       	movw	r18, r28
    1ae0:	28 0f       	add	r18, r24
    1ae2:	39 1f       	adc	r19, r25
    1ae4:	e2 16       	cp	r14, r18
    1ae6:	f3 06       	cpc	r15, r19
    1ae8:	0c f0       	brlt	.+2      	; 0x1aec <color(char)+0x688>
    1aea:	a0 cf       	rjmp	.-192    	; 0x1a2c <color(char)+0x5c8>
    1aec:	8c 1b       	sub	r24, r28
    1aee:	9d 0b       	sbc	r25, r29
    1af0:	8e 15       	cp	r24, r14
    1af2:	9f 05       	cpc	r25, r15
    1af4:	0c f0       	brlt	.+2      	; 0x1af8 <color(char)+0x694>
    1af6:	9a cf       	rjmp	.-204    	; 0x1a2c <color(char)+0x5c8>
    1af8:	86 e4       	ldi	r24, 0x46	; 70
    1afa:	90 e0       	ldi	r25, 0x00	; 0
    1afc:	0e 94 1c 0a 	call	0x1438	; 0x1438 <EEPROM_read_int(int)>
    1b00:	9e 01       	movw	r18, r28
    1b02:	28 0f       	add	r18, r24
    1b04:	39 1f       	adc	r19, r25
    1b06:	02 17       	cp	r16, r18
    1b08:	13 07       	cpc	r17, r19
    1b0a:	0c f0       	brlt	.+2      	; 0x1b0e <color(char)+0x6aa>
    1b0c:	8f cf       	rjmp	.-226    	; 0x1a2c <color(char)+0x5c8>
    1b0e:	8c 1b       	sub	r24, r28
    1b10:	9d 0b       	sbc	r25, r29
    1b12:	80 17       	cp	r24, r16
    1b14:	91 07       	cpc	r25, r17
    1b16:	0c f0       	brlt	.+2      	; 0x1b1a <color(char)+0x6b6>
    1b18:	89 cf       	rjmp	.-238    	; 0x1a2c <color(char)+0x5c8>
    1b1a:	88 e4       	ldi	r24, 0x48	; 72
    1b1c:	90 e0       	ldi	r25, 0x00	; 0
    1b1e:	0e 94 1c 0a 	call	0x1438	; 0x1438 <EEPROM_read_int(int)>
    1b22:	9e 01       	movw	r18, r28
    1b24:	28 0f       	add	r18, r24
    1b26:	39 1f       	adc	r19, r25
    1b28:	c2 16       	cp	r12, r18
    1b2a:	d3 06       	cpc	r13, r19
    1b2c:	0c f0       	brlt	.+2      	; 0x1b30 <color(char)+0x6cc>
    1b2e:	7e cf       	rjmp	.-260    	; 0x1a2c <color(char)+0x5c8>
    1b30:	8c 1b       	sub	r24, r28
    1b32:	9d 0b       	sbc	r25, r29
    1b34:	8c 15       	cp	r24, r12
    1b36:	9d 05       	cpc	r25, r13
    1b38:	0c f0       	brlt	.+2      	; 0x1b3c <color(char)+0x6d8>
    1b3a:	78 cf       	rjmp	.-272    	; 0x1a2c <color(char)+0x5c8>
    1b3c:	8a e4       	ldi	r24, 0x4A	; 74
    1b3e:	90 e0       	ldi	r25, 0x00	; 0
    1b40:	0e 94 1c 0a 	call	0x1438	; 0x1438 <EEPROM_read_int(int)>
    1b44:	20 91 c5 08 	lds	r18, 0x08C5	; 0x8008c5 <clear>
    1b48:	30 91 c6 08 	lds	r19, 0x08C6	; 0x8008c6 <clear+0x1>
    1b4c:	ae 01       	movw	r20, r28
    1b4e:	48 0f       	add	r20, r24
    1b50:	59 1f       	adc	r21, r25
    1b52:	24 17       	cp	r18, r20
    1b54:	35 07       	cpc	r19, r21
    1b56:	0c f0       	brlt	.+2      	; 0x1b5a <color(char)+0x6f6>
    1b58:	69 cf       	rjmp	.-302    	; 0x1a2c <color(char)+0x5c8>
    1b5a:	8c 1b       	sub	r24, r28
    1b5c:	9d 0b       	sbc	r25, r29
    1b5e:	82 17       	cp	r24, r18
    1b60:	93 07       	cpc	r25, r19
    1b62:	0c f0       	brlt	.+2      	; 0x1b66 <color(char)+0x702>
    1b64:	63 cf       	rjmp	.-314    	; 0x1a2c <color(char)+0x5c8>
C:\Users\Ryan\Documents\GitHub\sport_main_code_2023/sport_menu.h:396
  {
    if (red > green && red > blue && red < EEPROM_read_int(red_front_r) + range && red > EEPROM_read_int(red_front_r) - range && green < EEPROM_read_int(red_front_g) + range && green > EEPROM_read_int(red_front_g) - range && blue < EEPROM_read_int(red_front_b) + range && blue > EEPROM_read_int(red_front_b) - range && clear < EEPROM_read_int(red_front_c) + range && clear > EEPROM_read_int(red_front_c) - range)
      color_out = RED;

    else if (green > red && green > blue && red < EEPROM_read_int(green_front_r) + range && red > EEPROM_read_int(green_front_r) - range && green < EEPROM_read_int(green_front_g) + range && green > EEPROM_read_int(green_front_g) - range && blue < EEPROM_read_int(green_front_b) + range && blue > EEPROM_read_int(green_front_b) - range && clear < EEPROM_read_int(green_front_c) + range && clear > EEPROM_read_int(green_front_c) - range)
      color_out = GREEN;
    1b66:	81 e0       	ldi	r24, 0x01	; 1
    1b68:	90 e0       	ldi	r25, 0x00	; 0
    1b6a:	81 ce       	rjmp	.-766    	; 0x186e <color(char)+0x40a>
C:\Users\Ryan\Documents\GitHub\sport_main_code_2023/sport_menu.h:378
      color_out = GREEN;

    else if (blue > red && blue > green && red < EEPROM_read_int(blue_right_r) + range && red > EEPROM_read_int(blue_right_r) - range && green < EEPROM_read_int(blue_right_g) + range && green > EEPROM_read_int(blue_right_g) - range && blue < EEPROM_read_int(blue_right_b) + range && blue > EEPROM_read_int(blue_right_b) - range && clear < EEPROM_read_int(blue_right_c) + range && clear > EEPROM_read_int(blue_right_c) - range)
      color_out = BLUE;

    else if (red < EEPROM_read_int(yellow_right_r) + range && red > EEPROM_read_int(yellow_right_r) - range && green < EEPROM_read_int(yellow_right_g) + range && green > EEPROM_read_int(yellow_right_g) - range && blue < EEPROM_read_int(yellow_right_b) + range && blue > EEPROM_read_int(yellow_right_b) - range && clear < EEPROM_read_int(yellow_right_c) + range && clear > EEPROM_read_int(yellow_right_c) - range)
    1b6c:	8c 1b       	sub	r24, r28
    1b6e:	9d 0b       	sbc	r25, r29
    1b70:	8e 15       	cp	r24, r14
    1b72:	9f 05       	cpc	r25, r15
    1b74:	0c f0       	brlt	.+2      	; 0x1b78 <color(char)+0x714>
    1b76:	20 cf       	rjmp	.-448    	; 0x19b8 <color(char)+0x554>
    1b78:	86 e5       	ldi	r24, 0x56	; 86
    1b7a:	90 e0       	ldi	r25, 0x00	; 0
    1b7c:	0e 94 1c 0a 	call	0x1438	; 0x1438 <EEPROM_read_int(int)>
    1b80:	9e 01       	movw	r18, r28
    1b82:	28 0f       	add	r18, r24
    1b84:	39 1f       	adc	r19, r25
    1b86:	02 17       	cp	r16, r18
    1b88:	13 07       	cpc	r17, r19
    1b8a:	0c f0       	brlt	.+2      	; 0x1b8e <color(char)+0x72a>
    1b8c:	15 cf       	rjmp	.-470    	; 0x19b8 <color(char)+0x554>
    1b8e:	8c 1b       	sub	r24, r28
    1b90:	9d 0b       	sbc	r25, r29
    1b92:	80 17       	cp	r24, r16
    1b94:	91 07       	cpc	r25, r17
    1b96:	0c f0       	brlt	.+2      	; 0x1b9a <color(char)+0x736>
    1b98:	0f cf       	rjmp	.-482    	; 0x19b8 <color(char)+0x554>
    1b9a:	88 e5       	ldi	r24, 0x58	; 88
    1b9c:	90 e0       	ldi	r25, 0x00	; 0
    1b9e:	0e 94 1c 0a 	call	0x1438	; 0x1438 <EEPROM_read_int(int)>
    1ba2:	9e 01       	movw	r18, r28
    1ba4:	28 0f       	add	r18, r24
    1ba6:	39 1f       	adc	r19, r25
    1ba8:	c2 16       	cp	r12, r18
    1baa:	d3 06       	cpc	r13, r19
    1bac:	0c f0       	brlt	.+2      	; 0x1bb0 <color(char)+0x74c>
    1bae:	04 cf       	rjmp	.-504    	; 0x19b8 <color(char)+0x554>
    1bb0:	8c 1b       	sub	r24, r28
    1bb2:	9d 0b       	sbc	r25, r29
    1bb4:	8c 15       	cp	r24, r12
    1bb6:	9d 05       	cpc	r25, r13
    1bb8:	0c f0       	brlt	.+2      	; 0x1bbc <color(char)+0x758>
    1bba:	fe ce       	rjmp	.-516    	; 0x19b8 <color(char)+0x554>
    1bbc:	8a e5       	ldi	r24, 0x5A	; 90
    1bbe:	90 e0       	ldi	r25, 0x00	; 0
    1bc0:	0e 94 1c 0a 	call	0x1438	; 0x1438 <EEPROM_read_int(int)>
    1bc4:	20 91 c5 08 	lds	r18, 0x08C5	; 0x8008c5 <clear>
    1bc8:	30 91 c6 08 	lds	r19, 0x08C6	; 0x8008c6 <clear+0x1>
    1bcc:	ae 01       	movw	r20, r28
    1bce:	48 0f       	add	r20, r24
    1bd0:	59 1f       	adc	r21, r25
    1bd2:	24 17       	cp	r18, r20
    1bd4:	35 07       	cpc	r19, r21
    1bd6:	0c f0       	brlt	.+2      	; 0x1bda <color(char)+0x776>
    1bd8:	ef ce       	rjmp	.-546    	; 0x19b8 <color(char)+0x554>
    1bda:	8c 1b       	sub	r24, r28
    1bdc:	9d 0b       	sbc	r25, r29
    1bde:	82 17       	cp	r24, r18
    1be0:	93 07       	cpc	r25, r19
    1be2:	0c f4       	brge	.+2      	; 0x1be6 <color(char)+0x782>
    1be4:	86 ce       	rjmp	.-756    	; 0x18f2 <color(char)+0x48e>
    1be6:	e8 ce       	rjmp	.-560    	; 0x19b8 <color(char)+0x554>
C:\Users\Ryan\Documents\GitHub\sport_main_code_2023/sport_menu.h:383
      color_out = YELLOW;

    else if (
      red <= (EEPROM_read_int(silver_right_r) + range) && red >= (EEPROM_read_int(silver_right_r) - range) && green >= (EEPROM_read_int(silver_right_g) - range) && green <= (EEPROM_read_int(silver_right_g) + range) && blue >= (EEPROM_read_int(silver_right_b) - range) && blue <= (EEPROM_read_int(silver_right_b) + range) && clear <= (EEPROM_read_int(silver_right_c) + range) && clear >= (EEPROM_read_int(silver_right_c) - range)) {
      color_out = SILVER;
    1be8:	85 e0       	ldi	r24, 0x05	; 5
    1bea:	90 e0       	ldi	r25, 0x00	; 0
    1bec:	40 ce       	rjmp	.-896    	; 0x186e <color(char)+0x40a>
C:\Users\Ryan\Documents\GitHub\sport_main_code_2023/sport_menu.h:392
      color_out = WHITE;

    return color_out;
  } else if (select == 3)  // front
  {
    if (red > green && red > blue && red < EEPROM_read_int(red_front_r) + range && red > EEPROM_read_int(red_front_r) - range && green < EEPROM_read_int(red_front_g) + range && green > EEPROM_read_int(red_front_g) - range && blue < EEPROM_read_int(red_front_b) + range && blue > EEPROM_read_int(red_front_b) - range && clear < EEPROM_read_int(red_front_c) + range && clear > EEPROM_read_int(red_front_c) - range)
    1bee:	0e 15       	cp	r16, r14
    1bf0:	1f 05       	cpc	r17, r15
    1bf2:	0c f0       	brlt	.+2      	; 0x1bf6 <color(char)+0x792>
    1bf4:	57 c0       	rjmp	.+174    	; 0x1ca4 <color(char)+0x840>
    1bf6:	c0 90 c7 08 	lds	r12, 0x08C7	; 0x8008c7 <blue>
    1bfa:	d0 90 c8 08 	lds	r13, 0x08C8	; 0x8008c8 <blue+0x1>
    1bfe:	ce 14       	cp	r12, r14
    1c00:	df 04       	cpc	r13, r15
    1c02:	0c f0       	brlt	.+2      	; 0x1c06 <color(char)+0x7a2>
    1c04:	e3 cd       	rjmp	.-1082   	; 0x17cc <color(char)+0x368>
    1c06:	84 e6       	ldi	r24, 0x64	; 100
    1c08:	90 e0       	ldi	r25, 0x00	; 0
    1c0a:	0e 94 1c 0a 	call	0x1438	; 0x1438 <EEPROM_read_int(int)>
    1c0e:	5c 01       	movw	r10, r24
    1c10:	8a e9       	ldi	r24, 0x9A	; 154
    1c12:	90 e0       	ldi	r25, 0x00	; 0
    1c14:	0e 94 1c 0a 	call	0x1438	; 0x1438 <EEPROM_read_int(int)>
    1c18:	ec 01       	movw	r28, r24
    1c1a:	c5 01       	movw	r24, r10
    1c1c:	8c 0f       	add	r24, r28
    1c1e:	9d 1f       	adc	r25, r29
    1c20:	e8 16       	cp	r14, r24
    1c22:	f9 06       	cpc	r15, r25
    1c24:	0c f0       	brlt	.+2      	; 0x1c28 <color(char)+0x7c4>
    1c26:	d2 cd       	rjmp	.-1116   	; 0x17cc <color(char)+0x368>
    1c28:	ac 1a       	sub	r10, r28
    1c2a:	bd 0a       	sbc	r11, r29
    1c2c:	ae 14       	cp	r10, r14
    1c2e:	bf 04       	cpc	r11, r15
    1c30:	0c f0       	brlt	.+2      	; 0x1c34 <color(char)+0x7d0>
    1c32:	cc cd       	rjmp	.-1128   	; 0x17cc <color(char)+0x368>
    1c34:	86 e6       	ldi	r24, 0x66	; 102
    1c36:	90 e0       	ldi	r25, 0x00	; 0
    1c38:	0e 94 1c 0a 	call	0x1438	; 0x1438 <EEPROM_read_int(int)>
    1c3c:	9e 01       	movw	r18, r28
    1c3e:	28 0f       	add	r18, r24
    1c40:	39 1f       	adc	r19, r25
    1c42:	02 17       	cp	r16, r18
    1c44:	13 07       	cpc	r17, r19
    1c46:	0c f0       	brlt	.+2      	; 0x1c4a <color(char)+0x7e6>
    1c48:	c1 cd       	rjmp	.-1150   	; 0x17cc <color(char)+0x368>
    1c4a:	8c 1b       	sub	r24, r28
    1c4c:	9d 0b       	sbc	r25, r29
    1c4e:	80 17       	cp	r24, r16
    1c50:	91 07       	cpc	r25, r17
    1c52:	0c f0       	brlt	.+2      	; 0x1c56 <color(char)+0x7f2>
    1c54:	bb cd       	rjmp	.-1162   	; 0x17cc <color(char)+0x368>
    1c56:	88 e6       	ldi	r24, 0x68	; 104
    1c58:	90 e0       	ldi	r25, 0x00	; 0
    1c5a:	0e 94 1c 0a 	call	0x1438	; 0x1438 <EEPROM_read_int(int)>
    1c5e:	9e 01       	movw	r18, r28
    1c60:	28 0f       	add	r18, r24
    1c62:	39 1f       	adc	r19, r25
    1c64:	c2 16       	cp	r12, r18
    1c66:	d3 06       	cpc	r13, r19
    1c68:	0c f0       	brlt	.+2      	; 0x1c6c <color(char)+0x808>
    1c6a:	b0 cd       	rjmp	.-1184   	; 0x17cc <color(char)+0x368>
    1c6c:	8c 1b       	sub	r24, r28
    1c6e:	9d 0b       	sbc	r25, r29
    1c70:	8c 15       	cp	r24, r12
    1c72:	9d 05       	cpc	r25, r13
    1c74:	0c f0       	brlt	.+2      	; 0x1c78 <color(char)+0x814>
    1c76:	aa cd       	rjmp	.-1196   	; 0x17cc <color(char)+0x368>
    1c78:	8a e6       	ldi	r24, 0x6A	; 106
    1c7a:	90 e0       	ldi	r25, 0x00	; 0
    1c7c:	0e 94 1c 0a 	call	0x1438	; 0x1438 <EEPROM_read_int(int)>
    1c80:	20 91 c5 08 	lds	r18, 0x08C5	; 0x8008c5 <clear>
    1c84:	30 91 c6 08 	lds	r19, 0x08C6	; 0x8008c6 <clear+0x1>
    1c88:	ae 01       	movw	r20, r28
    1c8a:	48 0f       	add	r20, r24
    1c8c:	59 1f       	adc	r21, r25
    1c8e:	24 17       	cp	r18, r20
    1c90:	35 07       	cpc	r19, r21
    1c92:	0c f0       	brlt	.+2      	; 0x1c96 <color(char)+0x832>
    1c94:	9b cd       	rjmp	.-1226   	; 0x17cc <color(char)+0x368>
    1c96:	8c 1b       	sub	r24, r28
    1c98:	9d 0b       	sbc	r25, r29
    1c9a:	82 17       	cp	r24, r18
    1c9c:	93 07       	cpc	r25, r19
    1c9e:	0c f4       	brge	.+2      	; 0x1ca2 <color(char)+0x83e>
    1ca0:	d3 cc       	rjmp	.-1626   	; 0x1648 <color(char)+0x1e4>
    1ca2:	94 cd       	rjmp	.-1240   	; 0x17cc <color(char)+0x368>
C:\Users\Ryan\Documents\GitHub\sport_main_code_2023/sport_menu.h:395
      color_out = RED;

    else if (green > red && green > blue && red < EEPROM_read_int(green_front_r) + range && red > EEPROM_read_int(green_front_r) - range && green < EEPROM_read_int(green_front_g) + range && green > EEPROM_read_int(green_front_g) - range && blue < EEPROM_read_int(green_front_b) + range && blue > EEPROM_read_int(green_front_b) - range && clear < EEPROM_read_int(green_front_c) + range && clear > EEPROM_read_int(green_front_c) - range)
    1ca4:	e0 16       	cp	r14, r16
    1ca6:	f1 06       	cpc	r15, r17
    1ca8:	0c f0       	brlt	.+2      	; 0x1cac <color(char)+0x848>
    1caa:	90 cd       	rjmp	.-1248   	; 0x17cc <color(char)+0x368>
    1cac:	c0 90 c7 08 	lds	r12, 0x08C7	; 0x8008c7 <blue>
    1cb0:	d0 90 c8 08 	lds	r13, 0x08C8	; 0x8008c8 <blue+0x1>
    1cb4:	c0 16       	cp	r12, r16
    1cb6:	d1 06       	cpc	r13, r17
    1cb8:	0c f0       	brlt	.+2      	; 0x1cbc <color(char)+0x858>
    1cba:	88 cd       	rjmp	.-1264   	; 0x17cc <color(char)+0x368>
    1cbc:	8c e6       	ldi	r24, 0x6C	; 108
    1cbe:	90 e0       	ldi	r25, 0x00	; 0
    1cc0:	0e 94 1c 0a 	call	0x1438	; 0x1438 <EEPROM_read_int(int)>
    1cc4:	5c 01       	movw	r10, r24
    1cc6:	8a e9       	ldi	r24, 0x9A	; 154
    1cc8:	90 e0       	ldi	r25, 0x00	; 0
    1cca:	0e 94 1c 0a 	call	0x1438	; 0x1438 <EEPROM_read_int(int)>
    1cce:	ec 01       	movw	r28, r24
    1cd0:	c5 01       	movw	r24, r10
    1cd2:	8c 0f       	add	r24, r28
    1cd4:	9d 1f       	adc	r25, r29
    1cd6:	e8 16       	cp	r14, r24
    1cd8:	f9 06       	cpc	r15, r25
    1cda:	0c f0       	brlt	.+2      	; 0x1cde <color(char)+0x87a>
    1cdc:	77 cd       	rjmp	.-1298   	; 0x17cc <color(char)+0x368>
    1cde:	ac 1a       	sub	r10, r28
    1ce0:	bd 0a       	sbc	r11, r29
    1ce2:	ae 14       	cp	r10, r14
    1ce4:	bf 04       	cpc	r11, r15
    1ce6:	0c f0       	brlt	.+2      	; 0x1cea <color(char)+0x886>
    1ce8:	71 cd       	rjmp	.-1310   	; 0x17cc <color(char)+0x368>
    1cea:	8e e6       	ldi	r24, 0x6E	; 110
    1cec:	90 e0       	ldi	r25, 0x00	; 0
    1cee:	0e 94 1c 0a 	call	0x1438	; 0x1438 <EEPROM_read_int(int)>
    1cf2:	9e 01       	movw	r18, r28
    1cf4:	28 0f       	add	r18, r24
    1cf6:	39 1f       	adc	r19, r25
    1cf8:	02 17       	cp	r16, r18
    1cfa:	13 07       	cpc	r17, r19
    1cfc:	0c f0       	brlt	.+2      	; 0x1d00 <color(char)+0x89c>
    1cfe:	66 cd       	rjmp	.-1332   	; 0x17cc <color(char)+0x368>
    1d00:	8c 1b       	sub	r24, r28
    1d02:	9d 0b       	sbc	r25, r29
    1d04:	80 17       	cp	r24, r16
    1d06:	91 07       	cpc	r25, r17
    1d08:	0c f0       	brlt	.+2      	; 0x1d0c <color(char)+0x8a8>
    1d0a:	60 cd       	rjmp	.-1344   	; 0x17cc <color(char)+0x368>
    1d0c:	80 e7       	ldi	r24, 0x70	; 112
    1d0e:	90 e0       	ldi	r25, 0x00	; 0
    1d10:	0e 94 1c 0a 	call	0x1438	; 0x1438 <EEPROM_read_int(int)>
    1d14:	9e 01       	movw	r18, r28
    1d16:	28 0f       	add	r18, r24
    1d18:	39 1f       	adc	r19, r25
    1d1a:	c2 16       	cp	r12, r18
    1d1c:	d3 06       	cpc	r13, r19
    1d1e:	0c f0       	brlt	.+2      	; 0x1d22 <color(char)+0x8be>
    1d20:	55 cd       	rjmp	.-1366   	; 0x17cc <color(char)+0x368>
    1d22:	8c 1b       	sub	r24, r28
    1d24:	9d 0b       	sbc	r25, r29
    1d26:	8c 15       	cp	r24, r12
    1d28:	9d 05       	cpc	r25, r13
    1d2a:	0c f0       	brlt	.+2      	; 0x1d2e <color(char)+0x8ca>
    1d2c:	4f cd       	rjmp	.-1378   	; 0x17cc <color(char)+0x368>
    1d2e:	82 e7       	ldi	r24, 0x72	; 114
    1d30:	90 e0       	ldi	r25, 0x00	; 0
    1d32:	0e 94 1c 0a 	call	0x1438	; 0x1438 <EEPROM_read_int(int)>
    1d36:	20 91 c5 08 	lds	r18, 0x08C5	; 0x8008c5 <clear>
    1d3a:	30 91 c6 08 	lds	r19, 0x08C6	; 0x8008c6 <clear+0x1>
    1d3e:	ae 01       	movw	r20, r28
    1d40:	48 0f       	add	r20, r24
    1d42:	59 1f       	adc	r21, r25
    1d44:	24 17       	cp	r18, r20
    1d46:	35 07       	cpc	r19, r21
    1d48:	0c f0       	brlt	.+2      	; 0x1d4c <color(char)+0x8e8>
    1d4a:	40 cd       	rjmp	.-1408   	; 0x17cc <color(char)+0x368>
    1d4c:	8c 1b       	sub	r24, r28
    1d4e:	9d 0b       	sbc	r25, r29
    1d50:	82 17       	cp	r24, r18
    1d52:	93 07       	cpc	r25, r19
    1d54:	0c f4       	brge	.+2      	; 0x1d58 <color(char)+0x8f4>
    1d56:	07 cf       	rjmp	.-498    	; 0x1b66 <color(char)+0x702>
    1d58:	39 cd       	rjmp	.-1422   	; 0x17cc <color(char)+0x368>

00001d5a <get_back()>:
get_back():
C:\Users\Ryan\Documents\GitHub\sport_main_code_2023/sport_menu.h:1480
  Serial.begin(115200);
  dxl_init(115200);
  lcd.begin(20, 4);
  delay(800);
}
void get_back(void) {
    1d5a:	0f 93       	push	r16
    1d5c:	1f 93       	push	r17
    1d5e:	cf 93       	push	r28
    1d60:	df 93       	push	r29
C:\Users\Ryan\Documents\GitHub\sport_main_code_2023/sport_menu.h:1481
  int T90 = EEPROM_read_int(T90_address);
    1d62:	88 e9       	ldi	r24, 0x98	; 152
    1d64:	90 e0       	ldi	r25, 0x00	; 0
    1d66:	0e 94 1c 0a 	call	0x1438	; 0x1438 <EEPROM_read_int(int)>
    1d6a:	ec 01       	movw	r28, r24
C:\Users\Ryan\Documents\GitHub\sport_main_code_2023/sport_menu.h:1483

  while (!(intersectionL && intersectionR) && color_L == WHITE && color_R == WHITE) {
    1d6c:	40 e0       	ldi	r20, 0x00	; 0
    1d6e:	60 e0       	ldi	r22, 0x00	; 0
    1d70:	80 e0       	ldi	r24, 0x00	; 0
    1d72:	0e 94 83 06 	call	0xd06	; 0xd06 <read_sensor(char, char, char)>
    1d76:	89 2b       	or	r24, r25
    1d78:	b9 f0       	breq	.+46     	; 0x1da8 <get_back()+0x4e>
    1d7a:	40 e0       	ldi	r20, 0x00	; 0
    1d7c:	62 e0       	ldi	r22, 0x02	; 2
    1d7e:	82 e0       	ldi	r24, 0x02	; 2
    1d80:	0e 94 83 06 	call	0xd06	; 0xd06 <read_sensor(char, char, char)>
    1d84:	89 2b       	or	r24, r25
    1d86:	f1 f0       	breq	.+60     	; 0x1dc4 <get_back()+0x6a>
    1d88:	40 e0       	ldi	r20, 0x00	; 0
    1d8a:	60 e0       	ldi	r22, 0x00	; 0
    1d8c:	80 e0       	ldi	r24, 0x00	; 0
    1d8e:	0e 94 83 06 	call	0xd06	; 0xd06 <read_sensor(char, char, char)>
    1d92:	89 2b       	or	r24, r25
    1d94:	09 f4       	brne	.+2      	; 0x1d98 <get_back()+0x3e>
    1d96:	4d c0       	rjmp	.+154    	; 0x1e32 <get_back()+0xd8>
    1d98:	40 e0       	ldi	r20, 0x00	; 0
    1d9a:	63 e0       	ldi	r22, 0x03	; 3
    1d9c:	82 e0       	ldi	r24, 0x02	; 2
    1d9e:	0e 94 83 06 	call	0xd06	; 0xd06 <read_sensor(char, char, char)>
    1da2:	89 2b       	or	r24, r25
    1da4:	79 f0       	breq	.+30     	; 0x1dc4 <get_back()+0x6a>
    1da6:	14 c0       	rjmp	.+40     	; 0x1dd0 <get_back()+0x76>
    1da8:	40 e0       	ldi	r20, 0x00	; 0
    1daa:	60 e0       	ldi	r22, 0x00	; 0
    1dac:	81 e0       	ldi	r24, 0x01	; 1
    1dae:	0e 94 83 06 	call	0xd06	; 0xd06 <read_sensor(char, char, char)>
    1db2:	89 2b       	or	r24, r25
    1db4:	11 f7       	brne	.-60     	; 0x1d7a <get_back()+0x20>
    1db6:	40 e0       	ldi	r20, 0x00	; 0
    1db8:	61 e0       	ldi	r22, 0x01	; 1
    1dba:	81 e0       	ldi	r24, 0x01	; 1
    1dbc:	0e 94 83 06 	call	0xd06	; 0xd06 <read_sensor(char, char, char)>
    1dc0:	89 2b       	or	r24, r25
    1dc2:	d9 f6       	brne	.-74     	; 0x1d7a <get_back()+0x20>
    1dc4:	81 e0       	ldi	r24, 0x01	; 1
    1dc6:	0e 94 32 0a 	call	0x1464	; 0x1464 <color(char)>
    1dca:	87 30       	cpi	r24, 0x07	; 7
    1dcc:	09 f4       	brne	.+2      	; 0x1dd0 <get_back()+0x76>
    1dce:	42 c0       	rjmp	.+132    	; 0x1e54 <get_back()+0xfa>
C:\Users\Ryan\Documents\GitHub\sport_main_code_2023/sport_menu.h:1487
    linefollow();
  }
  if (direction == Left) {
    move(forward, T90 / 3, 150);
    1dd0:	ce 01       	movw	r24, r28
    1dd2:	63 e0       	ldi	r22, 0x03	; 3
    1dd4:	70 e0       	ldi	r23, 0x00	; 0
    1dd6:	0e 94 d0 35 	call	0x6ba0	; 0x6ba0 <__divmodhi4>
    1dda:	8b 01       	movw	r16, r22
    1ddc:	46 e9       	ldi	r20, 0x96	; 150
    1dde:	50 e0       	ldi	r21, 0x00	; 0
    1de0:	8a e0       	ldi	r24, 0x0A	; 10
    1de2:	90 e0       	ldi	r25, 0x00	; 0
    1de4:	0e 94 35 07 	call	0xe6a	; 0xe6a <move(int, int, int)>
C:\Users\Ryan\Documents\GitHub\sport_main_code_2023/sport_menu.h:1488
    move(Left, T90 / 1.3, 150);
    1de8:	be 01       	movw	r22, r28
    1dea:	dd 0f       	add	r29, r29
    1dec:	88 0b       	sbc	r24, r24
    1dee:	99 0b       	sbc	r25, r25
    1df0:	0e 94 9f 34 	call	0x693e	; 0x693e <__floatsisf>
    1df4:	26 e6       	ldi	r18, 0x66	; 102
    1df6:	36 e6       	ldi	r19, 0x66	; 102
    1df8:	46 ea       	ldi	r20, 0xA6	; 166
    1dfa:	5f e3       	ldi	r21, 0x3F	; 63
    1dfc:	0e 94 f5 33 	call	0x67ea	; 0x67ea <__divsf3>
    1e00:	0e 94 67 34 	call	0x68ce	; 0x68ce <__fixsfsi>
    1e04:	46 e9       	ldi	r20, 0x96	; 150
    1e06:	50 e0       	ldi	r21, 0x00	; 0
    1e08:	8b e0       	ldi	r24, 0x0B	; 11
    1e0a:	90 e0       	ldi	r25, 0x00	; 0
    1e0c:	0e 94 35 07 	call	0xe6a	; 0xe6a <move(int, int, int)>
C:\Users\Ryan\Documents\GitHub\sport_main_code_2023/sport_menu.h:1489
    move(forward, T90 / 3, 150);
    1e10:	46 e9       	ldi	r20, 0x96	; 150
    1e12:	50 e0       	ldi	r21, 0x00	; 0
    1e14:	b8 01       	movw	r22, r16
    1e16:	8a e0       	ldi	r24, 0x0A	; 10
    1e18:	90 e0       	ldi	r25, 0x00	; 0
    1e1a:	0e 94 35 07 	call	0xe6a	; 0xe6a <move(int, int, int)>
C:\Users\Ryan\Documents\GitHub\sport_main_code_2023/sport_menu.h:1495
  } else if (direction == Right) {
    move(forward, T90 / 3, 150);
    move(Right, T90 / 1.3, 150);
    move(forward, T90 / 3, 150);
  }
  go(60, 60);
    1e1e:	6c e3       	ldi	r22, 0x3C	; 60
    1e20:	70 e0       	ldi	r23, 0x00	; 0
    1e22:	8c e3       	ldi	r24, 0x3C	; 60
    1e24:	90 e0       	ldi	r25, 0x00	; 0
C:\Users\Ryan\Documents\GitHub\sport_main_code_2023/sport_menu.h:1496
}
    1e26:	df 91       	pop	r29
    1e28:	cf 91       	pop	r28
    1e2a:	1f 91       	pop	r17
    1e2c:	0f 91       	pop	r16
C:\Users\Ryan\Documents\GitHub\sport_main_code_2023/sport_menu.h:1495
  } else if (direction == Right) {
    move(forward, T90 / 3, 150);
    move(Right, T90 / 1.3, 150);
    move(forward, T90 / 3, 150);
  }
  go(60, 60);
    1e2e:	0c 94 d0 06 	jmp	0xda0	; 0xda0 <go(int, int)>
C:\Users\Ryan\Documents\GitHub\sport_main_code_2023/sport_menu.h:1483
  delay(800);
}
void get_back(void) {
  int T90 = EEPROM_read_int(T90_address);

  while (!(intersectionL && intersectionR) && color_L == WHITE && color_R == WHITE) {
    1e32:	40 e0       	ldi	r20, 0x00	; 0
    1e34:	60 e0       	ldi	r22, 0x00	; 0
    1e36:	81 e0       	ldi	r24, 0x01	; 1
    1e38:	0e 94 83 06 	call	0xd06	; 0xd06 <read_sensor(char, char, char)>
    1e3c:	89 2b       	or	r24, r25
    1e3e:	09 f0       	breq	.+2      	; 0x1e42 <get_back()+0xe8>
    1e40:	ab cf       	rjmp	.-170    	; 0x1d98 <get_back()+0x3e>
    1e42:	40 e0       	ldi	r20, 0x00	; 0
    1e44:	61 e0       	ldi	r22, 0x01	; 1
    1e46:	81 e0       	ldi	r24, 0x01	; 1
    1e48:	0e 94 83 06 	call	0xd06	; 0xd06 <read_sensor(char, char, char)>
    1e4c:	89 2b       	or	r24, r25
    1e4e:	09 f4       	brne	.+2      	; 0x1e52 <get_back()+0xf8>
    1e50:	b9 cf       	rjmp	.-142    	; 0x1dc4 <get_back()+0x6a>
    1e52:	a2 cf       	rjmp	.-188    	; 0x1d98 <get_back()+0x3e>
    1e54:	82 e0       	ldi	r24, 0x02	; 2
    1e56:	0e 94 32 0a 	call	0x1464	; 0x1464 <color(char)>
    1e5a:	87 30       	cpi	r24, 0x07	; 7
    1e5c:	09 f0       	breq	.+2      	; 0x1e60 <get_back()+0x106>
    1e5e:	b8 cf       	rjmp	.-144    	; 0x1dd0 <get_back()+0x76>
C:\Users\Ryan\Documents\GitHub\sport_main_code_2023/sport_menu.h:1484
    linefollow();
    1e60:	0e 94 a4 07 	call	0xf48	; 0xf48 <linefollow()>
    1e64:	83 cf       	rjmp	.-250    	; 0x1d6c <get_back()+0x12>

00001e66 <track(int, int) [clone .constprop.3]>:
track():
C:\Users\Ryan\Documents\GitHub\sport_main_code_2023/sport_menu.h:1758
    }
  }

  get_back();
}
void track(int round, int direction) {
    1e66:	8f 92       	push	r8
    1e68:	9f 92       	push	r9
    1e6a:	af 92       	push	r10
    1e6c:	bf 92       	push	r11
    1e6e:	cf 92       	push	r12
    1e70:	df 92       	push	r13
    1e72:	ef 92       	push	r14
    1e74:	ff 92       	push	r15
    1e76:	0f 93       	push	r16
    1e78:	1f 93       	push	r17
    1e7a:	cf 93       	push	r28
    1e7c:	df 93       	push	r29
    1e7e:	7c 01       	movw	r14, r24
C:\Users\Ryan\Documents\GitHub\sport_main_code_2023/sport_menu.h:1762
  int track_rounds = 0;
  int track_direction = Left;  //clockwise is right ccw is left
  int inter_cnt = 0;           //intersection counting
  int T90 = EEPROM_read_int(T90_address);
    1e80:	88 e9       	ldi	r24, 0x98	; 152
    1e82:	90 e0       	ldi	r25, 0x00	; 0
    1e84:	0e 94 1c 0a 	call	0x1438	; 0x1438 <EEPROM_read_int(int)>
    1e88:	ec 01       	movw	r28, r24
C:\Users\Ryan\Documents\GitHub\sport_main_code_2023/sport_menu.h:1766
  track_rounds = round;
  track_direction = direction;
  while (1) {
    linefollow();
    1e8a:	0e 94 a4 07 	call	0xf48	; 0xf48 <linefollow()>
C:\Users\Ryan\Documents\GitHub\sport_main_code_2023/sport_menu.h:1767
    if (intersectionL && intersectionR) {
    1e8e:	40 e0       	ldi	r20, 0x00	; 0
    1e90:	60 e0       	ldi	r22, 0x00	; 0
    1e92:	80 e0       	ldi	r24, 0x00	; 0
    1e94:	0e 94 83 06 	call	0xd06	; 0xd06 <read_sensor(char, char, char)>
    1e98:	89 2b       	or	r24, r25
    1e9a:	09 f4       	brne	.+2      	; 0x1e9e <track(int, int) [clone .constprop.3]+0x38>
    1e9c:	82 c0       	rjmp	.+260    	; 0x1fa2 <track(int, int) [clone .constprop.3]+0x13c>
    1e9e:	40 e0       	ldi	r20, 0x00	; 0
    1ea0:	62 e0       	ldi	r22, 0x02	; 2
    1ea2:	82 e0       	ldi	r24, 0x02	; 2
    1ea4:	0e 94 83 06 	call	0xd06	; 0xd06 <read_sensor(char, char, char)>
    1ea8:	89 2b       	or	r24, r25
    1eaa:	79 f3       	breq	.-34     	; 0x1e8a <track(int, int) [clone .constprop.3]+0x24>
    1eac:	40 e0       	ldi	r20, 0x00	; 0
    1eae:	60 e0       	ldi	r22, 0x00	; 0
    1eb0:	80 e0       	ldi	r24, 0x00	; 0
    1eb2:	0e 94 83 06 	call	0xd06	; 0xd06 <read_sensor(char, char, char)>
    1eb6:	89 2b       	or	r24, r25
    1eb8:	09 f4       	brne	.+2      	; 0x1ebc <track(int, int) [clone .constprop.3]+0x56>
    1eba:	84 c0       	rjmp	.+264    	; 0x1fc4 <track(int, int) [clone .constprop.3]+0x15e>
    1ebc:	40 e0       	ldi	r20, 0x00	; 0
    1ebe:	63 e0       	ldi	r22, 0x03	; 3
    1ec0:	82 e0       	ldi	r24, 0x02	; 2
    1ec2:	0e 94 83 06 	call	0xd06	; 0xd06 <read_sensor(char, char, char)>
    1ec6:	89 2b       	or	r24, r25
    1ec8:	01 f3       	breq	.-64     	; 0x1e8a <track(int, int) [clone .constprop.3]+0x24>
C:\Users\Ryan\Documents\GitHub\sport_main_code_2023/sport_menu.h:1768
      move(forward, T90 /3, 100);
    1eca:	ce 01       	movw	r24, r28
    1ecc:	63 e0       	ldi	r22, 0x03	; 3
    1ece:	70 e0       	ldi	r23, 0x00	; 0
    1ed0:	0e 94 d0 35 	call	0x6ba0	; 0x6ba0 <__divmodhi4>
    1ed4:	44 e6       	ldi	r20, 0x64	; 100
    1ed6:	50 e0       	ldi	r21, 0x00	; 0
    1ed8:	8a e0       	ldi	r24, 0x0A	; 10
    1eda:	90 e0       	ldi	r25, 0x00	; 0
    1edc:	0e 94 35 07 	call	0xe6a	; 0xe6a <move(int, int, int)>
C:\Users\Ryan\Documents\GitHub\sport_main_code_2023/sport_menu.h:1770
      if (direction == Right) {
        move(Right, T90, 100);
    1ee0:	44 e6       	ldi	r20, 0x64	; 100
    1ee2:	50 e0       	ldi	r21, 0x00	; 0
    1ee4:	be 01       	movw	r22, r28
C:\Users\Ryan\Documents\GitHub\sport_main_code_2023/sport_menu.h:1769
  track_direction = direction;
  while (1) {
    linefollow();
    if (intersectionL && intersectionR) {
      move(forward, T90 /3, 100);
      if (direction == Right) {
    1ee6:	8c e0       	ldi	r24, 0x0C	; 12
    1ee8:	e8 16       	cp	r14, r24
    1eea:	f1 04       	cpc	r15, r1
    1eec:	09 f0       	breq	.+2      	; 0x1ef0 <track(int, int) [clone .constprop.3]+0x8a>
    1eee:	7b c0       	rjmp	.+246    	; 0x1fe6 <track(int, int) [clone .constprop.3]+0x180>
C:\Users\Ryan\Documents\GitHub\sport_main_code_2023/sport_menu.h:1770
        move(Right, T90, 100);
    1ef0:	8c e0       	ldi	r24, 0x0C	; 12
    1ef2:	90 e0       	ldi	r25, 0x00	; 0
C:\Users\Ryan\Documents\GitHub\sport_main_code_2023/sport_menu.h:1772
      } else {
        move(Left, T90, 100);
    1ef4:	0e 94 35 07 	call	0xe6a	; 0xe6a <move(int, int, int)>
C:\Users\Ryan\Documents\GitHub\sport_main_code_2023/sport_menu.h:1774
      }
      move(forward, T90 / 6, 100);
    1ef8:	ce 01       	movw	r24, r28
    1efa:	66 e0       	ldi	r22, 0x06	; 6
    1efc:	70 e0       	ldi	r23, 0x00	; 0
    1efe:	0e 94 d0 35 	call	0x6ba0	; 0x6ba0 <__divmodhi4>
    1f02:	6b 01       	movw	r12, r22
    1f04:	44 e6       	ldi	r20, 0x64	; 100
    1f06:	50 e0       	ldi	r21, 0x00	; 0
    1f08:	8a e0       	ldi	r24, 0x0A	; 10
    1f0a:	90 e0       	ldi	r25, 0x00	; 0
    1f0c:	0e 94 35 07 	call	0xe6a	; 0xe6a <move(int, int, int)>
C:\Users\Ryan\Documents\GitHub\sport_main_code_2023/sport_menu.h:1776

      go(60, 60);
    1f10:	6c e3       	ldi	r22, 0x3C	; 60
    1f12:	70 e0       	ldi	r23, 0x00	; 0
    1f14:	8c e3       	ldi	r24, 0x3C	; 60
    1f16:	90 e0       	ldi	r25, 0x00	; 0
    1f18:	0e 94 d0 06 	call	0xda0	; 0xda0 <go(int, int)>
C:\Users\Ryan\Documents\GitHub\sport_main_code_2023/sport_menu.h:1761
  get_back();
}
void track(int round, int direction) {
  int track_rounds = 0;
  int track_direction = Left;  //clockwise is right ccw is left
  int inter_cnt = 0;           //intersection counting
    1f1c:	10 e0       	ldi	r17, 0x00	; 0
    1f1e:	00 e0       	ldi	r16, 0x00	; 0
C:\Users\Ryan\Documents\GitHub\sport_main_code_2023/sport_menu.h:1781
      go(60, 60);
      while (inter_cnt < track_rounds) {
        linefollow();
        if (intersectionL || intersectionR) {
          while (intersectionL && intersectionR);
          move(forward, T90 / 2.5, 100);
    1f20:	4e 01       	movw	r8, r28
    1f22:	0d 2e       	mov	r0, r29
    1f24:	00 0c       	add	r0, r0
    1f26:	aa 08       	sbc	r10, r10
    1f28:	bb 08       	sbc	r11, r11
C:\Users\Ryan\Documents\GitHub\sport_main_code_2023/sport_menu.h:1778
      }
      move(forward, T90 / 6, 100);

      go(60, 60);
      while (inter_cnt < track_rounds) {
        linefollow();
    1f2a:	0e 94 a4 07 	call	0xf48	; 0xf48 <linefollow()>
C:\Users\Ryan\Documents\GitHub\sport_main_code_2023/sport_menu.h:1779
        if (intersectionL || intersectionR) {
    1f2e:	40 e0       	ldi	r20, 0x00	; 0
    1f30:	60 e0       	ldi	r22, 0x00	; 0
    1f32:	80 e0       	ldi	r24, 0x00	; 0
    1f34:	0e 94 83 06 	call	0xd06	; 0xd06 <read_sensor(char, char, char)>
    1f38:	89 2b       	or	r24, r25
    1f3a:	09 f4       	brne	.+2      	; 0x1f3e <track(int, int) [clone .constprop.3]+0xd8>
    1f3c:	57 c0       	rjmp	.+174    	; 0x1fec <track(int, int) [clone .constprop.3]+0x186>
    1f3e:	40 e0       	ldi	r20, 0x00	; 0
    1f40:	62 e0       	ldi	r22, 0x02	; 2
    1f42:	82 e0       	ldi	r24, 0x02	; 2
    1f44:	0e 94 83 06 	call	0xd06	; 0xd06 <read_sensor(char, char, char)>
    1f48:	89 2b       	or	r24, r25
    1f4a:	09 f4       	brne	.+2      	; 0x1f4e <track(int, int) [clone .constprop.3]+0xe8>
    1f4c:	5f c0       	rjmp	.+190    	; 0x200c <track(int, int) [clone .constprop.3]+0x1a6>
C:\Users\Ryan\Documents\GitHub\sport_main_code_2023/sport_menu.h:1780
          while (intersectionL && intersectionR);
    1f4e:	40 e0       	ldi	r20, 0x00	; 0
    1f50:	60 e0       	ldi	r22, 0x00	; 0
    1f52:	80 e0       	ldi	r24, 0x00	; 0
    1f54:	0e 94 83 06 	call	0xd06	; 0xd06 <read_sensor(char, char, char)>
    1f58:	89 2b       	or	r24, r25
    1f5a:	09 f4       	brne	.+2      	; 0x1f5e <track(int, int) [clone .constprop.3]+0xf8>
    1f5c:	ae c0       	rjmp	.+348    	; 0x20ba <track(int, int) [clone .constprop.3]+0x254>
    1f5e:	40 e0       	ldi	r20, 0x00	; 0
    1f60:	62 e0       	ldi	r22, 0x02	; 2
    1f62:	82 e0       	ldi	r24, 0x02	; 2
    1f64:	0e 94 83 06 	call	0xd06	; 0xd06 <read_sensor(char, char, char)>
    1f68:	89 2b       	or	r24, r25
    1f6a:	09 f0       	breq	.+2      	; 0x1f6e <track(int, int) [clone .constprop.3]+0x108>
    1f6c:	b7 c0       	rjmp	.+366    	; 0x20dc <track(int, int) [clone .constprop.3]+0x276>
C:\Users\Ryan\Documents\GitHub\sport_main_code_2023/sport_menu.h:1781
          move(forward, T90 / 2.5, 100);
    1f6e:	c5 01       	movw	r24, r10
    1f70:	b4 01       	movw	r22, r8
    1f72:	0e 94 9f 34 	call	0x693e	; 0x693e <__floatsisf>
    1f76:	20 e0       	ldi	r18, 0x00	; 0
    1f78:	30 e0       	ldi	r19, 0x00	; 0
    1f7a:	40 e2       	ldi	r20, 0x20	; 32
    1f7c:	50 e4       	ldi	r21, 0x40	; 64
    1f7e:	0e 94 f5 33 	call	0x67ea	; 0x67ea <__divsf3>
    1f82:	0e 94 67 34 	call	0x68ce	; 0x68ce <__fixsfsi>
    1f86:	44 e6       	ldi	r20, 0x64	; 100
    1f88:	50 e0       	ldi	r21, 0x00	; 0
    1f8a:	8a e0       	ldi	r24, 0x0A	; 10
    1f8c:	90 e0       	ldi	r25, 0x00	; 0
    1f8e:	0e 94 35 07 	call	0xe6a	; 0xe6a <move(int, int, int)>
C:\Users\Ryan\Documents\GitHub\sport_main_code_2023/sport_menu.h:1782
          inter_cnt += 1;
    1f92:	0f 5f       	subi	r16, 0xFF	; 255
    1f94:	1f 4f       	sbci	r17, 0xFF	; 255
C:\Users\Ryan\Documents\GitHub\sport_main_code_2023/sport_menu.h:1783
          lcd.clear();
    1f96:	0e 94 bf 05 	call	0xb7e	; 0xb7e <LiquidCrystal::clear() [clone .constprop.38]>
C:\Users\Ryan\Documents\GitHub\sport_main_code_2023/sport_menu.h:1784
          lcd.print(inter_cnt);
    1f9a:	c8 01       	movw	r24, r16
    1f9c:	0e 94 d6 09 	call	0x13ac	; 0x13ac <Print::print(int, int) [clone .constprop.4]>
    1fa0:	45 c0       	rjmp	.+138    	; 0x202c <track(int, int) [clone .constprop.3]+0x1c6>
C:\Users\Ryan\Documents\GitHub\sport_main_code_2023/sport_menu.h:1767
  int T90 = EEPROM_read_int(T90_address);
  track_rounds = round;
  track_direction = direction;
  while (1) {
    linefollow();
    if (intersectionL && intersectionR) {
    1fa2:	40 e0       	ldi	r20, 0x00	; 0
    1fa4:	60 e0       	ldi	r22, 0x00	; 0
    1fa6:	81 e0       	ldi	r24, 0x01	; 1
    1fa8:	0e 94 83 06 	call	0xd06	; 0xd06 <read_sensor(char, char, char)>
    1fac:	89 2b       	or	r24, r25
    1fae:	09 f0       	breq	.+2      	; 0x1fb2 <track(int, int) [clone .constprop.3]+0x14c>
    1fb0:	76 cf       	rjmp	.-276    	; 0x1e9e <track(int, int) [clone .constprop.3]+0x38>
    1fb2:	40 e0       	ldi	r20, 0x00	; 0
    1fb4:	61 e0       	ldi	r22, 0x01	; 1
    1fb6:	81 e0       	ldi	r24, 0x01	; 1
    1fb8:	0e 94 83 06 	call	0xd06	; 0xd06 <read_sensor(char, char, char)>
    1fbc:	89 2b       	or	r24, r25
    1fbe:	09 f0       	breq	.+2      	; 0x1fc2 <track(int, int) [clone .constprop.3]+0x15c>
    1fc0:	6e cf       	rjmp	.-292    	; 0x1e9e <track(int, int) [clone .constprop.3]+0x38>
    1fc2:	63 cf       	rjmp	.-314    	; 0x1e8a <track(int, int) [clone .constprop.3]+0x24>
    1fc4:	40 e0       	ldi	r20, 0x00	; 0
    1fc6:	60 e0       	ldi	r22, 0x00	; 0
    1fc8:	81 e0       	ldi	r24, 0x01	; 1
    1fca:	0e 94 83 06 	call	0xd06	; 0xd06 <read_sensor(char, char, char)>
    1fce:	89 2b       	or	r24, r25
    1fd0:	09 f0       	breq	.+2      	; 0x1fd4 <track(int, int) [clone .constprop.3]+0x16e>
    1fd2:	74 cf       	rjmp	.-280    	; 0x1ebc <track(int, int) [clone .constprop.3]+0x56>
    1fd4:	40 e0       	ldi	r20, 0x00	; 0
    1fd6:	61 e0       	ldi	r22, 0x01	; 1
    1fd8:	81 e0       	ldi	r24, 0x01	; 1
    1fda:	0e 94 83 06 	call	0xd06	; 0xd06 <read_sensor(char, char, char)>
    1fde:	89 2b       	or	r24, r25
    1fe0:	09 f0       	breq	.+2      	; 0x1fe4 <track(int, int) [clone .constprop.3]+0x17e>
    1fe2:	6c cf       	rjmp	.-296    	; 0x1ebc <track(int, int) [clone .constprop.3]+0x56>
    1fe4:	52 cf       	rjmp	.-348    	; 0x1e8a <track(int, int) [clone .constprop.3]+0x24>
C:\Users\Ryan\Documents\GitHub\sport_main_code_2023/sport_menu.h:1772
      move(forward, T90 /3, 100);
      if (direction == Right) {
        move(Right, T90, 100);
      } else {
        move(Left, T90, 100);
    1fe6:	8b e0       	ldi	r24, 0x0B	; 11
    1fe8:	90 e0       	ldi	r25, 0x00	; 0
    1fea:	84 cf       	rjmp	.-248    	; 0x1ef4 <track(int, int) [clone .constprop.3]+0x8e>
C:\Users\Ryan\Documents\GitHub\sport_main_code_2023/sport_menu.h:1779
      move(forward, T90 / 6, 100);

      go(60, 60);
      while (inter_cnt < track_rounds) {
        linefollow();
        if (intersectionL || intersectionR) {
    1fec:	40 e0       	ldi	r20, 0x00	; 0
    1fee:	60 e0       	ldi	r22, 0x00	; 0
    1ff0:	81 e0       	ldi	r24, 0x01	; 1
    1ff2:	0e 94 83 06 	call	0xd06	; 0xd06 <read_sensor(char, char, char)>
    1ff6:	89 2b       	or	r24, r25
    1ff8:	09 f0       	breq	.+2      	; 0x1ffc <track(int, int) [clone .constprop.3]+0x196>
    1ffa:	a1 cf       	rjmp	.-190    	; 0x1f3e <track(int, int) [clone .constprop.3]+0xd8>
    1ffc:	40 e0       	ldi	r20, 0x00	; 0
    1ffe:	61 e0       	ldi	r22, 0x01	; 1
    2000:	81 e0       	ldi	r24, 0x01	; 1
    2002:	0e 94 83 06 	call	0xd06	; 0xd06 <read_sensor(char, char, char)>
    2006:	89 2b       	or	r24, r25
    2008:	09 f0       	breq	.+2      	; 0x200c <track(int, int) [clone .constprop.3]+0x1a6>
    200a:	99 cf       	rjmp	.-206    	; 0x1f3e <track(int, int) [clone .constprop.3]+0xd8>
    200c:	40 e0       	ldi	r20, 0x00	; 0
    200e:	60 e0       	ldi	r22, 0x00	; 0
    2010:	80 e0       	ldi	r24, 0x00	; 0
    2012:	0e 94 83 06 	call	0xd06	; 0xd06 <read_sensor(char, char, char)>
    2016:	89 2b       	or	r24, r25
    2018:	09 f4       	brne	.+2      	; 0x201c <track(int, int) [clone .constprop.3]+0x1b6>
    201a:	3e c0       	rjmp	.+124    	; 0x2098 <track(int, int) [clone .constprop.3]+0x232>
    201c:	40 e0       	ldi	r20, 0x00	; 0
    201e:	63 e0       	ldi	r22, 0x03	; 3
    2020:	82 e0       	ldi	r24, 0x02	; 2
    2022:	0e 94 83 06 	call	0xd06	; 0xd06 <read_sensor(char, char, char)>
    2026:	89 2b       	or	r24, r25
    2028:	09 f0       	breq	.+2      	; 0x202c <track(int, int) [clone .constprop.3]+0x1c6>
    202a:	91 cf       	rjmp	.-222    	; 0x1f4e <track(int, int) [clone .constprop.3]+0xe8>
C:\Users\Ryan\Documents\GitHub\sport_main_code_2023/sport_menu.h:1777
        move(Left, T90, 100);
      }
      move(forward, T90 / 6, 100);

      go(60, 60);
      while (inter_cnt < track_rounds) {
    202c:	04 30       	cpi	r16, 0x04	; 4
    202e:	11 05       	cpc	r17, r1
    2030:	09 f0       	breq	.+2      	; 0x2034 <track(int, int) [clone .constprop.3]+0x1ce>
    2032:	7b cf       	rjmp	.-266    	; 0x1f2a <track(int, int) [clone .constprop.3]+0xc4>
C:\Users\Ryan\Documents\GitHub\sport_main_code_2023/sport_menu.h:1788
          lcd.clear();
          lcd.print(inter_cnt);
        }
      }
      
      go(60, 60);
    2034:	6c e3       	ldi	r22, 0x3C	; 60
    2036:	70 e0       	ldi	r23, 0x00	; 0
    2038:	8c e3       	ldi	r24, 0x3C	; 60
    203a:	90 e0       	ldi	r25, 0x00	; 0
    203c:	0e 94 d0 06 	call	0xda0	; 0xda0 <go(int, int)>
C:\Users\Ryan\Documents\GitHub\sport_main_code_2023/sport_menu.h:1789
       move(forward, T90 / 6, 100);
    2040:	44 e6       	ldi	r20, 0x64	; 100
    2042:	50 e0       	ldi	r21, 0x00	; 0
    2044:	b6 01       	movw	r22, r12
    2046:	8a e0       	ldi	r24, 0x0A	; 10
    2048:	90 e0       	ldi	r25, 0x00	; 0
    204a:	0e 94 35 07 	call	0xe6a	; 0xe6a <move(int, int, int)>
C:\Users\Ryan\Documents\GitHub\sport_main_code_2023/sport_menu.h:1791
      if (direction == Right) {
        move(Right, T90, 100);
    204e:	44 e6       	ldi	r20, 0x64	; 100
    2050:	50 e0       	ldi	r21, 0x00	; 0
    2052:	be 01       	movw	r22, r28
C:\Users\Ryan\Documents\GitHub\sport_main_code_2023/sport_menu.h:1790
        }
      }
      
      go(60, 60);
       move(forward, T90 / 6, 100);
      if (direction == Right) {
    2054:	8c e0       	ldi	r24, 0x0C	; 12
    2056:	e8 16       	cp	r14, r24
    2058:	f1 04       	cpc	r15, r1
    205a:	09 f0       	breq	.+2      	; 0x205e <track(int, int) [clone .constprop.3]+0x1f8>
    205c:	5e c0       	rjmp	.+188    	; 0x211a <track(int, int) [clone .constprop.3]+0x2b4>
C:\Users\Ryan\Documents\GitHub\sport_main_code_2023/sport_menu.h:1791
        move(Right, T90, 100);
    205e:	8c e0       	ldi	r24, 0x0C	; 12
    2060:	90 e0       	ldi	r25, 0x00	; 0
C:\Users\Ryan\Documents\GitHub\sport_main_code_2023/sport_menu.h:1793
      } else {
        move(Left, T90, 100);
    2062:	0e 94 35 07 	call	0xe6a	; 0xe6a <move(int, int, int)>
C:\Users\Ryan\Documents\GitHub\sport_main_code_2023/sport_menu.h:1795
      }
      move(forward, T90 / 2, 100);
    2066:	d7 fd       	sbrc	r29, 7
    2068:	21 96       	adiw	r28, 0x01	; 1
    206a:	be 01       	movw	r22, r28
    206c:	75 95       	asr	r23
    206e:	67 95       	ror	r22
    2070:	44 e6       	ldi	r20, 0x64	; 100
    2072:	50 e0       	ldi	r21, 0x00	; 0
    2074:	8a e0       	ldi	r24, 0x0A	; 10
    2076:	90 e0       	ldi	r25, 0x00	; 0
    2078:	0e 94 35 07 	call	0xe6a	; 0xe6a <move(int, int, int)>
C:\Users\Ryan\Documents\GitHub\sport_main_code_2023/sport_menu.h:1803
     
      break;
    }
  }
  get_back();
}
    207c:	df 91       	pop	r29
    207e:	cf 91       	pop	r28
    2080:	1f 91       	pop	r17
    2082:	0f 91       	pop	r16
    2084:	ff 90       	pop	r15
    2086:	ef 90       	pop	r14
    2088:	df 90       	pop	r13
    208a:	cf 90       	pop	r12
    208c:	bf 90       	pop	r11
    208e:	af 90       	pop	r10
    2090:	9f 90       	pop	r9
    2092:	8f 90       	pop	r8
C:\Users\Ryan\Documents\GitHub\sport_main_code_2023/sport_menu.h:1802
      direction = Left;
     
      break;
    }
  }
  get_back();
    2094:	0c 94 ad 0e 	jmp	0x1d5a	; 0x1d5a <get_back()>
C:\Users\Ryan\Documents\GitHub\sport_main_code_2023/sport_menu.h:1779
      move(forward, T90 / 6, 100);

      go(60, 60);
      while (inter_cnt < track_rounds) {
        linefollow();
        if (intersectionL || intersectionR) {
    2098:	40 e0       	ldi	r20, 0x00	; 0
    209a:	60 e0       	ldi	r22, 0x00	; 0
    209c:	81 e0       	ldi	r24, 0x01	; 1
    209e:	0e 94 83 06 	call	0xd06	; 0xd06 <read_sensor(char, char, char)>
    20a2:	89 2b       	or	r24, r25
    20a4:	09 f0       	breq	.+2      	; 0x20a8 <track(int, int) [clone .constprop.3]+0x242>
    20a6:	ba cf       	rjmp	.-140    	; 0x201c <track(int, int) [clone .constprop.3]+0x1b6>
    20a8:	40 e0       	ldi	r20, 0x00	; 0
    20aa:	61 e0       	ldi	r22, 0x01	; 1
    20ac:	81 e0       	ldi	r24, 0x01	; 1
    20ae:	0e 94 83 06 	call	0xd06	; 0xd06 <read_sensor(char, char, char)>
    20b2:	89 2b       	or	r24, r25
    20b4:	09 f0       	breq	.+2      	; 0x20b8 <track(int, int) [clone .constprop.3]+0x252>
    20b6:	b2 cf       	rjmp	.-156    	; 0x201c <track(int, int) [clone .constprop.3]+0x1b6>
    20b8:	b9 cf       	rjmp	.-142    	; 0x202c <track(int, int) [clone .constprop.3]+0x1c6>
C:\Users\Ryan\Documents\GitHub\sport_main_code_2023/sport_menu.h:1780
          while (intersectionL && intersectionR);
    20ba:	40 e0       	ldi	r20, 0x00	; 0
    20bc:	60 e0       	ldi	r22, 0x00	; 0
    20be:	81 e0       	ldi	r24, 0x01	; 1
    20c0:	0e 94 83 06 	call	0xd06	; 0xd06 <read_sensor(char, char, char)>
    20c4:	89 2b       	or	r24, r25
    20c6:	09 f0       	breq	.+2      	; 0x20ca <track(int, int) [clone .constprop.3]+0x264>
    20c8:	4a cf       	rjmp	.-364    	; 0x1f5e <track(int, int) [clone .constprop.3]+0xf8>
    20ca:	40 e0       	ldi	r20, 0x00	; 0
    20cc:	61 e0       	ldi	r22, 0x01	; 1
    20ce:	81 e0       	ldi	r24, 0x01	; 1
    20d0:	0e 94 83 06 	call	0xd06	; 0xd06 <read_sensor(char, char, char)>
    20d4:	89 2b       	or	r24, r25
    20d6:	09 f0       	breq	.+2      	; 0x20da <track(int, int) [clone .constprop.3]+0x274>
    20d8:	42 cf       	rjmp	.-380    	; 0x1f5e <track(int, int) [clone .constprop.3]+0xf8>
    20da:	49 cf       	rjmp	.-366    	; 0x1f6e <track(int, int) [clone .constprop.3]+0x108>
    20dc:	40 e0       	ldi	r20, 0x00	; 0
    20de:	60 e0       	ldi	r22, 0x00	; 0
    20e0:	80 e0       	ldi	r24, 0x00	; 0
    20e2:	0e 94 83 06 	call	0xd06	; 0xd06 <read_sensor(char, char, char)>
    20e6:	89 2b       	or	r24, r25
    20e8:	49 f0       	breq	.+18     	; 0x20fc <track(int, int) [clone .constprop.3]+0x296>
    20ea:	40 e0       	ldi	r20, 0x00	; 0
    20ec:	63 e0       	ldi	r22, 0x03	; 3
    20ee:	82 e0       	ldi	r24, 0x02	; 2
    20f0:	0e 94 83 06 	call	0xd06	; 0xd06 <read_sensor(char, char, char)>
    20f4:	89 2b       	or	r24, r25
    20f6:	09 f0       	breq	.+2      	; 0x20fa <track(int, int) [clone .constprop.3]+0x294>
    20f8:	2a cf       	rjmp	.-428    	; 0x1f4e <track(int, int) [clone .constprop.3]+0xe8>
    20fa:	39 cf       	rjmp	.-398    	; 0x1f6e <track(int, int) [clone .constprop.3]+0x108>
    20fc:	40 e0       	ldi	r20, 0x00	; 0
    20fe:	60 e0       	ldi	r22, 0x00	; 0
    2100:	81 e0       	ldi	r24, 0x01	; 1
    2102:	0e 94 83 06 	call	0xd06	; 0xd06 <read_sensor(char, char, char)>
    2106:	89 2b       	or	r24, r25
    2108:	81 f7       	brne	.-32     	; 0x20ea <track(int, int) [clone .constprop.3]+0x284>
    210a:	40 e0       	ldi	r20, 0x00	; 0
    210c:	61 e0       	ldi	r22, 0x01	; 1
    210e:	81 e0       	ldi	r24, 0x01	; 1
    2110:	0e 94 83 06 	call	0xd06	; 0xd06 <read_sensor(char, char, char)>
    2114:	89 2b       	or	r24, r25
    2116:	49 f7       	brne	.-46     	; 0x20ea <track(int, int) [clone .constprop.3]+0x284>
    2118:	2a cf       	rjmp	.-428    	; 0x1f6e <track(int, int) [clone .constprop.3]+0x108>
C:\Users\Ryan\Documents\GitHub\sport_main_code_2023/sport_menu.h:1793
      go(60, 60);
       move(forward, T90 / 6, 100);
      if (direction == Right) {
        move(Right, T90, 100);
      } else {
        move(Left, T90, 100);
    211a:	8b e0       	ldi	r24, 0x0B	; 11
    211c:	90 e0       	ldi	r25, 0x00	; 0
    211e:	a1 cf       	rjmp	.-190    	; 0x2062 <track(int, int) [clone .constprop.3]+0x1fc>

00002120 <obstacle()>:
obstacle():
C:\Users\Ryan\Documents\GitHub\sport_main_code_2023/sport_menu.h:1820
  move(Back, T90 / 4, 120);
  move(Left, T90 * 2, 120);
  go(60, 60);
  get_back();
}
void obstacle() {
    2120:	cf 92       	push	r12
    2122:	df 92       	push	r13
    2124:	ef 92       	push	r14
    2126:	ff 92       	push	r15
    2128:	cf 93       	push	r28
    212a:	df 93       	push	r29
C:\Users\Ryan\Documents\GitHub\sport_main_code_2023/sport_menu.h:1821
  int T90 = EEPROM_read_int(T90_address);
    212c:	88 e9       	ldi	r24, 0x98	; 152
    212e:	90 e0       	ldi	r25, 0x00	; 0
    2130:	0e 94 1c 0a 	call	0x1438	; 0x1438 <EEPROM_read_int(int)>
    2134:	ec 01       	movw	r28, r24
C:\Users\Ryan\Documents\GitHub\sport_main_code_2023/sport_menu.h:1823
  int inter_cnt = 0;  //intersection counting
  while (!intersectionL && !intersectionR) {
    2136:	40 e0       	ldi	r20, 0x00	; 0
    2138:	60 e0       	ldi	r22, 0x00	; 0
    213a:	80 e0       	ldi	r24, 0x00	; 0
    213c:	0e 94 83 06 	call	0xd06	; 0xd06 <read_sensor(char, char, char)>
    2140:	89 2b       	or	r24, r25
    2142:	09 f4       	brne	.+2      	; 0x2146 <obstacle()+0x26>
    2144:	b8 c0       	rjmp	.+368    	; 0x22b6 <obstacle()+0x196>
    2146:	40 e0       	ldi	r20, 0x00	; 0
    2148:	62 e0       	ldi	r22, 0x02	; 2
    214a:	82 e0       	ldi	r24, 0x02	; 2
    214c:	0e 94 83 06 	call	0xd06	; 0xd06 <read_sensor(char, char, char)>
    2150:	89 2b       	or	r24, r25
    2152:	09 f4       	brne	.+2      	; 0x2156 <obstacle()+0x36>
    2154:	c0 c0       	rjmp	.+384    	; 0x22d6 <obstacle()+0x1b6>
C:\Users\Ryan\Documents\GitHub\sport_main_code_2023/sport_menu.h:1826
    linefollow();
  }
  go(0, 0);
    2156:	70 e0       	ldi	r23, 0x00	; 0
    2158:	60 e0       	ldi	r22, 0x00	; 0
    215a:	90 e0       	ldi	r25, 0x00	; 0
    215c:	80 e0       	ldi	r24, 0x00	; 0
    215e:	0e 94 d0 06 	call	0xda0	; 0xda0 <go(int, int)>
C:\Users\Ryan\Documents\GitHub\sport_main_code_2023/sport_menu.h:1828
  inter_cnt = 1;
  beep(2);
    2162:	82 e0       	ldi	r24, 0x02	; 2
    2164:	90 e0       	ldi	r25, 0x00	; 0
    2166:	0e 94 2e 08 	call	0x105c	; 0x105c <beep(int)>
C:\Users\Ryan\Documents\GitHub\sport_main_code_2023/sport_menu.h:1829
  move(forward, T90 / 8, 100);
    216a:	be 01       	movw	r22, r28
    216c:	d7 ff       	sbrs	r29, 7
    216e:	02 c0       	rjmp	.+4      	; 0x2174 <obstacle()+0x54>
    2170:	69 5f       	subi	r22, 0xF9	; 249
    2172:	7f 4f       	sbci	r23, 0xFF	; 255
    2174:	93 e0       	ldi	r25, 0x03	; 3
    2176:	75 95       	asr	r23
    2178:	67 95       	ror	r22
    217a:	9a 95       	dec	r25
    217c:	e1 f7       	brne	.-8      	; 0x2176 <obstacle()+0x56>
    217e:	44 e6       	ldi	r20, 0x64	; 100
    2180:	50 e0       	ldi	r21, 0x00	; 0
    2182:	8a e0       	ldi	r24, 0x0A	; 10
    2184:	90 e0       	ldi	r25, 0x00	; 0
    2186:	0e 94 35 07 	call	0xe6a	; 0xe6a <move(int, int, int)>
C:\Users\Ryan\Documents\GitHub\sport_main_code_2023/sport_menu.h:1832

  while (1) {
    go(100, 100);
    218a:	64 e6       	ldi	r22, 0x64	; 100
    218c:	70 e0       	ldi	r23, 0x00	; 0
    218e:	84 e6       	ldi	r24, 0x64	; 100
    2190:	90 e0       	ldi	r25, 0x00	; 0
    2192:	0e 94 d0 06 	call	0xda0	; 0xda0 <go(int, int)>
C:\Users\Ryan\Documents\GitHub\sport_main_code_2023/sport_menu.h:1833
    if (intersectionL && intersectionR) {
    2196:	40 e0       	ldi	r20, 0x00	; 0
    2198:	60 e0       	ldi	r22, 0x00	; 0
    219a:	80 e0       	ldi	r24, 0x00	; 0
    219c:	0e 94 83 06 	call	0xd06	; 0xd06 <read_sensor(char, char, char)>
    21a0:	89 2b       	or	r24, r25
    21a2:	09 f4       	brne	.+2      	; 0x21a6 <obstacle()+0x86>
    21a4:	b9 c0       	rjmp	.+370    	; 0x2318 <obstacle()+0x1f8>
    21a6:	40 e0       	ldi	r20, 0x00	; 0
    21a8:	62 e0       	ldi	r22, 0x02	; 2
    21aa:	82 e0       	ldi	r24, 0x02	; 2
    21ac:	0e 94 83 06 	call	0xd06	; 0xd06 <read_sensor(char, char, char)>
    21b0:	89 2b       	or	r24, r25
    21b2:	59 f3       	breq	.-42     	; 0x218a <obstacle()+0x6a>
    21b4:	40 e0       	ldi	r20, 0x00	; 0
    21b6:	60 e0       	ldi	r22, 0x00	; 0
    21b8:	80 e0       	ldi	r24, 0x00	; 0
    21ba:	0e 94 83 06 	call	0xd06	; 0xd06 <read_sensor(char, char, char)>
    21be:	89 2b       	or	r24, r25
    21c0:	09 f4       	brne	.+2      	; 0x21c4 <obstacle()+0xa4>
    21c2:	bb c0       	rjmp	.+374    	; 0x233a <obstacle()+0x21a>
    21c4:	40 e0       	ldi	r20, 0x00	; 0
    21c6:	63 e0       	ldi	r22, 0x03	; 3
    21c8:	82 e0       	ldi	r24, 0x02	; 2
    21ca:	0e 94 83 06 	call	0xd06	; 0xd06 <read_sensor(char, char, char)>
    21ce:	89 2b       	or	r24, r25
    21d0:	e1 f2       	breq	.-72     	; 0x218a <obstacle()+0x6a>
C:\Users\Ryan\Documents\GitHub\sport_main_code_2023/sport_menu.h:1834
      go(60, 60);
    21d2:	6c e3       	ldi	r22, 0x3C	; 60
    21d4:	70 e0       	ldi	r23, 0x00	; 0
    21d6:	8c e3       	ldi	r24, 0x3C	; 60
    21d8:	90 e0       	ldi	r25, 0x00	; 0
    21da:	0e 94 d0 06 	call	0xda0	; 0xda0 <go(int, int)>
C:\Users\Ryan\Documents\GitHub\sport_main_code_2023/sport_menu.h:1835
      while (intersectionL || intersectionR)
    21de:	40 e0       	ldi	r20, 0x00	; 0
    21e0:	60 e0       	ldi	r22, 0x00	; 0
    21e2:	80 e0       	ldi	r24, 0x00	; 0
    21e4:	0e 94 83 06 	call	0xd06	; 0xd06 <read_sensor(char, char, char)>
    21e8:	89 2b       	or	r24, r25
    21ea:	09 f4       	brne	.+2      	; 0x21ee <obstacle()+0xce>
    21ec:	b7 c0       	rjmp	.+366    	; 0x235c <obstacle()+0x23c>
    21ee:	40 e0       	ldi	r20, 0x00	; 0
    21f0:	62 e0       	ldi	r22, 0x02	; 2
    21f2:	82 e0       	ldi	r24, 0x02	; 2
    21f4:	0e 94 83 06 	call	0xd06	; 0xd06 <read_sensor(char, char, char)>
    21f8:	89 2b       	or	r24, r25
    21fa:	89 f7       	brne	.-30     	; 0x21de <obstacle()+0xbe>
    21fc:	40 e0       	ldi	r20, 0x00	; 0
    21fe:	60 e0       	ldi	r22, 0x00	; 0
    2200:	80 e0       	ldi	r24, 0x00	; 0
    2202:	0e 94 83 06 	call	0xd06	; 0xd06 <read_sensor(char, char, char)>
    2206:	89 2b       	or	r24, r25
    2208:	09 f4       	brne	.+2      	; 0x220c <obstacle()+0xec>
    220a:	b9 c0       	rjmp	.+370    	; 0x237e <obstacle()+0x25e>
    220c:	40 e0       	ldi	r20, 0x00	; 0
    220e:	63 e0       	ldi	r22, 0x03	; 3
    2210:	82 e0       	ldi	r24, 0x02	; 2
    2212:	0e 94 83 06 	call	0xd06	; 0xd06 <read_sensor(char, char, char)>
    2216:	89 2b       	or	r24, r25
    2218:	11 f7       	brne	.-60     	; 0x21de <obstacle()+0xbe>
C:\Users\Ryan\Documents\GitHub\sport_main_code_2023/sport_menu.h:1837
        ;
      move(forward, T90 / 4, 60);
    221a:	be 01       	movw	r22, r28
    221c:	d7 ff       	sbrs	r29, 7
    221e:	02 c0       	rjmp	.+4      	; 0x2224 <obstacle()+0x104>
    2220:	6d 5f       	subi	r22, 0xFD	; 253
    2222:	7f 4f       	sbci	r23, 0xFF	; 255
    2224:	75 95       	asr	r23
    2226:	67 95       	ror	r22
    2228:	75 95       	asr	r23
    222a:	67 95       	ror	r22
    222c:	4c e3       	ldi	r20, 0x3C	; 60
    222e:	50 e0       	ldi	r21, 0x00	; 0
    2230:	8a e0       	ldi	r24, 0x0A	; 10
    2232:	90 e0       	ldi	r25, 0x00	; 0
    2234:	0e 94 35 07 	call	0xe6a	; 0xe6a <move(int, int, int)>
C:\Users\Ryan\Documents\GitHub\sport_main_code_2023/sport_menu.h:1848
      move(Left, T90 * 1.9, 150);
      go(60, 60);
      break;
    }
    if (inter_cnt == 2) {
      move(forward, T90 / 3, 100);
    2238:	ce 01       	movw	r24, r28
    223a:	63 e0       	ldi	r22, 0x03	; 3
    223c:	70 e0       	ldi	r23, 0x00	; 0
    223e:	0e 94 d0 35 	call	0x6ba0	; 0x6ba0 <__divmodhi4>
    2242:	44 e6       	ldi	r20, 0x64	; 100
    2244:	50 e0       	ldi	r21, 0x00	; 0
    2246:	8a e0       	ldi	r24, 0x0A	; 10
    2248:	90 e0       	ldi	r25, 0x00	; 0
    224a:	0e 94 35 07 	call	0xe6a	; 0xe6a <move(int, int, int)>
C:\Users\Ryan\Documents\GitHub\sport_main_code_2023/sport_menu.h:1849
      move(Back, T90 * 1.7, 150);
    224e:	be 01       	movw	r22, r28
    2250:	dd 0f       	add	r29, r29
    2252:	88 0b       	sbc	r24, r24
    2254:	99 0b       	sbc	r25, r25
    2256:	0e 94 9f 34 	call	0x693e	; 0x693e <__floatsisf>
    225a:	6b 01       	movw	r12, r22
    225c:	7c 01       	movw	r14, r24
    225e:	2a e9       	ldi	r18, 0x9A	; 154
    2260:	39 e9       	ldi	r19, 0x99	; 153
    2262:	49 ed       	ldi	r20, 0xD9	; 217
    2264:	5f e3       	ldi	r21, 0x3F	; 63
    2266:	0e 94 4f 35 	call	0x6a9e	; 0x6a9e <__mulsf3>
    226a:	0e 94 67 34 	call	0x68ce	; 0x68ce <__fixsfsi>
    226e:	46 e9       	ldi	r20, 0x96	; 150
    2270:	50 e0       	ldi	r21, 0x00	; 0
    2272:	8d e0       	ldi	r24, 0x0D	; 13
    2274:	90 e0       	ldi	r25, 0x00	; 0
    2276:	0e 94 35 07 	call	0xe6a	; 0xe6a <move(int, int, int)>
C:\Users\Ryan\Documents\GitHub\sport_main_code_2023/sport_menu.h:1850
      move(Left, T90 * 1.9, 150);
    227a:	23 e3       	ldi	r18, 0x33	; 51
    227c:	33 e3       	ldi	r19, 0x33	; 51
    227e:	43 ef       	ldi	r20, 0xF3	; 243
    2280:	5f e3       	ldi	r21, 0x3F	; 63
    2282:	c7 01       	movw	r24, r14
    2284:	b6 01       	movw	r22, r12
    2286:	0e 94 4f 35 	call	0x6a9e	; 0x6a9e <__mulsf3>
    228a:	0e 94 67 34 	call	0x68ce	; 0x68ce <__fixsfsi>
    228e:	46 e9       	ldi	r20, 0x96	; 150
    2290:	50 e0       	ldi	r21, 0x00	; 0
    2292:	8b e0       	ldi	r24, 0x0B	; 11
    2294:	90 e0       	ldi	r25, 0x00	; 0
    2296:	0e 94 35 07 	call	0xe6a	; 0xe6a <move(int, int, int)>
C:\Users\Ryan\Documents\GitHub\sport_main_code_2023/sport_menu.h:1851
      go(60, 60);
    229a:	6c e3       	ldi	r22, 0x3C	; 60
    229c:	70 e0       	ldi	r23, 0x00	; 0
    229e:	8c e3       	ldi	r24, 0x3C	; 60
    22a0:	90 e0       	ldi	r25, 0x00	; 0
    22a2:	0e 94 d0 06 	call	0xda0	; 0xda0 <go(int, int)>
C:\Users\Ryan\Documents\GitHub\sport_main_code_2023/sport_menu.h:1856
      break;
    }
  }
  get_back();
}
    22a6:	df 91       	pop	r29
    22a8:	cf 91       	pop	r28
    22aa:	ff 90       	pop	r15
    22ac:	ef 90       	pop	r14
    22ae:	df 90       	pop	r13
    22b0:	cf 90       	pop	r12
C:\Users\Ryan\Documents\GitHub\sport_main_code_2023/sport_menu.h:1855
      move(Left, T90 * 1.9, 150);
      go(60, 60);
      break;
    }
  }
  get_back();
    22b2:	0c 94 ad 0e 	jmp	0x1d5a	; 0x1d5a <get_back()>
C:\Users\Ryan\Documents\GitHub\sport_main_code_2023/sport_menu.h:1823
  get_back();
}
void obstacle() {
  int T90 = EEPROM_read_int(T90_address);
  int inter_cnt = 0;  //intersection counting
  while (!intersectionL && !intersectionR) {
    22b6:	40 e0       	ldi	r20, 0x00	; 0
    22b8:	60 e0       	ldi	r22, 0x00	; 0
    22ba:	81 e0       	ldi	r24, 0x01	; 1
    22bc:	0e 94 83 06 	call	0xd06	; 0xd06 <read_sensor(char, char, char)>
    22c0:	89 2b       	or	r24, r25
    22c2:	09 f0       	breq	.+2      	; 0x22c6 <obstacle()+0x1a6>
    22c4:	40 cf       	rjmp	.-384    	; 0x2146 <obstacle()+0x26>
    22c6:	40 e0       	ldi	r20, 0x00	; 0
    22c8:	61 e0       	ldi	r22, 0x01	; 1
    22ca:	81 e0       	ldi	r24, 0x01	; 1
    22cc:	0e 94 83 06 	call	0xd06	; 0xd06 <read_sensor(char, char, char)>
    22d0:	89 2b       	or	r24, r25
    22d2:	09 f0       	breq	.+2      	; 0x22d6 <obstacle()+0x1b6>
    22d4:	38 cf       	rjmp	.-400    	; 0x2146 <obstacle()+0x26>
    22d6:	40 e0       	ldi	r20, 0x00	; 0
    22d8:	60 e0       	ldi	r22, 0x00	; 0
    22da:	80 e0       	ldi	r24, 0x00	; 0
    22dc:	0e 94 83 06 	call	0xd06	; 0xd06 <read_sensor(char, char, char)>
    22e0:	89 2b       	or	r24, r25
    22e2:	59 f0       	breq	.+22     	; 0x22fa <obstacle()+0x1da>
    22e4:	40 e0       	ldi	r20, 0x00	; 0
    22e6:	63 e0       	ldi	r22, 0x03	; 3
    22e8:	82 e0       	ldi	r24, 0x02	; 2
    22ea:	0e 94 83 06 	call	0xd06	; 0xd06 <read_sensor(char, char, char)>
    22ee:	89 2b       	or	r24, r25
    22f0:	09 f0       	breq	.+2      	; 0x22f4 <obstacle()+0x1d4>
    22f2:	31 cf       	rjmp	.-414    	; 0x2156 <obstacle()+0x36>
C:\Users\Ryan\Documents\GitHub\sport_main_code_2023/sport_menu.h:1824
    linefollow();
    22f4:	0e 94 a4 07 	call	0xf48	; 0xf48 <linefollow()>
    22f8:	1e cf       	rjmp	.-452    	; 0x2136 <obstacle()+0x16>
C:\Users\Ryan\Documents\GitHub\sport_main_code_2023/sport_menu.h:1823
  get_back();
}
void obstacle() {
  int T90 = EEPROM_read_int(T90_address);
  int inter_cnt = 0;  //intersection counting
  while (!intersectionL && !intersectionR) {
    22fa:	40 e0       	ldi	r20, 0x00	; 0
    22fc:	60 e0       	ldi	r22, 0x00	; 0
    22fe:	81 e0       	ldi	r24, 0x01	; 1
    2300:	0e 94 83 06 	call	0xd06	; 0xd06 <read_sensor(char, char, char)>
    2304:	89 2b       	or	r24, r25
    2306:	71 f7       	brne	.-36     	; 0x22e4 <obstacle()+0x1c4>
    2308:	40 e0       	ldi	r20, 0x00	; 0
    230a:	61 e0       	ldi	r22, 0x01	; 1
    230c:	81 e0       	ldi	r24, 0x01	; 1
    230e:	0e 94 83 06 	call	0xd06	; 0xd06 <read_sensor(char, char, char)>
    2312:	89 2b       	or	r24, r25
    2314:	39 f7       	brne	.-50     	; 0x22e4 <obstacle()+0x1c4>
    2316:	ee cf       	rjmp	.-36     	; 0x22f4 <obstacle()+0x1d4>
C:\Users\Ryan\Documents\GitHub\sport_main_code_2023/sport_menu.h:1833
  beep(2);
  move(forward, T90 / 8, 100);

  while (1) {
    go(100, 100);
    if (intersectionL && intersectionR) {
    2318:	40 e0       	ldi	r20, 0x00	; 0
    231a:	60 e0       	ldi	r22, 0x00	; 0
    231c:	81 e0       	ldi	r24, 0x01	; 1
    231e:	0e 94 83 06 	call	0xd06	; 0xd06 <read_sensor(char, char, char)>
    2322:	89 2b       	or	r24, r25
    2324:	09 f0       	breq	.+2      	; 0x2328 <obstacle()+0x208>
    2326:	3f cf       	rjmp	.-386    	; 0x21a6 <obstacle()+0x86>
    2328:	40 e0       	ldi	r20, 0x00	; 0
    232a:	61 e0       	ldi	r22, 0x01	; 1
    232c:	81 e0       	ldi	r24, 0x01	; 1
    232e:	0e 94 83 06 	call	0xd06	; 0xd06 <read_sensor(char, char, char)>
    2332:	89 2b       	or	r24, r25
    2334:	09 f0       	breq	.+2      	; 0x2338 <obstacle()+0x218>
    2336:	37 cf       	rjmp	.-402    	; 0x21a6 <obstacle()+0x86>
    2338:	28 cf       	rjmp	.-432    	; 0x218a <obstacle()+0x6a>
    233a:	40 e0       	ldi	r20, 0x00	; 0
    233c:	60 e0       	ldi	r22, 0x00	; 0
    233e:	81 e0       	ldi	r24, 0x01	; 1
    2340:	0e 94 83 06 	call	0xd06	; 0xd06 <read_sensor(char, char, char)>
    2344:	89 2b       	or	r24, r25
    2346:	09 f0       	breq	.+2      	; 0x234a <obstacle()+0x22a>
    2348:	3d cf       	rjmp	.-390    	; 0x21c4 <obstacle()+0xa4>
    234a:	40 e0       	ldi	r20, 0x00	; 0
    234c:	61 e0       	ldi	r22, 0x01	; 1
    234e:	81 e0       	ldi	r24, 0x01	; 1
    2350:	0e 94 83 06 	call	0xd06	; 0xd06 <read_sensor(char, char, char)>
    2354:	89 2b       	or	r24, r25
    2356:	09 f0       	breq	.+2      	; 0x235a <obstacle()+0x23a>
    2358:	35 cf       	rjmp	.-406    	; 0x21c4 <obstacle()+0xa4>
    235a:	17 cf       	rjmp	.-466    	; 0x218a <obstacle()+0x6a>
C:\Users\Ryan\Documents\GitHub\sport_main_code_2023/sport_menu.h:1835
      go(60, 60);
      while (intersectionL || intersectionR)
    235c:	40 e0       	ldi	r20, 0x00	; 0
    235e:	60 e0       	ldi	r22, 0x00	; 0
    2360:	81 e0       	ldi	r24, 0x01	; 1
    2362:	0e 94 83 06 	call	0xd06	; 0xd06 <read_sensor(char, char, char)>
    2366:	89 2b       	or	r24, r25
    2368:	09 f0       	breq	.+2      	; 0x236c <obstacle()+0x24c>
    236a:	41 cf       	rjmp	.-382    	; 0x21ee <obstacle()+0xce>
    236c:	40 e0       	ldi	r20, 0x00	; 0
    236e:	61 e0       	ldi	r22, 0x01	; 1
    2370:	81 e0       	ldi	r24, 0x01	; 1
    2372:	0e 94 83 06 	call	0xd06	; 0xd06 <read_sensor(char, char, char)>
    2376:	89 2b       	or	r24, r25
    2378:	09 f0       	breq	.+2      	; 0x237c <obstacle()+0x25c>
    237a:	39 cf       	rjmp	.-398    	; 0x21ee <obstacle()+0xce>
    237c:	3f cf       	rjmp	.-386    	; 0x21fc <obstacle()+0xdc>
    237e:	40 e0       	ldi	r20, 0x00	; 0
    2380:	60 e0       	ldi	r22, 0x00	; 0
    2382:	81 e0       	ldi	r24, 0x01	; 1
    2384:	0e 94 83 06 	call	0xd06	; 0xd06 <read_sensor(char, char, char)>
    2388:	89 2b       	or	r24, r25
    238a:	09 f0       	breq	.+2      	; 0x238e <obstacle()+0x26e>
    238c:	3f cf       	rjmp	.-386    	; 0x220c <obstacle()+0xec>
    238e:	40 e0       	ldi	r20, 0x00	; 0
    2390:	61 e0       	ldi	r22, 0x01	; 1
    2392:	81 e0       	ldi	r24, 0x01	; 1
    2394:	0e 94 83 06 	call	0xd06	; 0xd06 <read_sensor(char, char, char)>
    2398:	89 2b       	or	r24, r25
    239a:	09 f0       	breq	.+2      	; 0x239e <obstacle()+0x27e>
    239c:	37 cf       	rjmp	.-402    	; 0x220c <obstacle()+0xec>
    239e:	3d cf       	rjmp	.-390    	; 0x221a <obstacle()+0xfa>

000023a0 <archery()>:
archery():
C:\Users\Ryan\Documents\GitHub\sport_main_code_2023/sport_menu.h:1804
      break;
    }
  }
  get_back();
}
void archery() {
    23a0:	cf 93       	push	r28
    23a2:	df 93       	push	r29
C:\Users\Ryan\Documents\GitHub\sport_main_code_2023/sport_menu.h:1806
  int arm_dropping = EEPROM_read_int(arm_dropping_address);
  int T90 = EEPROM_read_int(T90_address);
    23a4:	88 e9       	ldi	r24, 0x98	; 152
    23a6:	90 e0       	ldi	r25, 0x00	; 0
    23a8:	0e 94 1c 0a 	call	0x1438	; 0x1438 <EEPROM_read_int(int)>
    23ac:	ec 01       	movw	r28, r24
C:\Users\Ryan\Documents\GitHub\sport_main_code_2023/sport_menu.h:1807
  while (!intersectionL && !intersectionR) {
    23ae:	40 e0       	ldi	r20, 0x00	; 0
    23b0:	60 e0       	ldi	r22, 0x00	; 0
    23b2:	80 e0       	ldi	r24, 0x00	; 0
    23b4:	0e 94 83 06 	call	0xd06	; 0xd06 <read_sensor(char, char, char)>
    23b8:	89 2b       	or	r24, r25
    23ba:	09 f4       	brne	.+2      	; 0x23be <archery()+0x1e>
    23bc:	47 c0       	rjmp	.+142    	; 0x244c <archery()+0xac>
    23be:	40 e0       	ldi	r20, 0x00	; 0
    23c0:	62 e0       	ldi	r22, 0x02	; 2
    23c2:	82 e0       	ldi	r24, 0x02	; 2
    23c4:	0e 94 83 06 	call	0xd06	; 0xd06 <read_sensor(char, char, char)>
    23c8:	89 2b       	or	r24, r25
    23ca:	09 f4       	brne	.+2      	; 0x23ce <archery()+0x2e>
    23cc:	4f c0       	rjmp	.+158    	; 0x246c <archery()+0xcc>
C:\Users\Ryan\Documents\GitHub\sport_main_code_2023/sport_menu.h:1810
    linefollow();
  }
  go(0, 0);
    23ce:	70 e0       	ldi	r23, 0x00	; 0
    23d0:	60 e0       	ldi	r22, 0x00	; 0
    23d2:	90 e0       	ldi	r25, 0x00	; 0
    23d4:	80 e0       	ldi	r24, 0x00	; 0
    23d6:	0e 94 d0 06 	call	0xda0	; 0xda0 <go(int, int)>
C:\Users\Ryan\Documents\GitHub\sport_main_code_2023/sport_menu.h:1811
  beep(3);
    23da:	83 e0       	ldi	r24, 0x03	; 3
    23dc:	90 e0       	ldi	r25, 0x00	; 0
    23de:	0e 94 2e 08 	call	0x105c	; 0x105c <beep(int)>
C:\Users\Ryan\Documents\GitHub\sport_main_code_2023/sport_menu.h:1812
  XL_Gripper(31, 100, 1000);
    23e2:	48 ee       	ldi	r20, 0xE8	; 232
    23e4:	53 e0       	ldi	r21, 0x03	; 3
    23e6:	64 e6       	ldi	r22, 0x64	; 100
    23e8:	70 e0       	ldi	r23, 0x00	; 0
    23ea:	8f e1       	ldi	r24, 0x1F	; 31
    23ec:	0e 94 a8 08 	call	0x1150	; 0x1150 <XL_Gripper(char, int, int)>
C:\Users\Ryan\Documents\GitHub\sport_main_code_2023/sport_menu.h:1813
  delay(1);
    23f0:	61 e0       	ldi	r22, 0x01	; 1
    23f2:	70 e0       	ldi	r23, 0x00	; 0
    23f4:	80 e0       	ldi	r24, 0x00	; 0
    23f6:	90 e0       	ldi	r25, 0x00	; 0
    23f8:	0e 94 24 03 	call	0x648	; 0x648 <delay>
C:\Users\Ryan\Documents\GitHub\sport_main_code_2023/sport_menu.h:1814
  delay(2000);
    23fc:	60 ed       	ldi	r22, 0xD0	; 208
    23fe:	77 e0       	ldi	r23, 0x07	; 7
    2400:	80 e0       	ldi	r24, 0x00	; 0
    2402:	90 e0       	ldi	r25, 0x00	; 0
    2404:	0e 94 24 03 	call	0x648	; 0x648 <delay>
C:\Users\Ryan\Documents\GitHub\sport_main_code_2023/sport_menu.h:1815
  move(Back, T90 / 4, 120);
    2408:	be 01       	movw	r22, r28
    240a:	d7 ff       	sbrs	r29, 7
    240c:	02 c0       	rjmp	.+4      	; 0x2412 <archery()+0x72>
    240e:	6d 5f       	subi	r22, 0xFD	; 253
    2410:	7f 4f       	sbci	r23, 0xFF	; 255
    2412:	75 95       	asr	r23
    2414:	67 95       	ror	r22
    2416:	75 95       	asr	r23
    2418:	67 95       	ror	r22
    241a:	48 e7       	ldi	r20, 0x78	; 120
    241c:	50 e0       	ldi	r21, 0x00	; 0
    241e:	8d e0       	ldi	r24, 0x0D	; 13
    2420:	90 e0       	ldi	r25, 0x00	; 0
    2422:	0e 94 35 07 	call	0xe6a	; 0xe6a <move(int, int, int)>
C:\Users\Ryan\Documents\GitHub\sport_main_code_2023/sport_menu.h:1816
  move(Left, T90 * 2, 120);
    2426:	be 01       	movw	r22, r28
    2428:	66 0f       	add	r22, r22
    242a:	77 1f       	adc	r23, r23
    242c:	48 e7       	ldi	r20, 0x78	; 120
    242e:	50 e0       	ldi	r21, 0x00	; 0
    2430:	8b e0       	ldi	r24, 0x0B	; 11
    2432:	90 e0       	ldi	r25, 0x00	; 0
    2434:	0e 94 35 07 	call	0xe6a	; 0xe6a <move(int, int, int)>
C:\Users\Ryan\Documents\GitHub\sport_main_code_2023/sport_menu.h:1817
  go(60, 60);
    2438:	6c e3       	ldi	r22, 0x3C	; 60
    243a:	70 e0       	ldi	r23, 0x00	; 0
    243c:	8c e3       	ldi	r24, 0x3C	; 60
    243e:	90 e0       	ldi	r25, 0x00	; 0
    2440:	0e 94 d0 06 	call	0xda0	; 0xda0 <go(int, int)>
C:\Users\Ryan\Documents\GitHub\sport_main_code_2023/sport_menu.h:1819
  get_back();
}
    2444:	df 91       	pop	r29
    2446:	cf 91       	pop	r28
C:\Users\Ryan\Documents\GitHub\sport_main_code_2023/sport_menu.h:1818
  delay(1);
  delay(2000);
  move(Back, T90 / 4, 120);
  move(Left, T90 * 2, 120);
  go(60, 60);
  get_back();
    2448:	0c 94 ad 0e 	jmp	0x1d5a	; 0x1d5a <get_back()>
C:\Users\Ryan\Documents\GitHub\sport_main_code_2023/sport_menu.h:1807
  get_back();
}
void archery() {
  int arm_dropping = EEPROM_read_int(arm_dropping_address);
  int T90 = EEPROM_read_int(T90_address);
  while (!intersectionL && !intersectionR) {
    244c:	40 e0       	ldi	r20, 0x00	; 0
    244e:	60 e0       	ldi	r22, 0x00	; 0
    2450:	81 e0       	ldi	r24, 0x01	; 1
    2452:	0e 94 83 06 	call	0xd06	; 0xd06 <read_sensor(char, char, char)>
    2456:	89 2b       	or	r24, r25
    2458:	09 f0       	breq	.+2      	; 0x245c <archery()+0xbc>
    245a:	b1 cf       	rjmp	.-158    	; 0x23be <archery()+0x1e>
    245c:	40 e0       	ldi	r20, 0x00	; 0
    245e:	61 e0       	ldi	r22, 0x01	; 1
    2460:	81 e0       	ldi	r24, 0x01	; 1
    2462:	0e 94 83 06 	call	0xd06	; 0xd06 <read_sensor(char, char, char)>
    2466:	89 2b       	or	r24, r25
    2468:	09 f0       	breq	.+2      	; 0x246c <archery()+0xcc>
    246a:	a9 cf       	rjmp	.-174    	; 0x23be <archery()+0x1e>
    246c:	40 e0       	ldi	r20, 0x00	; 0
    246e:	60 e0       	ldi	r22, 0x00	; 0
    2470:	80 e0       	ldi	r24, 0x00	; 0
    2472:	0e 94 83 06 	call	0xd06	; 0xd06 <read_sensor(char, char, char)>
    2476:	89 2b       	or	r24, r25
    2478:	59 f0       	breq	.+22     	; 0x2490 <archery()+0xf0>
    247a:	40 e0       	ldi	r20, 0x00	; 0
    247c:	63 e0       	ldi	r22, 0x03	; 3
    247e:	82 e0       	ldi	r24, 0x02	; 2
    2480:	0e 94 83 06 	call	0xd06	; 0xd06 <read_sensor(char, char, char)>
    2484:	89 2b       	or	r24, r25
    2486:	09 f0       	breq	.+2      	; 0x248a <archery()+0xea>
    2488:	a2 cf       	rjmp	.-188    	; 0x23ce <archery()+0x2e>
C:\Users\Ryan\Documents\GitHub\sport_main_code_2023/sport_menu.h:1808
    linefollow();
    248a:	0e 94 a4 07 	call	0xf48	; 0xf48 <linefollow()>
    248e:	8f cf       	rjmp	.-226    	; 0x23ae <archery()+0xe>
C:\Users\Ryan\Documents\GitHub\sport_main_code_2023/sport_menu.h:1807
  get_back();
}
void archery() {
  int arm_dropping = EEPROM_read_int(arm_dropping_address);
  int T90 = EEPROM_read_int(T90_address);
  while (!intersectionL && !intersectionR) {
    2490:	40 e0       	ldi	r20, 0x00	; 0
    2492:	60 e0       	ldi	r22, 0x00	; 0
    2494:	81 e0       	ldi	r24, 0x01	; 1
    2496:	0e 94 83 06 	call	0xd06	; 0xd06 <read_sensor(char, char, char)>
    249a:	89 2b       	or	r24, r25
    249c:	71 f7       	brne	.-36     	; 0x247a <archery()+0xda>
    249e:	40 e0       	ldi	r20, 0x00	; 0
    24a0:	61 e0       	ldi	r22, 0x01	; 1
    24a2:	81 e0       	ldi	r24, 0x01	; 1
    24a4:	0e 94 83 06 	call	0xd06	; 0xd06 <read_sensor(char, char, char)>
    24a8:	89 2b       	or	r24, r25
    24aa:	39 f7       	brne	.-50     	; 0x247a <archery()+0xda>
    24ac:	ee cf       	rjmp	.-36     	; 0x248a <archery()+0xea>

000024ae <football()>:
football():
C:\Users\Ryan\Documents\GitHub\sport_main_code_2023/sport_menu.h:1731
  if (vl_dis == 20) {
    delay(10);
    return vl_double_check(xv);
  } else return vl_dis;
}
void football() {
    24ae:	0f 93       	push	r16
    24b0:	1f 93       	push	r17
    24b2:	cf 93       	push	r28
    24b4:	df 93       	push	r29
C:\Users\Ryan\Documents\GitHub\sport_main_code_2023/sport_menu.h:1732
  int T90 = EEPROM_read_int(T90_address);
    24b6:	88 e9       	ldi	r24, 0x98	; 152
    24b8:	90 e0       	ldi	r25, 0x00	; 0
    24ba:	0e 94 1c 0a 	call	0x1438	; 0x1438 <EEPROM_read_int(int)>
    24be:	ec 01       	movw	r28, r24
C:\Users\Ryan\Documents\GitHub\sport_main_code_2023/sport_menu.h:1736
  int arm_dropping = EEPROM_read_int(arm_dropping_address);
  int arm_normal = EEPROM_read_int(arm_normal_address);
  while (1) {
    linefollow();
    24c0:	0e 94 a4 07 	call	0xf48	; 0xf48 <linefollow()>
C:\Users\Ryan\Documents\GitHub\sport_main_code_2023/sport_menu.h:1737
    if (intersectionL && intersectionR) {
    24c4:	40 e0       	ldi	r20, 0x00	; 0
    24c6:	60 e0       	ldi	r22, 0x00	; 0
    24c8:	80 e0       	ldi	r24, 0x00	; 0
    24ca:	0e 94 83 06 	call	0xd06	; 0xd06 <read_sensor(char, char, char)>
    24ce:	89 2b       	or	r24, r25
    24d0:	09 f4       	brne	.+2      	; 0x24d4 <football()+0x26>
    24d2:	7f c0       	rjmp	.+254    	; 0x25d2 <football()+0x124>
    24d4:	40 e0       	ldi	r20, 0x00	; 0
    24d6:	62 e0       	ldi	r22, 0x02	; 2
    24d8:	82 e0       	ldi	r24, 0x02	; 2
    24da:	0e 94 83 06 	call	0xd06	; 0xd06 <read_sensor(char, char, char)>
    24de:	89 2b       	or	r24, r25
    24e0:	79 f3       	breq	.-34     	; 0x24c0 <football()+0x12>
    24e2:	40 e0       	ldi	r20, 0x00	; 0
    24e4:	60 e0       	ldi	r22, 0x00	; 0
    24e6:	80 e0       	ldi	r24, 0x00	; 0
    24e8:	0e 94 83 06 	call	0xd06	; 0xd06 <read_sensor(char, char, char)>
    24ec:	89 2b       	or	r24, r25
    24ee:	09 f4       	brne	.+2      	; 0x24f2 <football()+0x44>
    24f0:	81 c0       	rjmp	.+258    	; 0x25f4 <football()+0x146>
    24f2:	40 e0       	ldi	r20, 0x00	; 0
    24f4:	63 e0       	ldi	r22, 0x03	; 3
    24f6:	82 e0       	ldi	r24, 0x02	; 2
    24f8:	0e 94 83 06 	call	0xd06	; 0xd06 <read_sensor(char, char, char)>
    24fc:	89 2b       	or	r24, r25
    24fe:	01 f3       	breq	.-64     	; 0x24c0 <football()+0x12>
C:\Users\Ryan\Documents\GitHub\sport_main_code_2023/sport_menu.h:1738
      go(0, 0);
    2500:	70 e0       	ldi	r23, 0x00	; 0
    2502:	60 e0       	ldi	r22, 0x00	; 0
    2504:	90 e0       	ldi	r25, 0x00	; 0
    2506:	80 e0       	ldi	r24, 0x00	; 0
    2508:	0e 94 d0 06 	call	0xda0	; 0xda0 <go(int, int)>
C:\Users\Ryan\Documents\GitHub\sport_main_code_2023/sport_menu.h:1739
      move(Back, T90 / 8, 100);
    250c:	be 01       	movw	r22, r28
    250e:	d7 ff       	sbrs	r29, 7
    2510:	02 c0       	rjmp	.+4      	; 0x2516 <football()+0x68>
    2512:	69 5f       	subi	r22, 0xF9	; 249
    2514:	7f 4f       	sbci	r23, 0xFF	; 255
    2516:	23 e0       	ldi	r18, 0x03	; 3
    2518:	75 95       	asr	r23
    251a:	67 95       	ror	r22
    251c:	2a 95       	dec	r18
    251e:	e1 f7       	brne	.-8      	; 0x2518 <football()+0x6a>
    2520:	44 e6       	ldi	r20, 0x64	; 100
    2522:	50 e0       	ldi	r21, 0x00	; 0
    2524:	8d e0       	ldi	r24, 0x0D	; 13
    2526:	90 e0       	ldi	r25, 0x00	; 0
    2528:	0e 94 35 07 	call	0xe6a	; 0xe6a <move(int, int, int)>
C:\Users\Ryan\Documents\GitHub\sport_main_code_2023/sport_menu.h:1740
      beep(3);
    252c:	83 e0       	ldi	r24, 0x03	; 3
    252e:	90 e0       	ldi	r25, 0x00	; 0
    2530:	0e 94 2e 08 	call	0x105c	; 0x105c <beep(int)>
C:\Users\Ryan\Documents\GitHub\sport_main_code_2023/sport_menu.h:1742
      
        move(Right, T90 / 6, 100);
    2534:	ce 01       	movw	r24, r28
    2536:	66 e0       	ldi	r22, 0x06	; 6
    2538:	70 e0       	ldi	r23, 0x00	; 0
    253a:	0e 94 d0 35 	call	0x6ba0	; 0x6ba0 <__divmodhi4>
    253e:	8b 01       	movw	r16, r22
    2540:	44 e6       	ldi	r20, 0x64	; 100
    2542:	50 e0       	ldi	r21, 0x00	; 0
    2544:	8c e0       	ldi	r24, 0x0C	; 12
    2546:	90 e0       	ldi	r25, 0x00	; 0
    2548:	0e 94 35 07 	call	0xe6a	; 0xe6a <move(int, int, int)>
C:\Users\Ryan\Documents\GitHub\sport_main_code_2023/sport_menu.h:1743
        move(forward, T90 / 4, 60);
    254c:	be 01       	movw	r22, r28
    254e:	d7 ff       	sbrs	r29, 7
    2550:	02 c0       	rjmp	.+4      	; 0x2556 <football()+0xa8>
    2552:	6d 5f       	subi	r22, 0xFD	; 253
    2554:	7f 4f       	sbci	r23, 0xFF	; 255
    2556:	75 95       	asr	r23
    2558:	67 95       	ror	r22
    255a:	75 95       	asr	r23
    255c:	67 95       	ror	r22
    255e:	4c e3       	ldi	r20, 0x3C	; 60
    2560:	50 e0       	ldi	r21, 0x00	; 0
    2562:	8a e0       	ldi	r24, 0x0A	; 10
    2564:	90 e0       	ldi	r25, 0x00	; 0
    2566:	0e 94 35 07 	call	0xe6a	; 0xe6a <move(int, int, int)>
C:\Users\Ryan\Documents\GitHub\sport_main_code_2023/sport_menu.h:1744
        move_arm(550, 1000);
    256a:	68 ee       	ldi	r22, 0xE8	; 232
    256c:	73 e0       	ldi	r23, 0x03	; 3
    256e:	86 e2       	ldi	r24, 0x26	; 38
    2570:	92 e0       	ldi	r25, 0x02	; 2
    2572:	0e 94 91 08 	call	0x1122	; 0x1122 <move_arm(int, int)>
C:\Users\Ryan\Documents\GitHub\sport_main_code_2023/sport_menu.h:1745
        delay(1000);
    2576:	68 ee       	ldi	r22, 0xE8	; 232
    2578:	73 e0       	ldi	r23, 0x03	; 3
    257a:	80 e0       	ldi	r24, 0x00	; 0
    257c:	90 e0       	ldi	r25, 0x00	; 0
    257e:	0e 94 24 03 	call	0x648	; 0x648 <delay>
C:\Users\Ryan\Documents\GitHub\sport_main_code_2023/sport_menu.h:1746
        move_arm(100, 500);
    2582:	64 ef       	ldi	r22, 0xF4	; 244
    2584:	71 e0       	ldi	r23, 0x01	; 1
    2586:	84 e6       	ldi	r24, 0x64	; 100
    2588:	90 e0       	ldi	r25, 0x00	; 0
    258a:	0e 94 91 08 	call	0x1122	; 0x1122 <move_arm(int, int)>
C:\Users\Ryan\Documents\GitHub\sport_main_code_2023/sport_menu.h:1747
        delay(1000);
    258e:	68 ee       	ldi	r22, 0xE8	; 232
    2590:	73 e0       	ldi	r23, 0x03	; 3
    2592:	80 e0       	ldi	r24, 0x00	; 0
    2594:	90 e0       	ldi	r25, 0x00	; 0
    2596:	0e 94 24 03 	call	0x648	; 0x648 <delay>
C:\Users\Ryan\Documents\GitHub\sport_main_code_2023/sport_menu.h:1748
        move(Back, T90 / 6, 100);
    259a:	44 e6       	ldi	r20, 0x64	; 100
    259c:	50 e0       	ldi	r21, 0x00	; 0
    259e:	b8 01       	movw	r22, r16
    25a0:	8d e0       	ldi	r24, 0x0D	; 13
    25a2:	90 e0       	ldi	r25, 0x00	; 0
    25a4:	0e 94 35 07 	call	0xe6a	; 0xe6a <move(int, int, int)>
C:\Users\Ryan\Documents\GitHub\sport_main_code_2023/sport_menu.h:1749
        move(Left, T90 * 2, 150);
    25a8:	be 01       	movw	r22, r28
    25aa:	66 0f       	add	r22, r22
    25ac:	77 1f       	adc	r23, r23
    25ae:	46 e9       	ldi	r20, 0x96	; 150
    25b0:	50 e0       	ldi	r21, 0x00	; 0
    25b2:	8b e0       	ldi	r24, 0x0B	; 11
    25b4:	90 e0       	ldi	r25, 0x00	; 0
    25b6:	0e 94 35 07 	call	0xe6a	; 0xe6a <move(int, int, int)>
C:\Users\Ryan\Documents\GitHub\sport_main_code_2023/sport_menu.h:1750
        go(60, 60);
    25ba:	6c e3       	ldi	r22, 0x3C	; 60
    25bc:	70 e0       	ldi	r23, 0x00	; 0
    25be:	8c e3       	ldi	r24, 0x3C	; 60
    25c0:	90 e0       	ldi	r25, 0x00	; 0
    25c2:	0e 94 d0 06 	call	0xda0	; 0xda0 <go(int, int)>
C:\Users\Ryan\Documents\GitHub\sport_main_code_2023/sport_menu.h:1757
      
    }
  }

  get_back();
}
    25c6:	df 91       	pop	r29
    25c8:	cf 91       	pop	r28
    25ca:	1f 91       	pop	r17
    25cc:	0f 91       	pop	r16
C:\Users\Ryan\Documents\GitHub\sport_main_code_2023/sport_menu.h:1756
        break;
      
    }
  }

  get_back();
    25ce:	0c 94 ad 0e 	jmp	0x1d5a	; 0x1d5a <get_back()>
C:\Users\Ryan\Documents\GitHub\sport_main_code_2023/sport_menu.h:1737
  int T90 = EEPROM_read_int(T90_address);
  int arm_dropping = EEPROM_read_int(arm_dropping_address);
  int arm_normal = EEPROM_read_int(arm_normal_address);
  while (1) {
    linefollow();
    if (intersectionL && intersectionR) {
    25d2:	40 e0       	ldi	r20, 0x00	; 0
    25d4:	60 e0       	ldi	r22, 0x00	; 0
    25d6:	81 e0       	ldi	r24, 0x01	; 1
    25d8:	0e 94 83 06 	call	0xd06	; 0xd06 <read_sensor(char, char, char)>
    25dc:	89 2b       	or	r24, r25
    25de:	09 f0       	breq	.+2      	; 0x25e2 <football()+0x134>
    25e0:	79 cf       	rjmp	.-270    	; 0x24d4 <football()+0x26>
    25e2:	40 e0       	ldi	r20, 0x00	; 0
    25e4:	61 e0       	ldi	r22, 0x01	; 1
    25e6:	81 e0       	ldi	r24, 0x01	; 1
    25e8:	0e 94 83 06 	call	0xd06	; 0xd06 <read_sensor(char, char, char)>
    25ec:	89 2b       	or	r24, r25
    25ee:	09 f0       	breq	.+2      	; 0x25f2 <football()+0x144>
    25f0:	71 cf       	rjmp	.-286    	; 0x24d4 <football()+0x26>
    25f2:	66 cf       	rjmp	.-308    	; 0x24c0 <football()+0x12>
    25f4:	40 e0       	ldi	r20, 0x00	; 0
    25f6:	60 e0       	ldi	r22, 0x00	; 0
    25f8:	81 e0       	ldi	r24, 0x01	; 1
    25fa:	0e 94 83 06 	call	0xd06	; 0xd06 <read_sensor(char, char, char)>
    25fe:	89 2b       	or	r24, r25
    2600:	09 f0       	breq	.+2      	; 0x2604 <football()+0x156>
    2602:	77 cf       	rjmp	.-274    	; 0x24f2 <football()+0x44>
    2604:	40 e0       	ldi	r20, 0x00	; 0
    2606:	61 e0       	ldi	r22, 0x01	; 1
    2608:	81 e0       	ldi	r24, 0x01	; 1
    260a:	0e 94 83 06 	call	0xd06	; 0xd06 <read_sensor(char, char, char)>
    260e:	89 2b       	or	r24, r25
    2610:	09 f0       	breq	.+2      	; 0x2614 <football()+0x166>
    2612:	6f cf       	rjmp	.-290    	; 0x24f2 <football()+0x44>
    2614:	55 cf       	rjmp	.-342    	; 0x24c0 <football()+0x12>

00002616 <wlift()>:
wlift():
C:\Users\Ryan\Documents\GitHub\sport_main_code_2023/sport_menu.h:1497
    move(Right, T90 / 1.3, 150);
    move(forward, T90 / 3, 150);
  }
  go(60, 60);
}
void wlift() {
    2616:	cf 92       	push	r12
    2618:	df 92       	push	r13
    261a:	ef 92       	push	r14
    261c:	ff 92       	push	r15
    261e:	0f 93       	push	r16
    2620:	1f 93       	push	r17
    2622:	cf 93       	push	r28
    2624:	df 93       	push	r29
C:\Users\Ryan\Documents\GitHub\sport_main_code_2023/sport_menu.h:1498
  int T90 = EEPROM_read_int(T90_address);
    2626:	88 e9       	ldi	r24, 0x98	; 152
    2628:	90 e0       	ldi	r25, 0x00	; 0
    262a:	0e 94 1c 0a 	call	0x1438	; 0x1438 <EEPROM_read_int(int)>
    262e:	ec 01       	movw	r28, r24
C:\Users\Ryan\Documents\GitHub\sport_main_code_2023/sport_menu.h:1502
  int gripper_close = EEPROM_read_int(gripper_close_address);
  int gripper_open = EEPROM_read_int(gripper_open_address);
  int inter_cnt = 0;  //intersection counting
  delay(50);
    2630:	62 e3       	ldi	r22, 0x32	; 50
    2632:	70 e0       	ldi	r23, 0x00	; 0
    2634:	80 e0       	ldi	r24, 0x00	; 0
    2636:	90 e0       	ldi	r25, 0x00	; 0
    2638:	0e 94 24 03 	call	0x648	; 0x648 <delay>
C:\Users\Ryan\Documents\GitHub\sport_main_code_2023/sport_menu.h:1503
  move_arm(800, 400);
    263c:	60 e9       	ldi	r22, 0x90	; 144
    263e:	71 e0       	ldi	r23, 0x01	; 1
    2640:	80 e2       	ldi	r24, 0x20	; 32
    2642:	93 e0       	ldi	r25, 0x03	; 3
    2644:	0e 94 91 08 	call	0x1122	; 0x1122 <move_arm(int, int)>
C:\Users\Ryan\Documents\GitHub\sport_main_code_2023/sport_menu.h:1504
  delay(500);
    2648:	64 ef       	ldi	r22, 0xF4	; 244
    264a:	71 e0       	ldi	r23, 0x01	; 1
    264c:	80 e0       	ldi	r24, 0x00	; 0
    264e:	90 e0       	ldi	r25, 0x00	; 0
    2650:	0e 94 24 03 	call	0x648	; 0x648 <delay>
C:\Users\Ryan\Documents\GitHub\sport_main_code_2023/sport_menu.h:1505
  go(80, 80);
    2654:	60 e5       	ldi	r22, 0x50	; 80
    2656:	70 e0       	ldi	r23, 0x00	; 0
    2658:	80 e5       	ldi	r24, 0x50	; 80
    265a:	90 e0       	ldi	r25, 0x00	; 0
    265c:	0e 94 d0 06 	call	0xda0	; 0xda0 <go(int, int)>
C:\Users\Ryan\Documents\GitHub\sport_main_code_2023/sport_menu.h:1524
      } else if (inter_cnt == 3) {
        inter_cnt += 1;
      }
    }
    if (inter_cnt == 2) {
      move(Back, T90 / 2, 100);
    2660:	7e 01       	movw	r14, r28
    2662:	d7 ff       	sbrs	r29, 7
    2664:	03 c0       	rjmp	.+6      	; 0x266c <wlift()+0x56>
    2666:	8f ef       	ldi	r24, 0xFF	; 255
    2668:	e8 1a       	sub	r14, r24
    266a:	f8 0a       	sbc	r15, r24
    266c:	f5 94       	asr	r15
    266e:	e7 94       	ror	r14
C:\Users\Ryan\Documents\GitHub\sport_main_code_2023/sport_menu.h:1527
      move_arm(345, 500);
      delay(300);  //arm_normal
      move(forward, T90 / 5, 50);
    2670:	ce 01       	movw	r24, r28
    2672:	65 e0       	ldi	r22, 0x05	; 5
    2674:	70 e0       	ldi	r23, 0x00	; 0
    2676:	0e 94 d0 35 	call	0x6ba0	; 0x6ba0 <__divmodhi4>
    267a:	6b 01       	movw	r12, r22
C:\Users\Ryan\Documents\GitHub\sport_main_code_2023/sport_menu.h:1501
}
void wlift() {
  int T90 = EEPROM_read_int(T90_address);
  int gripper_close = EEPROM_read_int(gripper_close_address);
  int gripper_open = EEPROM_read_int(gripper_open_address);
  int inter_cnt = 0;  //intersection counting
    267c:	10 e0       	ldi	r17, 0x00	; 0
    267e:	00 e0       	ldi	r16, 0x00	; 0
C:\Users\Ryan\Documents\GitHub\sport_main_code_2023/sport_menu.h:1507
  delay(50);
  move_arm(800, 400);
  delay(500);
  go(80, 80);
  while (1) {
    lcd.clear();
    2680:	0e 94 bf 05 	call	0xb7e	; 0xb7e <LiquidCrystal::clear() [clone .constprop.38]>
C:\Users\Ryan\Documents\GitHub\sport_main_code_2023/sport_menu.h:1508
    lcd.print(inter_cnt);
    2684:	c8 01       	movw	r24, r16
    2686:	0e 94 d6 09 	call	0x13ac	; 0x13ac <Print::print(int, int) [clone .constprop.4]>
C:\Users\Ryan\Documents\GitHub\sport_main_code_2023/sport_menu.h:1509
    linefollow();
    268a:	0e 94 a4 07 	call	0xf48	; 0xf48 <linefollow()>
C:\Users\Ryan\Documents\GitHub\sport_main_code_2023/sport_menu.h:1510
    if (intersectionL && intersectionR) {
    268e:	40 e0       	ldi	r20, 0x00	; 0
    2690:	60 e0       	ldi	r22, 0x00	; 0
    2692:	80 e0       	ldi	r24, 0x00	; 0
    2694:	0e 94 83 06 	call	0xd06	; 0xd06 <read_sensor(char, char, char)>
    2698:	89 2b       	or	r24, r25
    269a:	99 f1       	breq	.+102    	; 0x2702 <wlift()+0xec>
    269c:	40 e0       	ldi	r20, 0x00	; 0
    269e:	62 e0       	ldi	r22, 0x02	; 2
    26a0:	82 e0       	ldi	r24, 0x02	; 2
    26a2:	0e 94 83 06 	call	0xd06	; 0xd06 <read_sensor(char, char, char)>
    26a6:	89 2b       	or	r24, r25
    26a8:	d9 f1       	breq	.+118    	; 0x2720 <wlift()+0x10a>
    26aa:	40 e0       	ldi	r20, 0x00	; 0
    26ac:	60 e0       	ldi	r22, 0x00	; 0
    26ae:	80 e0       	ldi	r24, 0x00	; 0
    26b0:	0e 94 83 06 	call	0xd06	; 0xd06 <read_sensor(char, char, char)>
    26b4:	89 2b       	or	r24, r25
    26b6:	09 f4       	brne	.+2      	; 0x26ba <wlift()+0xa4>
    26b8:	75 c0       	rjmp	.+234    	; 0x27a4 <wlift()+0x18e>
    26ba:	40 e0       	ldi	r20, 0x00	; 0
    26bc:	63 e0       	ldi	r22, 0x03	; 3
    26be:	82 e0       	ldi	r24, 0x02	; 2
    26c0:	0e 94 83 06 	call	0xd06	; 0xd06 <read_sensor(char, char, char)>
    26c4:	89 2b       	or	r24, r25
    26c6:	61 f1       	breq	.+88     	; 0x2720 <wlift()+0x10a>
C:\Users\Ryan\Documents\GitHub\sport_main_code_2023/sport_menu.h:1511
      if (inter_cnt == 0) {
    26c8:	01 15       	cp	r16, r1
    26ca:	11 05       	cpc	r17, r1
    26cc:	09 f0       	breq	.+2      	; 0x26d0 <wlift()+0xba>
    26ce:	ab c0       	rjmp	.+342    	; 0x2826 <wlift()+0x210>
C:\Users\Ryan\Documents\GitHub\sport_main_code_2023/sport_menu.h:1512
        go(50, 50);
    26d0:	62 e3       	ldi	r22, 0x32	; 50
    26d2:	70 e0       	ldi	r23, 0x00	; 0
    26d4:	82 e3       	ldi	r24, 0x32	; 50
    26d6:	90 e0       	ldi	r25, 0x00	; 0
    26d8:	0e 94 d0 06 	call	0xda0	; 0xda0 <go(int, int)>
C:\Users\Ryan\Documents\GitHub\sport_main_code_2023/sport_menu.h:1513
        while (intersectionL && intersectionR)
    26dc:	40 e0       	ldi	r20, 0x00	; 0
    26de:	60 e0       	ldi	r22, 0x00	; 0
    26e0:	80 e0       	ldi	r24, 0x00	; 0
    26e2:	0e 94 83 06 	call	0xd06	; 0xd06 <read_sensor(char, char, char)>
    26e6:	89 2b       	or	r24, r25
    26e8:	09 f4       	brne	.+2      	; 0x26ec <wlift()+0xd6>
    26ea:	6d c0       	rjmp	.+218    	; 0x27c6 <wlift()+0x1b0>
    26ec:	40 e0       	ldi	r20, 0x00	; 0
    26ee:	62 e0       	ldi	r22, 0x02	; 2
    26f0:	82 e0       	ldi	r24, 0x02	; 2
    26f2:	0e 94 83 06 	call	0xd06	; 0xd06 <read_sensor(char, char, char)>
    26f6:	89 2b       	or	r24, r25
    26f8:	09 f0       	breq	.+2      	; 0x26fc <wlift()+0xe6>
    26fa:	76 c0       	rjmp	.+236    	; 0x27e8 <wlift()+0x1d2>
C:\Users\Ryan\Documents\GitHub\sport_main_code_2023/sport_menu.h:1535
      lcd.clear();
      lcd.print("picking up");
      move_arm(780, 200);  //PICKUP
      delay(1500);
      move(forward, T90 / 2, 100);
      inter_cnt += 1;
    26fc:	01 e0       	ldi	r16, 0x01	; 1
    26fe:	10 e0       	ldi	r17, 0x00	; 0
    2700:	bf cf       	rjmp	.-130    	; 0x2680 <wlift()+0x6a>
C:\Users\Ryan\Documents\GitHub\sport_main_code_2023/sport_menu.h:1510
  go(80, 80);
  while (1) {
    lcd.clear();
    lcd.print(inter_cnt);
    linefollow();
    if (intersectionL && intersectionR) {
    2702:	40 e0       	ldi	r20, 0x00	; 0
    2704:	60 e0       	ldi	r22, 0x00	; 0
    2706:	81 e0       	ldi	r24, 0x01	; 1
    2708:	0e 94 83 06 	call	0xd06	; 0xd06 <read_sensor(char, char, char)>
    270c:	89 2b       	or	r24, r25
    270e:	31 f6       	brne	.-116    	; 0x269c <wlift()+0x86>
    2710:	40 e0       	ldi	r20, 0x00	; 0
    2712:	61 e0       	ldi	r22, 0x01	; 1
    2714:	81 e0       	ldi	r24, 0x01	; 1
    2716:	0e 94 83 06 	call	0xd06	; 0xd06 <read_sensor(char, char, char)>
    271a:	89 2b       	or	r24, r25
    271c:	09 f0       	breq	.+2      	; 0x2720 <wlift()+0x10a>
    271e:	be cf       	rjmp	.-132    	; 0x269c <wlift()+0x86>
C:\Users\Ryan\Documents\GitHub\sport_main_code_2023/sport_menu.h:1523
        inter_cnt = 2;
      } else if (inter_cnt == 3) {
        inter_cnt += 1;
      }
    }
    if (inter_cnt == 2) {
    2720:	02 30       	cpi	r16, 0x02	; 2
    2722:	11 05       	cpc	r17, r1
    2724:	09 f0       	breq	.+2      	; 0x2728 <wlift()+0x112>
    2726:	ac cf       	rjmp	.-168    	; 0x2680 <wlift()+0x6a>
C:\Users\Ryan\Documents\GitHub\sport_main_code_2023/sport_menu.h:1524
      move(Back, T90 / 2, 100);
    2728:	44 e6       	ldi	r20, 0x64	; 100
    272a:	50 e0       	ldi	r21, 0x00	; 0
    272c:	b7 01       	movw	r22, r14
    272e:	8d e0       	ldi	r24, 0x0D	; 13
    2730:	90 e0       	ldi	r25, 0x00	; 0
    2732:	0e 94 35 07 	call	0xe6a	; 0xe6a <move(int, int, int)>
C:\Users\Ryan\Documents\GitHub\sport_main_code_2023/sport_menu.h:1525
      move_arm(345, 500);
    2736:	64 ef       	ldi	r22, 0xF4	; 244
    2738:	71 e0       	ldi	r23, 0x01	; 1
    273a:	89 e5       	ldi	r24, 0x59	; 89
    273c:	91 e0       	ldi	r25, 0x01	; 1
    273e:	0e 94 91 08 	call	0x1122	; 0x1122 <move_arm(int, int)>
C:\Users\Ryan\Documents\GitHub\sport_main_code_2023/sport_menu.h:1526
      delay(300);  //arm_normal
    2742:	6c e2       	ldi	r22, 0x2C	; 44
    2744:	71 e0       	ldi	r23, 0x01	; 1
    2746:	80 e0       	ldi	r24, 0x00	; 0
    2748:	90 e0       	ldi	r25, 0x00	; 0
    274a:	0e 94 24 03 	call	0x648	; 0x648 <delay>
C:\Users\Ryan\Documents\GitHub\sport_main_code_2023/sport_menu.h:1527
      move(forward, T90 / 5, 50);
    274e:	42 e3       	ldi	r20, 0x32	; 50
    2750:	50 e0       	ldi	r21, 0x00	; 0
    2752:	b6 01       	movw	r22, r12
    2754:	8a e0       	ldi	r24, 0x0A	; 10
    2756:	90 e0       	ldi	r25, 0x00	; 0
    2758:	0e 94 35 07 	call	0xe6a	; 0xe6a <move(int, int, int)>
C:\Users\Ryan\Documents\GitHub\sport_main_code_2023/sport_menu.h:1528
      beep(3);
    275c:	83 e0       	ldi	r24, 0x03	; 3
    275e:	90 e0       	ldi	r25, 0x00	; 0
    2760:	0e 94 2e 08 	call	0x105c	; 0x105c <beep(int)>
C:\Users\Ryan\Documents\GitHub\sport_main_code_2023/sport_menu.h:1529
      lcd.print(inter_cnt);
    2764:	82 e0       	ldi	r24, 0x02	; 2
    2766:	90 e0       	ldi	r25, 0x00	; 0
    2768:	0e 94 d6 09 	call	0x13ac	; 0x13ac <Print::print(int, int) [clone .constprop.4]>
C:\Users\Ryan\Documents\GitHub\sport_main_code_2023/sport_menu.h:1530
      lcd.clear();
    276c:	0e 94 bf 05 	call	0xb7e	; 0xb7e <LiquidCrystal::clear() [clone .constprop.38]>
C:\Users\Ryan\Documents\GitHub\sport_main_code_2023/sport_menu.h:1531
      lcd.print("picking up");
    2770:	89 ed       	ldi	r24, 0xD9	; 217
    2772:	93 e0       	ldi	r25, 0x03	; 3
    2774:	0e 94 ff 09 	call	0x13fe	; 0x13fe <Print::print(char const*) [clone .constprop.9]>
C:\Users\Ryan\Documents\GitHub\sport_main_code_2023/sport_menu.h:1532
      move_arm(780, 200);  //PICKUP
    2778:	68 ec       	ldi	r22, 0xC8	; 200
    277a:	70 e0       	ldi	r23, 0x00	; 0
    277c:	8c e0       	ldi	r24, 0x0C	; 12
    277e:	93 e0       	ldi	r25, 0x03	; 3
    2780:	0e 94 91 08 	call	0x1122	; 0x1122 <move_arm(int, int)>
C:\Users\Ryan\Documents\GitHub\sport_main_code_2023/sport_menu.h:1533
      delay(1500);
    2784:	6c ed       	ldi	r22, 0xDC	; 220
    2786:	75 e0       	ldi	r23, 0x05	; 5
    2788:	80 e0       	ldi	r24, 0x00	; 0
    278a:	90 e0       	ldi	r25, 0x00	; 0
    278c:	0e 94 24 03 	call	0x648	; 0x648 <delay>
C:\Users\Ryan\Documents\GitHub\sport_main_code_2023/sport_menu.h:1534
      move(forward, T90 / 2, 100);
    2790:	44 e6       	ldi	r20, 0x64	; 100
    2792:	50 e0       	ldi	r21, 0x00	; 0
    2794:	b7 01       	movw	r22, r14
    2796:	8a e0       	ldi	r24, 0x0A	; 10
    2798:	90 e0       	ldi	r25, 0x00	; 0
    279a:	0e 94 35 07 	call	0xe6a	; 0xe6a <move(int, int, int)>
C:\Users\Ryan\Documents\GitHub\sport_main_code_2023/sport_menu.h:1535
      inter_cnt += 1;
    279e:	03 e0       	ldi	r16, 0x03	; 3
    27a0:	10 e0       	ldi	r17, 0x00	; 0
    27a2:	6e cf       	rjmp	.-292    	; 0x2680 <wlift()+0x6a>
C:\Users\Ryan\Documents\GitHub\sport_main_code_2023/sport_menu.h:1510
  go(80, 80);
  while (1) {
    lcd.clear();
    lcd.print(inter_cnt);
    linefollow();
    if (intersectionL && intersectionR) {
    27a4:	40 e0       	ldi	r20, 0x00	; 0
    27a6:	60 e0       	ldi	r22, 0x00	; 0
    27a8:	81 e0       	ldi	r24, 0x01	; 1
    27aa:	0e 94 83 06 	call	0xd06	; 0xd06 <read_sensor(char, char, char)>
    27ae:	89 2b       	or	r24, r25
    27b0:	09 f0       	breq	.+2      	; 0x27b4 <wlift()+0x19e>
    27b2:	83 cf       	rjmp	.-250    	; 0x26ba <wlift()+0xa4>
    27b4:	40 e0       	ldi	r20, 0x00	; 0
    27b6:	61 e0       	ldi	r22, 0x01	; 1
    27b8:	81 e0       	ldi	r24, 0x01	; 1
    27ba:	0e 94 83 06 	call	0xd06	; 0xd06 <read_sensor(char, char, char)>
    27be:	89 2b       	or	r24, r25
    27c0:	09 f0       	breq	.+2      	; 0x27c4 <wlift()+0x1ae>
    27c2:	7b cf       	rjmp	.-266    	; 0x26ba <wlift()+0xa4>
    27c4:	ad cf       	rjmp	.-166    	; 0x2720 <wlift()+0x10a>
C:\Users\Ryan\Documents\GitHub\sport_main_code_2023/sport_menu.h:1513
      if (inter_cnt == 0) {
        go(50, 50);
        while (intersectionL && intersectionR)
    27c6:	40 e0       	ldi	r20, 0x00	; 0
    27c8:	60 e0       	ldi	r22, 0x00	; 0
    27ca:	81 e0       	ldi	r24, 0x01	; 1
    27cc:	0e 94 83 06 	call	0xd06	; 0xd06 <read_sensor(char, char, char)>
    27d0:	89 2b       	or	r24, r25
    27d2:	09 f0       	breq	.+2      	; 0x27d6 <wlift()+0x1c0>
    27d4:	8b cf       	rjmp	.-234    	; 0x26ec <wlift()+0xd6>
    27d6:	40 e0       	ldi	r20, 0x00	; 0
    27d8:	61 e0       	ldi	r22, 0x01	; 1
    27da:	81 e0       	ldi	r24, 0x01	; 1
    27dc:	0e 94 83 06 	call	0xd06	; 0xd06 <read_sensor(char, char, char)>
    27e0:	89 2b       	or	r24, r25
    27e2:	09 f0       	breq	.+2      	; 0x27e6 <wlift()+0x1d0>
    27e4:	83 cf       	rjmp	.-250    	; 0x26ec <wlift()+0xd6>
    27e6:	8a cf       	rjmp	.-236    	; 0x26fc <wlift()+0xe6>
    27e8:	40 e0       	ldi	r20, 0x00	; 0
    27ea:	60 e0       	ldi	r22, 0x00	; 0
    27ec:	80 e0       	ldi	r24, 0x00	; 0
    27ee:	0e 94 83 06 	call	0xd06	; 0xd06 <read_sensor(char, char, char)>
    27f2:	89 2b       	or	r24, r25
    27f4:	49 f0       	breq	.+18     	; 0x2808 <wlift()+0x1f2>
    27f6:	40 e0       	ldi	r20, 0x00	; 0
    27f8:	63 e0       	ldi	r22, 0x03	; 3
    27fa:	82 e0       	ldi	r24, 0x02	; 2
    27fc:	0e 94 83 06 	call	0xd06	; 0xd06 <read_sensor(char, char, char)>
    2800:	89 2b       	or	r24, r25
    2802:	09 f0       	breq	.+2      	; 0x2806 <wlift()+0x1f0>
    2804:	6b cf       	rjmp	.-298    	; 0x26dc <wlift()+0xc6>
    2806:	7a cf       	rjmp	.-268    	; 0x26fc <wlift()+0xe6>
    2808:	40 e0       	ldi	r20, 0x00	; 0
    280a:	60 e0       	ldi	r22, 0x00	; 0
    280c:	81 e0       	ldi	r24, 0x01	; 1
    280e:	0e 94 83 06 	call	0xd06	; 0xd06 <read_sensor(char, char, char)>
    2812:	89 2b       	or	r24, r25
    2814:	81 f7       	brne	.-32     	; 0x27f6 <wlift()+0x1e0>
    2816:	40 e0       	ldi	r20, 0x00	; 0
    2818:	61 e0       	ldi	r22, 0x01	; 1
    281a:	81 e0       	ldi	r24, 0x01	; 1
    281c:	0e 94 83 06 	call	0xd06	; 0xd06 <read_sensor(char, char, char)>
    2820:	89 2b       	or	r24, r25
    2822:	49 f7       	brne	.-46     	; 0x27f6 <wlift()+0x1e0>
    2824:	6b cf       	rjmp	.-298    	; 0x26fc <wlift()+0xe6>
C:\Users\Ryan\Documents\GitHub\sport_main_code_2023/sport_menu.h:1516
          ;
        inter_cnt += 1;
      } else if (inter_cnt == 1) {
    2826:	01 30       	cpi	r16, 0x01	; 1
    2828:	11 05       	cpc	r17, r1
    282a:	39 f4       	brne	.+14     	; 0x283a <wlift()+0x224>
C:\Users\Ryan\Documents\GitHub\sport_main_code_2023/sport_menu.h:1517
        go(0, 0);
    282c:	70 e0       	ldi	r23, 0x00	; 0
    282e:	60 e0       	ldi	r22, 0x00	; 0
    2830:	90 e0       	ldi	r25, 0x00	; 0
    2832:	80 e0       	ldi	r24, 0x00	; 0
    2834:	0e 94 d0 06 	call	0xda0	; 0xda0 <go(int, int)>
    2838:	77 cf       	rjmp	.-274    	; 0x2728 <wlift()+0x112>
C:\Users\Ryan\Documents\GitHub\sport_main_code_2023/sport_menu.h:1519
        inter_cnt = 2;
      } else if (inter_cnt == 3) {
    283a:	03 30       	cpi	r16, 0x03	; 3
    283c:	11 05       	cpc	r17, r1
    283e:	09 f0       	breq	.+2      	; 0x2842 <wlift()+0x22c>
    2840:	6f cf       	rjmp	.-290    	; 0x2720 <wlift()+0x10a>
C:\Users\Ryan\Documents\GitHub\sport_main_code_2023/sport_menu.h:1538
      delay(1500);
      move(forward, T90 / 2, 100);
      inter_cnt += 1;
    }
    if (inter_cnt >= 4) {
      go(0, 0);
    2842:	70 e0       	ldi	r23, 0x00	; 0
    2844:	60 e0       	ldi	r22, 0x00	; 0
    2846:	90 e0       	ldi	r25, 0x00	; 0
    2848:	80 e0       	ldi	r24, 0x00	; 0
    284a:	0e 94 d0 06 	call	0xda0	; 0xda0 <go(int, int)>
C:\Users\Ryan\Documents\GitHub\sport_main_code_2023/sport_menu.h:1539
      move(Back, T90 / 13, 60);
    284e:	ce 01       	movw	r24, r28
    2850:	6d e0       	ldi	r22, 0x0D	; 13
    2852:	70 e0       	ldi	r23, 0x00	; 0
    2854:	0e 94 d0 35 	call	0x6ba0	; 0x6ba0 <__divmodhi4>
    2858:	4c e3       	ldi	r20, 0x3C	; 60
    285a:	50 e0       	ldi	r21, 0x00	; 0
    285c:	8d e0       	ldi	r24, 0x0D	; 13
    285e:	90 e0       	ldi	r25, 0x00	; 0
    2860:	0e 94 35 07 	call	0xe6a	; 0xe6a <move(int, int, int)>
C:\Users\Ryan\Documents\GitHub\sport_main_code_2023/sport_menu.h:1540
      lcd.clear();
    2864:	0e 94 bf 05 	call	0xb7e	; 0xb7e <LiquidCrystal::clear() [clone .constprop.38]>
C:\Users\Ryan\Documents\GitHub\sport_main_code_2023/sport_menu.h:1541
      lcd.print("putting down");
    2868:	8c ec       	ldi	r24, 0xCC	; 204
    286a:	93 e0       	ldi	r25, 0x03	; 3
    286c:	0e 94 ff 09 	call	0x13fe	; 0x13fe <Print::print(char const*) [clone .constprop.9]>
C:\Users\Ryan\Documents\GitHub\sport_main_code_2023/sport_menu.h:1542
      move_arm(345, 200);  //Dropping the weight
    2870:	68 ec       	ldi	r22, 0xC8	; 200
    2872:	70 e0       	ldi	r23, 0x00	; 0
    2874:	89 e5       	ldi	r24, 0x59	; 89
    2876:	91 e0       	ldi	r25, 0x01	; 1
    2878:	0e 94 91 08 	call	0x1122	; 0x1122 <move_arm(int, int)>
C:\Users\Ryan\Documents\GitHub\sport_main_code_2023/sport_menu.h:1543
      delay(3000);
    287c:	68 eb       	ldi	r22, 0xB8	; 184
    287e:	7b e0       	ldi	r23, 0x0B	; 11
    2880:	80 e0       	ldi	r24, 0x00	; 0
    2882:	90 e0       	ldi	r25, 0x00	; 0
    2884:	0e 94 24 03 	call	0x648	; 0x648 <delay>
C:\Users\Ryan\Documents\GitHub\sport_main_code_2023/sport_menu.h:1544
      move(Back, T90 * 1.5, 100);
    2888:	be 01       	movw	r22, r28
    288a:	0d 2e       	mov	r0, r29
    288c:	00 0c       	add	r0, r0
    288e:	88 0b       	sbc	r24, r24
    2890:	99 0b       	sbc	r25, r25
    2892:	0e 94 9f 34 	call	0x693e	; 0x693e <__floatsisf>
    2896:	20 e0       	ldi	r18, 0x00	; 0
    2898:	30 e0       	ldi	r19, 0x00	; 0
    289a:	40 ec       	ldi	r20, 0xC0	; 192
    289c:	5f e3       	ldi	r21, 0x3F	; 63
    289e:	0e 94 4f 35 	call	0x6a9e	; 0x6a9e <__mulsf3>
    28a2:	0e 94 67 34 	call	0x68ce	; 0x68ce <__fixsfsi>
    28a6:	44 e6       	ldi	r20, 0x64	; 100
    28a8:	50 e0       	ldi	r21, 0x00	; 0
    28aa:	8d e0       	ldi	r24, 0x0D	; 13
    28ac:	90 e0       	ldi	r25, 0x00	; 0
    28ae:	0e 94 35 07 	call	0xe6a	; 0xe6a <move(int, int, int)>
C:\Users\Ryan\Documents\GitHub\sport_main_code_2023/sport_menu.h:1545
      move(Left, T90 * 2, 150);
    28b2:	be 01       	movw	r22, r28
    28b4:	66 0f       	add	r22, r22
    28b6:	77 1f       	adc	r23, r23
    28b8:	46 e9       	ldi	r20, 0x96	; 150
    28ba:	50 e0       	ldi	r21, 0x00	; 0
    28bc:	8b e0       	ldi	r24, 0x0B	; 11
    28be:	90 e0       	ldi	r25, 0x00	; 0
    28c0:	0e 94 35 07 	call	0xe6a	; 0xe6a <move(int, int, int)>
C:\Users\Ryan\Documents\GitHub\sport_main_code_2023/sport_menu.h:1550
      get_back();
      break;
    }
  }
}
    28c4:	df 91       	pop	r29
    28c6:	cf 91       	pop	r28
    28c8:	1f 91       	pop	r17
    28ca:	0f 91       	pop	r16
    28cc:	ff 90       	pop	r15
    28ce:	ef 90       	pop	r14
    28d0:	df 90       	pop	r13
    28d2:	cf 90       	pop	r12
C:\Users\Ryan\Documents\GitHub\sport_main_code_2023/sport_menu.h:1546
      lcd.print("putting down");
      move_arm(345, 200);  //Dropping the weight
      delay(3000);
      move(Back, T90 * 1.5, 100);
      move(Left, T90 * 2, 150);
      get_back();
    28d4:	0c 94 ad 0e 	jmp	0x1d5a	; 0x1d5a <get_back()>

000028d8 <__vector_16>:
__vector_16():
C:\Users\Ryan\AppData\Local\Arduino15\packages\MegaCore\hardware\avr\3.0.3\cores\MCUdude_corefiles/wiring.c:159
#if defined(__AVR_ATtiny24__) || defined(__AVR_ATtiny44__) || defined(__AVR_ATtiny84__)
ISR(TIM0_OVF_vect)
#else
ISR(TIMER0_OVF_vect)
#endif
{
    28d8:	1f 92       	push	r1
    28da:	0f 92       	push	r0
    28dc:	0f b6       	in	r0, 0x3f	; 63
    28de:	0f 92       	push	r0
    28e0:	11 24       	eor	r1, r1
    28e2:	2f 93       	push	r18
    28e4:	3f 93       	push	r19
    28e6:	8f 93       	push	r24
    28e8:	9f 93       	push	r25
    28ea:	af 93       	push	r26
    28ec:	bf 93       	push	r27
C:\Users\Ryan\AppData\Local\Arduino15\packages\MegaCore\hardware\avr\3.0.3\cores\MCUdude_corefiles/wiring.c:167
  static unsigned char timer0_exact = 0;
#endif

  // copy these to local variables so they can be stored in registers
  // (volatile variables must be read from memory on every access, so this saves time)
  unsigned long m = timer0_millis;
    28ee:	80 91 e6 08 	lds	r24, 0x08E6	; 0x8008e6 <timer0_millis>
    28f2:	90 91 e7 08 	lds	r25, 0x08E7	; 0x8008e7 <timer0_millis+0x1>
    28f6:	a0 91 e8 08 	lds	r26, 0x08E8	; 0x8008e8 <timer0_millis+0x2>
    28fa:	b0 91 e9 08 	lds	r27, 0x08E9	; 0x8008e9 <timer0_millis+0x3>
C:\Users\Ryan\AppData\Local\Arduino15\packages\MegaCore\hardware\avr\3.0.3\cores\MCUdude_corefiles/wiring.c:168
  unsigned char f = timer0_fract;
    28fe:	30 91 e5 08 	lds	r19, 0x08E5	; 0x8008e5 <timer0_fract>
C:\Users\Ryan\AppData\Local\Arduino15\packages\MegaCore\hardware\avr\3.0.3\cores\MCUdude_corefiles/wiring.c:170

  f += FRACT_INC FRACT_INC_PLUS;
    2902:	23 e0       	ldi	r18, 0x03	; 3
    2904:	23 0f       	add	r18, r19
C:\Users\Ryan\AppData\Local\Arduino15\packages\MegaCore\hardware\avr\3.0.3\cores\MCUdude_corefiles/wiring.c:200
    ++f;
  }
#endif
#endif // CORRECT_EXACT_MILLIS

  if (f >= FRACT_MAX) {
    2906:	2d 37       	cpi	r18, 0x7D	; 125
    2908:	68 f1       	brcs	.+90     	; 0x2964 <__vector_16+0x8c>
C:\Users\Ryan\AppData\Local\Arduino15\packages\MegaCore\hardware\avr\3.0.3\cores\MCUdude_corefiles/wiring.c:201
    f -= FRACT_MAX;
    290a:	26 e8       	ldi	r18, 0x86	; 134
    290c:	23 0f       	add	r18, r19
C:\Users\Ryan\AppData\Local\Arduino15\packages\MegaCore\hardware\avr\3.0.3\cores\MCUdude_corefiles/wiring.c:202
    m += MILLIS_INC + 1;
    290e:	02 96       	adiw	r24, 0x02	; 2
    2910:	a1 1d       	adc	r26, r1
    2912:	b1 1d       	adc	r27, r1
C:\Users\Ryan\AppData\Local\Arduino15\packages\MegaCore\hardware\avr\3.0.3\cores\MCUdude_corefiles/wiring.c:208
  }
  else {
    m += MILLIS_INC;
  }

  timer0_fract = f;
    2914:	20 93 e5 08 	sts	0x08E5, r18	; 0x8008e5 <timer0_fract>
C:\Users\Ryan\AppData\Local\Arduino15\packages\MegaCore\hardware\avr\3.0.3\cores\MCUdude_corefiles/wiring.c:209
  timer0_millis = m;
    2918:	80 93 e6 08 	sts	0x08E6, r24	; 0x8008e6 <timer0_millis>
    291c:	90 93 e7 08 	sts	0x08E7, r25	; 0x8008e7 <timer0_millis+0x1>
    2920:	a0 93 e8 08 	sts	0x08E8, r26	; 0x8008e8 <timer0_millis+0x2>
    2924:	b0 93 e9 08 	sts	0x08E9, r27	; 0x8008e9 <timer0_millis+0x3>
C:\Users\Ryan\AppData\Local\Arduino15\packages\MegaCore\hardware\avr\3.0.3\cores\MCUdude_corefiles/wiring.c:211
#ifndef CORRECT_EXACT_MICROS
  timer0_overflow_count++;
    2928:	80 91 ea 08 	lds	r24, 0x08EA	; 0x8008ea <timer0_overflow_count>
    292c:	90 91 eb 08 	lds	r25, 0x08EB	; 0x8008eb <timer0_overflow_count+0x1>
    2930:	a0 91 ec 08 	lds	r26, 0x08EC	; 0x8008ec <timer0_overflow_count+0x2>
    2934:	b0 91 ed 08 	lds	r27, 0x08ED	; 0x8008ed <timer0_overflow_count+0x3>
    2938:	01 96       	adiw	r24, 0x01	; 1
    293a:	a1 1d       	adc	r26, r1
    293c:	b1 1d       	adc	r27, r1
    293e:	80 93 ea 08 	sts	0x08EA, r24	; 0x8008ea <timer0_overflow_count>
    2942:	90 93 eb 08 	sts	0x08EB, r25	; 0x8008eb <timer0_overflow_count+0x1>
    2946:	a0 93 ec 08 	sts	0x08EC, r26	; 0x8008ec <timer0_overflow_count+0x2>
    294a:	b0 93 ed 08 	sts	0x08ED, r27	; 0x8008ed <timer0_overflow_count+0x3>
C:\Users\Ryan\AppData\Local\Arduino15\packages\MegaCore\hardware\avr\3.0.3\cores\MCUdude_corefiles/wiring.c:213
#endif
}
    294e:	bf 91       	pop	r27
    2950:	af 91       	pop	r26
    2952:	9f 91       	pop	r25
    2954:	8f 91       	pop	r24
    2956:	3f 91       	pop	r19
    2958:	2f 91       	pop	r18
    295a:	0f 90       	pop	r0
    295c:	0f be       	out	0x3f, r0	; 63
    295e:	0f 90       	pop	r0
    2960:	1f 90       	pop	r1
    2962:	18 95       	reti
C:\Users\Ryan\AppData\Local\Arduino15\packages\MegaCore\hardware\avr\3.0.3\cores\MCUdude_corefiles/wiring.c:205
  if (f >= FRACT_MAX) {
    f -= FRACT_MAX;
    m += MILLIS_INC + 1;
  }
  else {
    m += MILLIS_INC;
    2964:	01 96       	adiw	r24, 0x01	; 1
    2966:	a1 1d       	adc	r26, r1
    2968:	b1 1d       	adc	r27, r1
    296a:	d4 cf       	rjmp	.-88     	; 0x2914 <__vector_16+0x3c>

0000296c <__vector_31>:
__vector_31():
C:\Users\Ryan\AppData\Local\Arduino15\packages\MegaCore\hardware\avr\3.0.3\cores\MCUdude_corefiles/HardwareSerial1.cpp:59
#elif defined(USART1_UDRE_vect)
ISR(USART1_UDRE_vect)
#else
#error "Don't know what the Data Register Empty vector is called for Serial1"
#endif
{
    296c:	1f 92       	push	r1
    296e:	0f 92       	push	r0
    2970:	0f b6       	in	r0, 0x3f	; 63
    2972:	0f 92       	push	r0
    2974:	11 24       	eor	r1, r1
    2976:	0b b6       	in	r0, 0x3b	; 59
    2978:	0f 92       	push	r0
    297a:	2f 93       	push	r18
    297c:	3f 93       	push	r19
    297e:	4f 93       	push	r20
    2980:	5f 93       	push	r21
    2982:	6f 93       	push	r22
    2984:	7f 93       	push	r23
    2986:	8f 93       	push	r24
    2988:	9f 93       	push	r25
    298a:	af 93       	push	r26
    298c:	bf 93       	push	r27
    298e:	ef 93       	push	r30
    2990:	ff 93       	push	r31
C:\Users\Ryan\AppData\Local\Arduino15\packages\MegaCore\hardware\avr\3.0.3\cores\MCUdude_corefiles/HardwareSerial1.cpp:60
  Serial1._tx_udr_empty_irq();
    2992:	89 e7       	ldi	r24, 0x79	; 121
    2994:	99 e0       	ldi	r25, 0x09	; 9
    2996:	0e 94 d6 03 	call	0x7ac	; 0x7ac <HardwareSerial::_tx_udr_empty_irq()>
C:\Users\Ryan\AppData\Local\Arduino15\packages\MegaCore\hardware\avr\3.0.3\cores\MCUdude_corefiles/HardwareSerial1.cpp:61
}
    299a:	ff 91       	pop	r31
    299c:	ef 91       	pop	r30
    299e:	bf 91       	pop	r27
    29a0:	af 91       	pop	r26
    29a2:	9f 91       	pop	r25
    29a4:	8f 91       	pop	r24
    29a6:	7f 91       	pop	r23
    29a8:	6f 91       	pop	r22
    29aa:	5f 91       	pop	r21
    29ac:	4f 91       	pop	r20
    29ae:	3f 91       	pop	r19
    29b0:	2f 91       	pop	r18
    29b2:	0f 90       	pop	r0
    29b4:	0b be       	out	0x3b, r0	; 59
    29b6:	0f 90       	pop	r0
    29b8:	0f be       	out	0x3f, r0	; 63
    29ba:	0f 90       	pop	r0
    29bc:	1f 90       	pop	r1
    29be:	18 95       	reti

000029c0 <__vector_30>:
__vector_30():
C:\Users\Ryan\AppData\Local\Arduino15\packages\MegaCore\hardware\avr\3.0.3\cores\MCUdude_corefiles/HardwareSerial1.cpp:48
#elif defined(USART1_RXC_vect)
ISR(USART1_RXC_vect)
#else
#error "Don't know what the Data Register Empty vector is called for Serial1"
#endif
{
    29c0:	1f 92       	push	r1
    29c2:	0f 92       	push	r0
    29c4:	0f b6       	in	r0, 0x3f	; 63
    29c6:	0f 92       	push	r0
    29c8:	11 24       	eor	r1, r1
    29ca:	0b b6       	in	r0, 0x3b	; 59
    29cc:	0f 92       	push	r0
    29ce:	2f 93       	push	r18
    29d0:	8f 93       	push	r24
    29d2:	9f 93       	push	r25
    29d4:	ef 93       	push	r30
    29d6:	ff 93       	push	r31
_rx_complete_irq():
C:\Users\Ryan\AppData\Local\Arduino15\packages\MegaCore\hardware\avr\3.0.3\cores\MCUdude_corefiles/HardwareSerial_private.h:100

// Actual interrupt handlers //////////////////////////////////////////////////////////////

void HardwareSerial::_rx_complete_irq(void)
{
  if (bit_is_clear(*_ucsra, UPE0)) {
    29d8:	e0 91 89 09 	lds	r30, 0x0989	; 0x800989 <Serial1+0x10>
    29dc:	f0 91 8a 09 	lds	r31, 0x098A	; 0x80098a <Serial1+0x11>
    29e0:	80 81       	ld	r24, Z
    29e2:	e0 91 8f 09 	lds	r30, 0x098F	; 0x80098f <Serial1+0x16>
    29e6:	f0 91 90 09 	lds	r31, 0x0990	; 0x800990 <Serial1+0x17>
    29ea:	82 fd       	sbrc	r24, 2
    29ec:	1d c0       	rjmp	.+58     	; 0x2a28 <__vector_30+0x68>
C:\Users\Ryan\AppData\Local\Arduino15\packages\MegaCore\hardware\avr\3.0.3\cores\MCUdude_corefiles/HardwareSerial_private.h:103
    // No Parity error, read byte and store it in the buffer if there is
    // room
    unsigned char c = *_udr;
    29ee:	90 81       	ld	r25, Z
C:\Users\Ryan\AppData\Local\Arduino15\packages\MegaCore\hardware\avr\3.0.3\cores\MCUdude_corefiles/HardwareSerial_private.h:104
    rx_buffer_index_t i = (unsigned int)(_rx_buffer_head + 1) % SERIAL_RX_BUFFER_SIZE;
    29f0:	80 91 92 09 	lds	r24, 0x0992	; 0x800992 <Serial1+0x19>
    29f4:	8f 5f       	subi	r24, 0xFF	; 255
    29f6:	8f 73       	andi	r24, 0x3F	; 63
C:\Users\Ryan\AppData\Local\Arduino15\packages\MegaCore\hardware\avr\3.0.3\cores\MCUdude_corefiles/HardwareSerial_private.h:110

    // if we should be storing the received character into the location
    // just before the tail (meaning that the head would advance to the
    // current location of the tail), we're about to overflow the buffer
    // and so we don't write the character or advance the head.
    if (i != _rx_buffer_tail) {
    29f8:	20 91 93 09 	lds	r18, 0x0993	; 0x800993 <Serial1+0x1a>
    29fc:	82 17       	cp	r24, r18
    29fe:	41 f0       	breq	.+16     	; 0x2a10 <__vector_30+0x50>
C:\Users\Ryan\AppData\Local\Arduino15\packages\MegaCore\hardware\avr\3.0.3\cores\MCUdude_corefiles/HardwareSerial_private.h:111
      _rx_buffer[_rx_buffer_head] = c;
    2a00:	e0 91 92 09 	lds	r30, 0x0992	; 0x800992 <Serial1+0x19>
    2a04:	f0 e0       	ldi	r31, 0x00	; 0
    2a06:	e7 58       	subi	r30, 0x87	; 135
    2a08:	f6 4f       	sbci	r31, 0xF6	; 246
    2a0a:	95 8f       	std	Z+29, r25	; 0x1d
C:\Users\Ryan\AppData\Local\Arduino15\packages\MegaCore\hardware\avr\3.0.3\cores\MCUdude_corefiles/HardwareSerial_private.h:112
      _rx_buffer_head = i;
    2a0c:	80 93 92 09 	sts	0x0992, r24	; 0x800992 <Serial1+0x19>
__vector_30():
C:\Users\Ryan\AppData\Local\Arduino15\packages\MegaCore\hardware\avr\3.0.3\cores\MCUdude_corefiles/HardwareSerial1.cpp:50
  Serial1._rx_complete_irq();
}
    2a10:	ff 91       	pop	r31
    2a12:	ef 91       	pop	r30
    2a14:	9f 91       	pop	r25
    2a16:	8f 91       	pop	r24
    2a18:	2f 91       	pop	r18
    2a1a:	0f 90       	pop	r0
    2a1c:	0b be       	out	0x3b, r0	; 59
    2a1e:	0f 90       	pop	r0
    2a20:	0f be       	out	0x3f, r0	; 63
    2a22:	0f 90       	pop	r0
    2a24:	1f 90       	pop	r1
    2a26:	18 95       	reti
_rx_complete_irq():
C:\Users\Ryan\AppData\Local\Arduino15\packages\MegaCore\hardware\avr\3.0.3\cores\MCUdude_corefiles/HardwareSerial_private.h:116
    }
  } else {
    // Parity error, read byte but discard it
    *_udr;
    2a28:	80 81       	ld	r24, Z
    2a2a:	f2 cf       	rjmp	.-28     	; 0x2a10 <__vector_30+0x50>

00002a2c <__vector_19>:
__vector_19():
C:\Users\Ryan\AppData\Local\Arduino15\packages\MegaCore\hardware\avr\3.0.3\cores\MCUdude_corefiles/HardwareSerial0.cpp:63
#elif defined(USART0_UDRE_vect)
ISR(USART0_UDRE_vect)
#else
  #error "Don't know what the Data Register Empty vector is called for Serial"
#endif
{
    2a2c:	1f 92       	push	r1
    2a2e:	0f 92       	push	r0
    2a30:	0f b6       	in	r0, 0x3f	; 63
    2a32:	0f 92       	push	r0
    2a34:	11 24       	eor	r1, r1
    2a36:	0b b6       	in	r0, 0x3b	; 59
    2a38:	0f 92       	push	r0
    2a3a:	2f 93       	push	r18
    2a3c:	3f 93       	push	r19
    2a3e:	4f 93       	push	r20
    2a40:	5f 93       	push	r21
    2a42:	6f 93       	push	r22
    2a44:	7f 93       	push	r23
    2a46:	8f 93       	push	r24
    2a48:	9f 93       	push	r25
    2a4a:	af 93       	push	r26
    2a4c:	bf 93       	push	r27
    2a4e:	ef 93       	push	r30
    2a50:	ff 93       	push	r31
C:\Users\Ryan\AppData\Local\Arduino15\packages\MegaCore\hardware\avr\3.0.3\cores\MCUdude_corefiles/HardwareSerial0.cpp:64
  Serial._tx_udr_empty_irq();
    2a52:	86 e1       	ldi	r24, 0x16	; 22
    2a54:	9a e0       	ldi	r25, 0x0A	; 10
    2a56:	0e 94 d6 03 	call	0x7ac	; 0x7ac <HardwareSerial::_tx_udr_empty_irq()>
C:\Users\Ryan\AppData\Local\Arduino15\packages\MegaCore\hardware\avr\3.0.3\cores\MCUdude_corefiles/HardwareSerial0.cpp:65
}
    2a5a:	ff 91       	pop	r31
    2a5c:	ef 91       	pop	r30
    2a5e:	bf 91       	pop	r27
    2a60:	af 91       	pop	r26
    2a62:	9f 91       	pop	r25
    2a64:	8f 91       	pop	r24
    2a66:	7f 91       	pop	r23
    2a68:	6f 91       	pop	r22
    2a6a:	5f 91       	pop	r21
    2a6c:	4f 91       	pop	r20
    2a6e:	3f 91       	pop	r19
    2a70:	2f 91       	pop	r18
    2a72:	0f 90       	pop	r0
    2a74:	0b be       	out	0x3b, r0	; 59
    2a76:	0f 90       	pop	r0
    2a78:	0f be       	out	0x3f, r0	; 63
    2a7a:	0f 90       	pop	r0
    2a7c:	1f 90       	pop	r1
    2a7e:	18 95       	reti

00002a80 <__vector_18>:
__vector_18():
C:\Users\Ryan\AppData\Local\Arduino15\packages\MegaCore\hardware\avr\3.0.3\cores\MCUdude_corefiles/HardwareSerial0.cpp:50
#elif defined(USART_RX_vect)
  ISR(USART_RX_vect)
#else
  #error "Don't know what the Data Received vector is called for Serial"
#endif
  {
    2a80:	1f 92       	push	r1
    2a82:	0f 92       	push	r0
    2a84:	0f b6       	in	r0, 0x3f	; 63
    2a86:	0f 92       	push	r0
    2a88:	11 24       	eor	r1, r1
    2a8a:	0b b6       	in	r0, 0x3b	; 59
    2a8c:	0f 92       	push	r0
    2a8e:	2f 93       	push	r18
    2a90:	8f 93       	push	r24
    2a92:	9f 93       	push	r25
    2a94:	ef 93       	push	r30
    2a96:	ff 93       	push	r31
_rx_complete_irq():
C:\Users\Ryan\AppData\Local\Arduino15\packages\MegaCore\hardware\avr\3.0.3\cores\MCUdude_corefiles/HardwareSerial_private.h:100

// Actual interrupt handlers //////////////////////////////////////////////////////////////

void HardwareSerial::_rx_complete_irq(void)
{
  if (bit_is_clear(*_ucsra, UPE0)) {
    2a98:	e0 91 26 0a 	lds	r30, 0x0A26	; 0x800a26 <Serial+0x10>
    2a9c:	f0 91 27 0a 	lds	r31, 0x0A27	; 0x800a27 <Serial+0x11>
    2aa0:	80 81       	ld	r24, Z
    2aa2:	e0 91 2c 0a 	lds	r30, 0x0A2C	; 0x800a2c <Serial+0x16>
    2aa6:	f0 91 2d 0a 	lds	r31, 0x0A2D	; 0x800a2d <Serial+0x17>
    2aaa:	82 fd       	sbrc	r24, 2
    2aac:	1d c0       	rjmp	.+58     	; 0x2ae8 <__vector_18+0x68>
C:\Users\Ryan\AppData\Local\Arduino15\packages\MegaCore\hardware\avr\3.0.3\cores\MCUdude_corefiles/HardwareSerial_private.h:103
    // No Parity error, read byte and store it in the buffer if there is
    // room
    unsigned char c = *_udr;
    2aae:	90 81       	ld	r25, Z
C:\Users\Ryan\AppData\Local\Arduino15\packages\MegaCore\hardware\avr\3.0.3\cores\MCUdude_corefiles/HardwareSerial_private.h:104
    rx_buffer_index_t i = (unsigned int)(_rx_buffer_head + 1) % SERIAL_RX_BUFFER_SIZE;
    2ab0:	80 91 2f 0a 	lds	r24, 0x0A2F	; 0x800a2f <Serial+0x19>
    2ab4:	8f 5f       	subi	r24, 0xFF	; 255
    2ab6:	8f 73       	andi	r24, 0x3F	; 63
C:\Users\Ryan\AppData\Local\Arduino15\packages\MegaCore\hardware\avr\3.0.3\cores\MCUdude_corefiles/HardwareSerial_private.h:110

    // if we should be storing the received character into the location
    // just before the tail (meaning that the head would advance to the
    // current location of the tail), we're about to overflow the buffer
    // and so we don't write the character or advance the head.
    if (i != _rx_buffer_tail) {
    2ab8:	20 91 30 0a 	lds	r18, 0x0A30	; 0x800a30 <Serial+0x1a>
    2abc:	82 17       	cp	r24, r18
    2abe:	41 f0       	breq	.+16     	; 0x2ad0 <__vector_18+0x50>
C:\Users\Ryan\AppData\Local\Arduino15\packages\MegaCore\hardware\avr\3.0.3\cores\MCUdude_corefiles/HardwareSerial_private.h:111
      _rx_buffer[_rx_buffer_head] = c;
    2ac0:	e0 91 2f 0a 	lds	r30, 0x0A2F	; 0x800a2f <Serial+0x19>
    2ac4:	f0 e0       	ldi	r31, 0x00	; 0
    2ac6:	ea 5e       	subi	r30, 0xEA	; 234
    2ac8:	f5 4f       	sbci	r31, 0xF5	; 245
    2aca:	95 8f       	std	Z+29, r25	; 0x1d
C:\Users\Ryan\AppData\Local\Arduino15\packages\MegaCore\hardware\avr\3.0.3\cores\MCUdude_corefiles/HardwareSerial_private.h:112
      _rx_buffer_head = i;
    2acc:	80 93 2f 0a 	sts	0x0A2F, r24	; 0x800a2f <Serial+0x19>
__vector_18():
C:\Users\Ryan\AppData\Local\Arduino15\packages\MegaCore\hardware\avr\3.0.3\cores\MCUdude_corefiles/HardwareSerial0.cpp:52
    Serial._rx_complete_irq();
  }
    2ad0:	ff 91       	pop	r31
    2ad2:	ef 91       	pop	r30
    2ad4:	9f 91       	pop	r25
    2ad6:	8f 91       	pop	r24
    2ad8:	2f 91       	pop	r18
    2ada:	0f 90       	pop	r0
    2adc:	0b be       	out	0x3b, r0	; 59
    2ade:	0f 90       	pop	r0
    2ae0:	0f be       	out	0x3f, r0	; 63
    2ae2:	0f 90       	pop	r0
    2ae4:	1f 90       	pop	r1
    2ae6:	18 95       	reti
_rx_complete_irq():
C:\Users\Ryan\AppData\Local\Arduino15\packages\MegaCore\hardware\avr\3.0.3\cores\MCUdude_corefiles/HardwareSerial_private.h:116
    }
  } else {
    // Parity error, read byte but discard it
    *_udr;
    2ae8:	80 81       	ld	r24, Z
    2aea:	f2 cf       	rjmp	.-28     	; 0x2ad0 <__vector_18+0x50>

00002aec <__vector_33>:
__vector_33():
C:\Users\Ryan\AppData\Local\Arduino15\packages\MegaCore\hardware\avr\3.0.3\libraries\Wire\src\TwoWire\utility/twi.c:528
  }
  return(flag);
}

ISR(TWI_vect)
{
    2aec:	1f 92       	push	r1
    2aee:	0f 92       	push	r0
    2af0:	0f b6       	in	r0, 0x3f	; 63
    2af2:	0f 92       	push	r0
    2af4:	11 24       	eor	r1, r1
    2af6:	0b b6       	in	r0, 0x3b	; 59
    2af8:	0f 92       	push	r0
    2afa:	2f 93       	push	r18
    2afc:	3f 93       	push	r19
    2afe:	4f 93       	push	r20
    2b00:	5f 93       	push	r21
    2b02:	6f 93       	push	r22
    2b04:	7f 93       	push	r23
    2b06:	8f 93       	push	r24
    2b08:	9f 93       	push	r25
    2b0a:	af 93       	push	r26
    2b0c:	bf 93       	push	r27
    2b0e:	ef 93       	push	r30
    2b10:	ff 93       	push	r31
C:\Users\Ryan\AppData\Local\Arduino15\packages\MegaCore\hardware\avr\3.0.3\libraries\Wire\src\TwoWire\utility/twi.c:529
  switch(TW_STATUS){
    2b12:	80 91 71 00 	lds	r24, 0x0071	; 0x800071 <__TEXT_REGION_LENGTH__+0x7e0071>
    2b16:	88 7f       	andi	r24, 0xF8	; 248
    2b18:	80 36       	cpi	r24, 0x60	; 96
    2b1a:	09 f4       	brne	.+2      	; 0x2b1e <__vector_33+0x32>
    2b1c:	4d c0       	rjmp	.+154    	; 0x2bb8 <__vector_33+0xcc>
    2b1e:	08 f0       	brcs	.+2      	; 0x2b22 <__vector_33+0x36>
    2b20:	40 c0       	rjmp	.+128    	; 0x2ba2 <__vector_33+0xb6>
    2b22:	88 32       	cpi	r24, 0x28	; 40
    2b24:	09 f4       	brne	.+2      	; 0x2b28 <__vector_33+0x3c>
    2b26:	a9 c0       	rjmp	.+338    	; 0x2c7a <__vector_33+0x18e>
    2b28:	28 f5       	brcc	.+74     	; 0x2b74 <__vector_33+0x88>
    2b2a:	80 31       	cpi	r24, 0x10	; 16
    2b2c:	09 f4       	brne	.+2      	; 0x2b30 <__vector_33+0x44>
    2b2e:	9d c0       	rjmp	.+314    	; 0x2c6a <__vector_33+0x17e>
    2b30:	c8 f4       	brcc	.+50     	; 0x2b64 <__vector_33+0x78>
    2b32:	88 23       	and	r24, r24
    2b34:	09 f4       	brne	.+2      	; 0x2b38 <__vector_33+0x4c>
    2b36:	07 c1       	rjmp	.+526    	; 0x2d46 <__vector_33+0x25a>
    2b38:	88 30       	cpi	r24, 0x08	; 8
    2b3a:	09 f4       	brne	.+2      	; 0x2b3e <__vector_33+0x52>
    2b3c:	96 c0       	rjmp	.+300    	; 0x2c6a <__vector_33+0x17e>
C:\Users\Ryan\AppData\Local\Arduino15\packages\MegaCore\hardware\avr\3.0.3\libraries\Wire\src\TwoWire\utility/twi.c:690
    case TW_BUS_ERROR: // bus error, illegal stop/start
      twi_error = TW_BUS_ERROR;
      twi_stop();
      break;
  }
}
    2b3e:	ff 91       	pop	r31
    2b40:	ef 91       	pop	r30
    2b42:	bf 91       	pop	r27
    2b44:	af 91       	pop	r26
    2b46:	9f 91       	pop	r25
    2b48:	8f 91       	pop	r24
    2b4a:	7f 91       	pop	r23
    2b4c:	6f 91       	pop	r22
    2b4e:	5f 91       	pop	r21
    2b50:	4f 91       	pop	r20
    2b52:	3f 91       	pop	r19
    2b54:	2f 91       	pop	r18
    2b56:	0f 90       	pop	r0
    2b58:	0b be       	out	0x3b, r0	; 59
    2b5a:	0f 90       	pop	r0
    2b5c:	0f be       	out	0x3f, r0	; 63
    2b5e:	0f 90       	pop	r0
    2b60:	1f 90       	pop	r1
    2b62:	18 95       	reti
C:\Users\Ryan\AppData\Local\Arduino15\packages\MegaCore\hardware\avr\3.0.3\libraries\Wire\src\TwoWire\utility/twi.c:529
  return(flag);
}

ISR(TWI_vect)
{
  switch(TW_STATUS){
    2b64:	88 31       	cpi	r24, 0x18	; 24
    2b66:	09 f4       	brne	.+2      	; 0x2b6a <__vector_33+0x7e>
    2b68:	88 c0       	rjmp	.+272    	; 0x2c7a <__vector_33+0x18e>
    2b6a:	80 32       	cpi	r24, 0x20	; 32
    2b6c:	41 f7       	brne	.-48     	; 0x2b3e <__vector_33+0x52>
C:\Users\Ryan\AppData\Local\Arduino15\packages\MegaCore\hardware\avr\3.0.3\libraries\Wire\src\TwoWire\utility/twi.c:564
    case TW_MT_SLA_NACK:  // address sent, nack received
      twi_error = TW_MT_SLA_NACK;
      twi_stop();
      break;
    case TW_MT_DATA_NACK: // data sent, nack received
      twi_error = TW_MT_DATA_NACK;
    2b6e:	80 93 f4 08 	sts	0x08F4, r24	; 0x8008f4 <twi_error>
    2b72:	14 c0       	rjmp	.+40     	; 0x2b9c <__vector_33+0xb0>
C:\Users\Ryan\AppData\Local\Arduino15\packages\MegaCore\hardware\avr\3.0.3\libraries\Wire\src\TwoWire\utility/twi.c:529
  return(flag);
}

ISR(TWI_vect)
{
  switch(TW_STATUS){
    2b74:	80 34       	cpi	r24, 0x40	; 64
    2b76:	09 f4       	brne	.+2      	; 0x2b7a <__vector_33+0x8e>
    2b78:	a5 c0       	rjmp	.+330    	; 0x2cc4 <__vector_33+0x1d8>
    2b7a:	40 f4       	brcc	.+16     	; 0x2b8c <__vector_33+0xa0>
    2b7c:	80 33       	cpi	r24, 0x30	; 48
    2b7e:	b9 f3       	breq	.-18     	; 0x2b6e <__vector_33+0x82>
    2b80:	88 33       	cpi	r24, 0x38	; 56
    2b82:	e9 f6       	brne	.-70     	; 0x2b3e <__vector_33+0x52>
C:\Users\Ryan\AppData\Local\Arduino15\packages\MegaCore\hardware\avr\3.0.3\libraries\Wire\src\TwoWire\utility/twi.c:568
    case TW_MT_DATA_NACK: // data sent, nack received
      twi_error = TW_MT_DATA_NACK;
      twi_stop();
      break;
    case TW_MT_ARB_LOST: // lost bus arbitration
      twi_error = TW_MT_ARB_LOST;
    2b84:	80 93 f4 08 	sts	0x08F4, r24	; 0x8008f4 <twi_error>
twi_reply():
C:\Users\Ryan\AppData\Local\Arduino15\packages\MegaCore\hardware\avr\3.0.3\libraries\Wire\src\TwoWire\utility/twi.c:415
 */
void twi_reply(uint8_t ack)
{
  // transmit master read ready signal, with or without ack
  if(ack){
    TWCR = _BV(TWEN) | _BV(TWIE) | _BV(TWINT) | _BV(TWEA);
    2b88:	85 ec       	ldi	r24, 0xC5	; 197
    2b8a:	bc c0       	rjmp	.+376    	; 0x2d04 <__vector_33+0x218>
__vector_33():
C:\Users\Ryan\AppData\Local\Arduino15\packages\MegaCore\hardware\avr\3.0.3\libraries\Wire\src\TwoWire\utility/twi.c:529
  return(flag);
}

ISR(TWI_vect)
{
  switch(TW_STATUS){
    2b8c:	80 35       	cpi	r24, 0x50	; 80
    2b8e:	09 f4       	brne	.+2      	; 0x2b92 <__vector_33+0xa6>
    2b90:	89 c0       	rjmp	.+274    	; 0x2ca4 <__vector_33+0x1b8>
    2b92:	88 35       	cpi	r24, 0x58	; 88
    2b94:	09 f4       	brne	.+2      	; 0x2b98 <__vector_33+0xac>
    2b96:	9e c0       	rjmp	.+316    	; 0x2cd4 <__vector_33+0x1e8>
    2b98:	88 34       	cpi	r24, 0x48	; 72
    2b9a:	89 f6       	brne	.-94     	; 0x2b3e <__vector_33+0x52>
C:\Users\Ryan\AppData\Local\Arduino15\packages\MegaCore\hardware\avr\3.0.3\libraries\Wire\src\TwoWire\utility/twi.c:687
    // All
    case TW_NO_INFO:   // no state information
      break;
    case TW_BUS_ERROR: // bus error, illegal stop/start
      twi_error = TW_BUS_ERROR;
      twi_stop();
    2b9c:	0e 94 78 04 	call	0x8f0	; 0x8f0 <twi_stop>
    2ba0:	ce cf       	rjmp	.-100    	; 0x2b3e <__vector_33+0x52>
C:\Users\Ryan\AppData\Local\Arduino15\packages\MegaCore\hardware\avr\3.0.3\libraries\Wire\src\TwoWire\utility/twi.c:529
  return(flag);
}

ISR(TWI_vect)
{
  switch(TW_STATUS){
    2ba2:	88 39       	cpi	r24, 0x98	; 152
    2ba4:	09 f4       	brne	.+2      	; 0x2ba8 <__vector_33+0xbc>
    2ba6:	94 c0       	rjmp	.+296    	; 0x2cd0 <__vector_33+0x1e4>
    2ba8:	38 f5       	brcc	.+78     	; 0x2bf8 <__vector_33+0x10c>
    2baa:	88 37       	cpi	r24, 0x78	; 120
    2bac:	29 f0       	breq	.+10     	; 0x2bb8 <__vector_33+0xcc>
    2bae:	50 f4       	brcc	.+20     	; 0x2bc4 <__vector_33+0xd8>
    2bb0:	88 36       	cpi	r24, 0x68	; 104
    2bb2:	11 f0       	breq	.+4      	; 0x2bb8 <__vector_33+0xcc>
    2bb4:	80 37       	cpi	r24, 0x70	; 112
    2bb6:	19 f6       	brne	.-122    	; 0x2b3e <__vector_33+0x52>
C:\Users\Ryan\AppData\Local\Arduino15\packages\MegaCore\hardware\avr\3.0.3\libraries\Wire\src\TwoWire\utility/twi.c:610
    case TW_SR_SLA_ACK:   // addressed, returned ack
    case TW_SR_GCALL_ACK: // addressed generally, returned ack
    case TW_SR_ARB_LOST_SLA_ACK:   // lost arbitration, returned ack
    case TW_SR_ARB_LOST_GCALL_ACK: // lost arbitration, returned ack
      // enter slave receiver mode
      twi_state = TWI_SRX;
    2bb8:	83 e0       	ldi	r24, 0x03	; 3
    2bba:	80 93 f6 08 	sts	0x08F6, r24	; 0x8008f6 <twi_state>
C:\Users\Ryan\AppData\Local\Arduino15\packages\MegaCore\hardware\avr\3.0.3\libraries\Wire\src\TwoWire\utility/twi.c:612
      // indicate that rx buffer can be overwritten and ack
      twi_rxBufferIndex = 0;
    2bbe:	10 92 c0 08 	sts	0x08C0, r1	; 0x8008c0 <twi_rxBufferIndex>
    2bc2:	57 c0       	rjmp	.+174    	; 0x2c72 <__vector_33+0x186>
C:\Users\Ryan\AppData\Local\Arduino15\packages\MegaCore\hardware\avr\3.0.3\libraries\Wire\src\TwoWire\utility/twi.c:529
  return(flag);
}

ISR(TWI_vect)
{
  switch(TW_STATUS){
    2bc4:	88 38       	cpi	r24, 0x88	; 136
    2bc6:	09 f4       	brne	.+2      	; 0x2bca <__vector_33+0xde>
    2bc8:	83 c0       	rjmp	.+262    	; 0x2cd0 <__vector_33+0x1e4>
    2bca:	80 39       	cpi	r24, 0x90	; 144
    2bcc:	19 f0       	breq	.+6      	; 0x2bd4 <__vector_33+0xe8>
    2bce:	80 38       	cpi	r24, 0x80	; 128
    2bd0:	09 f0       	breq	.+2      	; 0x2bd4 <__vector_33+0xe8>
    2bd2:	b5 cf       	rjmp	.-150    	; 0x2b3e <__vector_33+0x52>
C:\Users\Ryan\AppData\Local\Arduino15\packages\MegaCore\hardware\avr\3.0.3\libraries\Wire\src\TwoWire\utility/twi.c:618
      twi_reply(1);
      break;
    case TW_SR_DATA_ACK:       // data received, returned ack
    case TW_SR_GCALL_DATA_ACK: // data received generally, returned ack
      // if there is still room in the rx buffer
      if(twi_rxBufferIndex < TWI_BUFFER_SIZE){
    2bd4:	80 91 c0 08 	lds	r24, 0x08C0	; 0x8008c0 <twi_rxBufferIndex>
    2bd8:	80 32       	cpi	r24, 0x20	; 32
    2bda:	08 f0       	brcs	.+2      	; 0x2bde <__vector_33+0xf2>
    2bdc:	79 c0       	rjmp	.+242    	; 0x2cd0 <__vector_33+0x1e4>
C:\Users\Ryan\AppData\Local\Arduino15\packages\MegaCore\hardware\avr\3.0.3\libraries\Wire\src\TwoWire\utility/twi.c:620
        // put byte in buffer and ack
        twi_rxBuffer[twi_rxBufferIndex++] = TWDR;
    2bde:	e0 91 c0 08 	lds	r30, 0x08C0	; 0x8008c0 <twi_rxBufferIndex>
    2be2:	81 e0       	ldi	r24, 0x01	; 1
    2be4:	8e 0f       	add	r24, r30
    2be6:	80 93 c0 08 	sts	0x08C0, r24	; 0x8008c0 <twi_rxBufferIndex>
    2bea:	80 91 73 00 	lds	r24, 0x0073	; 0x800073 <__TEXT_REGION_LENGTH__+0x7e0073>
    2bee:	f0 e0       	ldi	r31, 0x00	; 0
    2bf0:	e0 56       	subi	r30, 0x60	; 96
    2bf2:	f7 4f       	sbci	r31, 0xF7	; 247
    2bf4:	80 83       	st	Z, r24
    2bf6:	3d c0       	rjmp	.+122    	; 0x2c72 <__vector_33+0x186>
C:\Users\Ryan\AppData\Local\Arduino15\packages\MegaCore\hardware\avr\3.0.3\libraries\Wire\src\TwoWire\utility/twi.c:529
  return(flag);
}

ISR(TWI_vect)
{
  switch(TW_STATUS){
    2bf8:	80 3b       	cpi	r24, 0xB0	; 176
    2bfa:	39 f0       	breq	.+14     	; 0x2c0a <__vector_33+0x11e>
    2bfc:	e0 f4       	brcc	.+56     	; 0x2c36 <__vector_33+0x14a>
    2bfe:	80 3a       	cpi	r24, 0xA0	; 160
    2c00:	09 f4       	brne	.+2      	; 0x2c04 <__vector_33+0x118>
    2c02:	85 c0       	rjmp	.+266    	; 0x2d0e <__vector_33+0x222>
    2c04:	88 3a       	cpi	r24, 0xA8	; 168
    2c06:	09 f0       	breq	.+2      	; 0x2c0a <__vector_33+0x11e>
    2c08:	9a cf       	rjmp	.-204    	; 0x2b3e <__vector_33+0x52>
C:\Users\Ryan\AppData\Local\Arduino15\packages\MegaCore\hardware\avr\3.0.3\libraries\Wire\src\TwoWire\utility/twi.c:649

    // Slave Transmitter
    case TW_ST_SLA_ACK:          // addressed, returned ack
    case TW_ST_ARB_LOST_SLA_ACK: // arbitration lost, returned ack
      // enter slave transmitter mode
      twi_state = TWI_STX;
    2c0a:	84 e0       	ldi	r24, 0x04	; 4
    2c0c:	80 93 f6 08 	sts	0x08F6, r24	; 0x8008f6 <twi_state>
C:\Users\Ryan\AppData\Local\Arduino15\packages\MegaCore\hardware\avr\3.0.3\libraries\Wire\src\TwoWire\utility/twi.c:651
      // ready the tx buffer index for iteration
      twi_txBufferIndex = 0;
    2c10:	10 92 9f 08 	sts	0x089F, r1	; 0x80089f <twi_txBufferIndex>
C:\Users\Ryan\AppData\Local\Arduino15\packages\MegaCore\hardware\avr\3.0.3\libraries\Wire\src\TwoWire\utility/twi.c:653
      // set tx buffer length to be zero, to verify if user changes it
      twi_txBufferLength = 0;
    2c14:	10 92 9e 08 	sts	0x089E, r1	; 0x80089e <twi_txBufferLength>
C:\Users\Ryan\AppData\Local\Arduino15\packages\MegaCore\hardware\avr\3.0.3\libraries\Wire\src\TwoWire\utility/twi.c:656
      // request for txBuffer to be filled and length to be set
      // note: user must call twi_transmit(bytes, length) to do this
      twi_onSlaveTransmit();
    2c18:	e0 91 c3 08 	lds	r30, 0x08C3	; 0x8008c3 <twi_onSlaveTransmit>
    2c1c:	f0 91 c4 08 	lds	r31, 0x08C4	; 0x8008c4 <twi_onSlaveTransmit+0x1>
    2c20:	09 95       	icall
C:\Users\Ryan\AppData\Local\Arduino15\packages\MegaCore\hardware\avr\3.0.3\libraries\Wire\src\TwoWire\utility/twi.c:658
      // if they didn't change buffer & length, initialize it
      if(0 == twi_txBufferLength){
    2c22:	80 91 9e 08 	lds	r24, 0x089E	; 0x80089e <twi_txBufferLength>
    2c26:	81 11       	cpse	r24, r1
    2c28:	0f c0       	rjmp	.+30     	; 0x2c48 <__vector_33+0x15c>
C:\Users\Ryan\AppData\Local\Arduino15\packages\MegaCore\hardware\avr\3.0.3\libraries\Wire\src\TwoWire\utility/twi.c:659
        twi_txBufferLength = 1;
    2c2a:	81 e0       	ldi	r24, 0x01	; 1
    2c2c:	80 93 9e 08 	sts	0x089E, r24	; 0x80089e <twi_txBufferLength>
C:\Users\Ryan\AppData\Local\Arduino15\packages\MegaCore\hardware\avr\3.0.3\libraries\Wire\src\TwoWire\utility/twi.c:660
        twi_txBuffer[0] = 0x00;
    2c30:	10 92 7e 08 	sts	0x087E, r1	; 0x80087e <twi_txBuffer>
    2c34:	09 c0       	rjmp	.+18     	; 0x2c48 <__vector_33+0x15c>
C:\Users\Ryan\AppData\Local\Arduino15\packages\MegaCore\hardware\avr\3.0.3\libraries\Wire\src\TwoWire\utility/twi.c:529
  return(flag);
}

ISR(TWI_vect)
{
  switch(TW_STATUS){
    2c36:	80 3c       	cpi	r24, 0xC0	; 192
    2c38:	09 f4       	brne	.+2      	; 0x2c3c <__vector_33+0x150>
    2c3a:	a6 cf       	rjmp	.-180    	; 0x2b88 <__vector_33+0x9c>
    2c3c:	88 3c       	cpi	r24, 0xC8	; 200
    2c3e:	09 f4       	brne	.+2      	; 0x2c42 <__vector_33+0x156>
    2c40:	a3 cf       	rjmp	.-186    	; 0x2b88 <__vector_33+0x9c>
    2c42:	88 3b       	cpi	r24, 0xB8	; 184
    2c44:	09 f0       	breq	.+2      	; 0x2c48 <__vector_33+0x15c>
    2c46:	7b cf       	rjmp	.-266    	; 0x2b3e <__vector_33+0x52>
C:\Users\Ryan\AppData\Local\Arduino15\packages\MegaCore\hardware\avr\3.0.3\libraries\Wire\src\TwoWire\utility/twi.c:666
      }
      // transmit first byte from buffer, fall
      /* fall through */
    case TW_ST_DATA_ACK: // byte sent, ack returned
      // copy data to output register
      TWDR = twi_txBuffer[twi_txBufferIndex++];
    2c48:	e0 91 9f 08 	lds	r30, 0x089F	; 0x80089f <twi_txBufferIndex>
    2c4c:	81 e0       	ldi	r24, 0x01	; 1
    2c4e:	8e 0f       	add	r24, r30
    2c50:	80 93 9f 08 	sts	0x089F, r24	; 0x80089f <twi_txBufferIndex>
    2c54:	f0 e0       	ldi	r31, 0x00	; 0
    2c56:	e2 58       	subi	r30, 0x82	; 130
    2c58:	f7 4f       	sbci	r31, 0xF7	; 247
    2c5a:	80 81       	ld	r24, Z
    2c5c:	80 93 73 00 	sts	0x0073, r24	; 0x800073 <__TEXT_REGION_LENGTH__+0x7e0073>
C:\Users\Ryan\AppData\Local\Arduino15\packages\MegaCore\hardware\avr\3.0.3\libraries\Wire\src\TwoWire\utility/twi.c:668
      // if there is more to send, ack, otherwise nack
      if(twi_txBufferIndex < twi_txBufferLength){
    2c60:	90 91 9f 08 	lds	r25, 0x089F	; 0x80089f <twi_txBufferIndex>
    2c64:	80 91 9e 08 	lds	r24, 0x089E	; 0x80089e <twi_txBufferLength>
    2c68:	31 c0       	rjmp	.+98     	; 0x2ccc <__vector_33+0x1e0>
C:\Users\Ryan\AppData\Local\Arduino15\packages\MegaCore\hardware\avr\3.0.3\libraries\Wire\src\TwoWire\utility/twi.c:534
  switch(TW_STATUS){
    // All Master
    case TW_START:     // sent start condition
    case TW_REP_START: // sent repeated start condition
      // copy device address and r/w bit to output register and ack
      TWDR = twi_slarw;
    2c6a:	80 91 ef 08 	lds	r24, 0x08EF	; 0x8008ef <twi_slarw>
C:\Users\Ryan\AppData\Local\Arduino15\packages\MegaCore\hardware\avr\3.0.3\libraries\Wire\src\TwoWire\utility/twi.c:544
    case TW_MT_SLA_ACK:  // slave receiver acked address
    case TW_MT_DATA_ACK: // slave receiver acked data
      // if there is data to send, send it, otherwise stop
      if(twi_masterBufferIndex < twi_masterBufferLength){
        // copy data to output register and ack
        TWDR = twi_masterBuffer[twi_masterBufferIndex++];
    2c6e:	80 93 73 00 	sts	0x0073, r24	; 0x800073 <__TEXT_REGION_LENGTH__+0x7e0073>
twi_reply():
C:\Users\Ryan\AppData\Local\Arduino15\packages\MegaCore\hardware\avr\3.0.3\libraries\Wire\src\TwoWire\utility/twi.c:415
 */
void twi_reply(uint8_t ack)
{
  // transmit master read ready signal, with or without ack
  if(ack){
    TWCR = _BV(TWEN) | _BV(TWIE) | _BV(TWINT) | _BV(TWEA);
    2c72:	85 ec       	ldi	r24, 0xC5	; 197
C:\Users\Ryan\AppData\Local\Arduino15\packages\MegaCore\hardware\avr\3.0.3\libraries\Wire\src\TwoWire\utility/twi.c:417
  }else{
    TWCR = _BV(TWEN) | _BV(TWIE) | _BV(TWINT);
    2c74:	80 93 74 00 	sts	0x0074, r24	; 0x800074 <__TEXT_REGION_LENGTH__+0x7e0074>
    2c78:	62 cf       	rjmp	.-316    	; 0x2b3e <__vector_33+0x52>
__vector_33():
C:\Users\Ryan\AppData\Local\Arduino15\packages\MegaCore\hardware\avr\3.0.3\libraries\Wire\src\TwoWire\utility/twi.c:542

    // Master Transmitter
    case TW_MT_SLA_ACK:  // slave receiver acked address
    case TW_MT_DATA_ACK: // slave receiver acked data
      // if there is data to send, send it, otherwise stop
      if(twi_masterBufferIndex < twi_masterBufferLength){
    2c7a:	90 91 f1 08 	lds	r25, 0x08F1	; 0x8008f1 <twi_masterBufferIndex>
    2c7e:	80 91 f0 08 	lds	r24, 0x08F0	; 0x8008f0 <twi_masterBufferLength>
    2c82:	98 17       	cp	r25, r24
    2c84:	b8 f5       	brcc	.+110    	; 0x2cf4 <__vector_33+0x208>
C:\Users\Ryan\AppData\Local\Arduino15\packages\MegaCore\hardware\avr\3.0.3\libraries\Wire\src\TwoWire\utility/twi.c:544
        // copy data to output register and ack
        TWDR = twi_masterBuffer[twi_masterBufferIndex++];
    2c86:	80 91 f2 08 	lds	r24, 0x08F2	; 0x8008f2 <twi_masterBuffer>
    2c8a:	90 91 f3 08 	lds	r25, 0x08F3	; 0x8008f3 <twi_masterBuffer+0x1>
    2c8e:	e0 91 f1 08 	lds	r30, 0x08F1	; 0x8008f1 <twi_masterBufferIndex>
    2c92:	21 e0       	ldi	r18, 0x01	; 1
    2c94:	2e 0f       	add	r18, r30
    2c96:	20 93 f1 08 	sts	0x08F1, r18	; 0x8008f1 <twi_masterBufferIndex>
    2c9a:	e8 0f       	add	r30, r24
    2c9c:	f9 2f       	mov	r31, r25
    2c9e:	f1 1d       	adc	r31, r1
    2ca0:	80 81       	ld	r24, Z
    2ca2:	e5 cf       	rjmp	.-54     	; 0x2c6e <__vector_33+0x182>
C:\Users\Ryan\AppData\Local\Arduino15\packages\MegaCore\hardware\avr\3.0.3\libraries\Wire\src\TwoWire\utility/twi.c:575
      break;

    // Master Receiver
    case TW_MR_DATA_ACK: // data received, ack sent
      // put byte into buffer
      twi_masterBuffer[twi_masterBufferIndex++] = TWDR;
    2ca4:	20 91 f2 08 	lds	r18, 0x08F2	; 0x8008f2 <twi_masterBuffer>
    2ca8:	30 91 f3 08 	lds	r19, 0x08F3	; 0x8008f3 <twi_masterBuffer+0x1>
    2cac:	e0 91 f1 08 	lds	r30, 0x08F1	; 0x8008f1 <twi_masterBufferIndex>
    2cb0:	81 e0       	ldi	r24, 0x01	; 1
    2cb2:	8e 0f       	add	r24, r30
    2cb4:	80 93 f1 08 	sts	0x08F1, r24	; 0x8008f1 <twi_masterBufferIndex>
    2cb8:	80 91 73 00 	lds	r24, 0x0073	; 0x800073 <__TEXT_REGION_LENGTH__+0x7e0073>
    2cbc:	e2 0f       	add	r30, r18
    2cbe:	f3 2f       	mov	r31, r19
    2cc0:	f1 1d       	adc	r31, r1
    2cc2:	80 83       	st	Z, r24
C:\Users\Ryan\AppData\Local\Arduino15\packages\MegaCore\hardware\avr\3.0.3\libraries\Wire\src\TwoWire\utility/twi.c:579
      /* fall through */
    case TW_MR_SLA_ACK:  // address sent, ack received
      // ack if more bytes are expected, otherwise nack
      if(twi_masterBufferIndex < twi_masterBufferLength){
    2cc4:	90 91 f1 08 	lds	r25, 0x08F1	; 0x8008f1 <twi_masterBufferIndex>
    2cc8:	80 91 f0 08 	lds	r24, 0x08F0	; 0x8008f0 <twi_masterBufferLength>
C:\Users\Ryan\AppData\Local\Arduino15\packages\MegaCore\hardware\avr\3.0.3\libraries\Wire\src\TwoWire\utility/twi.c:668
      /* fall through */
    case TW_ST_DATA_ACK: // byte sent, ack returned
      // copy data to output register
      TWDR = twi_txBuffer[twi_txBufferIndex++];
      // if there is more to send, ack, otherwise nack
      if(twi_txBufferIndex < twi_txBufferLength){
    2ccc:	98 17       	cp	r25, r24
    2cce:	88 f2       	brcs	.-94     	; 0x2c72 <__vector_33+0x186>
twi_reply():
C:\Users\Ryan\AppData\Local\Arduino15\packages\MegaCore\hardware\avr\3.0.3\libraries\Wire\src\TwoWire\utility/twi.c:417
{
  // transmit master read ready signal, with or without ack
  if(ack){
    TWCR = _BV(TWEN) | _BV(TWIE) | _BV(TWINT) | _BV(TWEA);
  }else{
    TWCR = _BV(TWEN) | _BV(TWIE) | _BV(TWINT);
    2cd0:	85 e8       	ldi	r24, 0x85	; 133
    2cd2:	d0 cf       	rjmp	.-96     	; 0x2c74 <__vector_33+0x188>
__vector_33():
C:\Users\Ryan\AppData\Local\Arduino15\packages\MegaCore\hardware\avr\3.0.3\libraries\Wire\src\TwoWire\utility/twi.c:587
        twi_reply(0);
      }
      break;
    case TW_MR_DATA_NACK: // data received, nack sent
      // put final byte into buffer
      twi_masterBuffer[twi_masterBufferIndex++] = TWDR;
    2cd4:	20 91 f2 08 	lds	r18, 0x08F2	; 0x8008f2 <twi_masterBuffer>
    2cd8:	30 91 f3 08 	lds	r19, 0x08F3	; 0x8008f3 <twi_masterBuffer+0x1>
    2cdc:	e0 91 f1 08 	lds	r30, 0x08F1	; 0x8008f1 <twi_masterBufferIndex>
    2ce0:	81 e0       	ldi	r24, 0x01	; 1
    2ce2:	8e 0f       	add	r24, r30
    2ce4:	80 93 f1 08 	sts	0x08F1, r24	; 0x8008f1 <twi_masterBufferIndex>
    2ce8:	80 91 73 00 	lds	r24, 0x0073	; 0x800073 <__TEXT_REGION_LENGTH__+0x7e0073>
    2cec:	e2 0f       	add	r30, r18
    2cee:	f3 2f       	mov	r31, r19
    2cf0:	f1 1d       	adc	r31, r1
    2cf2:	80 83       	st	Z, r24
C:\Users\Ryan\AppData\Local\Arduino15\packages\MegaCore\hardware\avr\3.0.3\libraries\Wire\src\TwoWire\utility/twi.c:588
  if (twi_sendStop)
    2cf4:	80 91 f5 08 	lds	r24, 0x08F5	; 0x8008f5 <twi_sendStop>
    2cf8:	81 11       	cpse	r24, r1
    2cfa:	50 cf       	rjmp	.-352    	; 0x2b9c <__vector_33+0xb0>
C:\Users\Ryan\AppData\Local\Arduino15\packages\MegaCore\hardware\avr\3.0.3\libraries\Wire\src\TwoWire\utility/twi.c:591
          twi_stop();
  else {
    twi_inRepStart = true;  // we're going to send the START
    2cfc:	81 e0       	ldi	r24, 0x01	; 1
    2cfe:	80 93 ee 08 	sts	0x08EE, r24	; 0x8008ee <twi_inRepStart>
C:\Users\Ryan\AppData\Local\Arduino15\packages\MegaCore\hardware\avr\3.0.3\libraries\Wire\src\TwoWire\utility/twi.c:595
    // don't enable the interrupt. We'll generate the start, but we
    // avoid handling the interrupt until we're in the next transaction,
    // at the point where we would normally issue the start.
    TWCR = _BV(TWINT) | _BV(TWSTA)| _BV(TWEN) ;
    2d02:	84 ea       	ldi	r24, 0xA4	; 164
twi_reply():
C:\Users\Ryan\AppData\Local\Arduino15\packages\MegaCore\hardware\avr\3.0.3\libraries\Wire\src\TwoWire\utility/twi.c:415
 */
void twi_reply(uint8_t ack)
{
  // transmit master read ready signal, with or without ack
  if(ack){
    TWCR = _BV(TWEN) | _BV(TWIE) | _BV(TWINT) | _BV(TWEA);
    2d04:	80 93 74 00 	sts	0x0074, r24	; 0x800074 <__TEXT_REGION_LENGTH__+0x7e0074>
__vector_33():
C:\Users\Ryan\AppData\Local\Arduino15\packages\MegaCore\hardware\avr\3.0.3\libraries\Wire\src\TwoWire\utility/twi.c:679
    case TW_ST_DATA_NACK: // received nack, we are done
    case TW_ST_LAST_DATA: // received ack, but we are done already!
      // ack future responses
      twi_reply(1);
      // leave slave receiver state
      twi_state = TWI_READY;
    2d08:	10 92 f6 08 	sts	0x08F6, r1	; 0x8008f6 <twi_state>
    2d0c:	18 cf       	rjmp	.-464    	; 0x2b3e <__vector_33+0x52>
twi_releaseBus():
C:\Users\Ryan\AppData\Local\Arduino15\packages\MegaCore\hardware\avr\3.0.3\libraries\Wire\src\TwoWire\utility/twi.c:468
 * Output   none
 */
void twi_releaseBus(void)
{
  // release bus
  TWCR = _BV(TWEN) | _BV(TWIE) | _BV(TWEA) | _BV(TWINT);
    2d0e:	85 ec       	ldi	r24, 0xC5	; 197
    2d10:	80 93 74 00 	sts	0x0074, r24	; 0x800074 <__TEXT_REGION_LENGTH__+0x7e0074>
C:\Users\Ryan\AppData\Local\Arduino15\packages\MegaCore\hardware\avr\3.0.3\libraries\Wire\src\TwoWire\utility/twi.c:471

  // update twi state
  twi_state = TWI_READY;
    2d14:	10 92 f6 08 	sts	0x08F6, r1	; 0x8008f6 <twi_state>
__vector_33():
C:\Users\Ryan\AppData\Local\Arduino15\packages\MegaCore\hardware\avr\3.0.3\libraries\Wire\src\TwoWire\utility/twi.c:631
      break;
    case TW_SR_STOP: // stop or repeated start condition received
      // ack future responses and leave slave receiver state
      twi_releaseBus();
      // put a null char after data if there's room
      if(twi_rxBufferIndex < TWI_BUFFER_SIZE){
    2d18:	80 91 c0 08 	lds	r24, 0x08C0	; 0x8008c0 <twi_rxBufferIndex>
    2d1c:	80 32       	cpi	r24, 0x20	; 32
    2d1e:	30 f4       	brcc	.+12     	; 0x2d2c <__vector_33+0x240>
C:\Users\Ryan\AppData\Local\Arduino15\packages\MegaCore\hardware\avr\3.0.3\libraries\Wire\src\TwoWire\utility/twi.c:632
        twi_rxBuffer[twi_rxBufferIndex] = '\0';
    2d20:	e0 91 c0 08 	lds	r30, 0x08C0	; 0x8008c0 <twi_rxBufferIndex>
    2d24:	f0 e0       	ldi	r31, 0x00	; 0
    2d26:	e0 56       	subi	r30, 0x60	; 96
    2d28:	f7 4f       	sbci	r31, 0xF7	; 247
    2d2a:	10 82       	st	Z, r1
C:\Users\Ryan\AppData\Local\Arduino15\packages\MegaCore\hardware\avr\3.0.3\libraries\Wire\src\TwoWire\utility/twi.c:635
      }
      // callback to user defined callback
      twi_onSlaveReceive(twi_rxBuffer, twi_rxBufferIndex);
    2d2c:	60 91 c0 08 	lds	r22, 0x08C0	; 0x8008c0 <twi_rxBufferIndex>
    2d30:	70 e0       	ldi	r23, 0x00	; 0
    2d32:	e0 91 c1 08 	lds	r30, 0x08C1	; 0x8008c1 <twi_onSlaveReceive>
    2d36:	f0 91 c2 08 	lds	r31, 0x08C2	; 0x8008c2 <twi_onSlaveReceive+0x1>
    2d3a:	80 ea       	ldi	r24, 0xA0	; 160
    2d3c:	98 e0       	ldi	r25, 0x08	; 8
    2d3e:	09 95       	icall
C:\Users\Ryan\AppData\Local\Arduino15\packages\MegaCore\hardware\avr\3.0.3\libraries\Wire\src\TwoWire\utility/twi.c:637
      // since we submit rx buffer to "wire" library, we can reset it
      twi_rxBufferIndex = 0;
    2d40:	10 92 c0 08 	sts	0x08C0, r1	; 0x8008c0 <twi_rxBufferIndex>
    2d44:	fc ce       	rjmp	.-520    	; 0x2b3e <__vector_33+0x52>
C:\Users\Ryan\AppData\Local\Arduino15\packages\MegaCore\hardware\avr\3.0.3\libraries\Wire\src\TwoWire\utility/twi.c:686

    // All
    case TW_NO_INFO:   // no state information
      break;
    case TW_BUS_ERROR: // bus error, illegal stop/start
      twi_error = TW_BUS_ERROR;
    2d46:	10 92 f4 08 	sts	0x08F4, r1	; 0x8008f4 <twi_error>
    2d4a:	28 cf       	rjmp	.-432    	; 0x2b9c <__vector_33+0xb0>

00002d4c <countPulseASM>:
countPulseASM():
C:\Users\Ryan\AppData\Local\Arduino15\packages\MegaCore\hardware\avr\3.0.3\cores\MCUdude_corefiles/wiring_pulse.S:62

countPulseASM:

.LM0:
.LFBB1:
    push r12   ;   ;  130 pushqi1/1 [length = 1]
    2d4c:	cf 92       	push	r12
C:\Users\Ryan\AppData\Local\Arduino15\packages\MegaCore\hardware\avr\3.0.3\cores\MCUdude_corefiles/wiring_pulse.S:63
    push r13   ;   ;  131 pushqi1/1 [length = 1]
    2d4e:	df 92       	push	r13
C:\Users\Ryan\AppData\Local\Arduino15\packages\MegaCore\hardware\avr\3.0.3\cores\MCUdude_corefiles/wiring_pulse.S:64
    push r14   ;   ;  132 pushqi1/1 [length = 1]
    2d50:	ef 92       	push	r14
C:\Users\Ryan\AppData\Local\Arduino15\packages\MegaCore\hardware\avr\3.0.3\cores\MCUdude_corefiles/wiring_pulse.S:65
    push r15   ;   ;  133 pushqi1/1 [length = 1]
    2d52:	ff 92       	push	r15
C:\Users\Ryan\AppData\Local\Arduino15\packages\MegaCore\hardware\avr\3.0.3\cores\MCUdude_corefiles/wiring_pulse.S:66
    push r16   ;   ;  134 pushqi1/1 [length = 1]
    2d54:	0f 93       	push	r16
C:\Users\Ryan\AppData\Local\Arduino15\packages\MegaCore\hardware\avr\3.0.3\cores\MCUdude_corefiles/wiring_pulse.S:67
    push r17   ;   ;  135 pushqi1/1 [length = 1]
    2d56:	1f 93       	push	r17
C:\Users\Ryan\AppData\Local\Arduino15\packages\MegaCore\hardware\avr\3.0.3\cores\MCUdude_corefiles/wiring_pulse.S:72
/* prologue: function */
/* frame size = 0 */
/* stack size = 6 */
.L__stack_usage = 6
    mov r30,r24  ;  port, port   ;  2 *movhi/1  [length = 2]
    2d58:	e8 2f       	mov	r30, r24
C:\Users\Ryan\AppData\Local\Arduino15\packages\MegaCore\hardware\avr\3.0.3\cores\MCUdude_corefiles/wiring_pulse.S:73
    mov r31,r25  ;  port, port
    2d5a:	f9 2f       	mov	r31, r25
C:\Users\Ryan\AppData\Local\Arduino15\packages\MegaCore\hardware\avr\3.0.3\cores\MCUdude_corefiles/wiring_pulse.S:79
/*     unsigned long width = 0;
***     // wait for any previous pulse to end
***     while ((*port & bit) == stateMask)
*/
.LM1:
    rjmp .L2   ;   ;  181 jump  [length = 1]
    2d5c:	05 c0       	rjmp	.+10     	; 0x2d68 <countPulseASM+0x1c>
C:\Users\Ryan\AppData\Local\Arduino15\packages\MegaCore\hardware\avr\3.0.3\cores\MCUdude_corefiles/wiring_pulse.S:83
.L4:
/*         if (--maxloops == 0) */
.LM2:
    subi r16,1   ;  maxloops,  ;  17  addsi3/2  [length = 4]
    2d5e:	01 50       	subi	r16, 0x01	; 1
C:\Users\Ryan\AppData\Local\Arduino15\packages\MegaCore\hardware\avr\3.0.3\cores\MCUdude_corefiles/wiring_pulse.S:84
    sbc r17, r1   ;  maxloops
    2d60:	11 09       	sbc	r17, r1
C:\Users\Ryan\AppData\Local\Arduino15\packages\MegaCore\hardware\avr\3.0.3\cores\MCUdude_corefiles/wiring_pulse.S:85
    sbc r18, r1   ;  maxloops
    2d62:	21 09       	sbc	r18, r1
C:\Users\Ryan\AppData\Local\Arduino15\packages\MegaCore\hardware\avr\3.0.3\cores\MCUdude_corefiles/wiring_pulse.S:86
    sbc r19, r1   ;  maxloops
    2d64:	31 09       	sbc	r19, r1
C:\Users\Ryan\AppData\Local\Arduino15\packages\MegaCore\hardware\avr\3.0.3\cores\MCUdude_corefiles/wiring_pulse.S:87
    breq .L13  ; ,   ;  19  branch  [length = 1]
    2d66:	61 f1       	breq	.+88     	; 0x2dc0 <countPulseASM+0x74>
C:\Users\Ryan\AppData\Local\Arduino15\packages\MegaCore\hardware\avr\3.0.3\cores\MCUdude_corefiles/wiring_pulse.S:91
.L2:
/*         if (--maxloops == 0) */
.LM3:
    ld r25,Z   ;  D.1554, *port_7(D)   ;  22  movqi_insn/4  [length = 1]
    2d68:	90 81       	ld	r25, Z
C:\Users\Ryan\AppData\Local\Arduino15\packages\MegaCore\hardware\avr\3.0.3\cores\MCUdude_corefiles/wiring_pulse.S:92
    and r25,r22  ;  D.1554, bit  ;  24  andqi3/1  [length = 1]
    2d6a:	96 23       	and	r25, r22
C:\Users\Ryan\AppData\Local\Arduino15\packages\MegaCore\hardware\avr\3.0.3\cores\MCUdude_corefiles/wiring_pulse.S:93
    cp r25,r20   ;  D.1554, stateMask  ;  25  *cmpqi/2  [length = 1]
    2d6c:	94 17       	cp	r25, r20
C:\Users\Ryan\AppData\Local\Arduino15\packages\MegaCore\hardware\avr\3.0.3\cores\MCUdude_corefiles/wiring_pulse.S:94
    breq .L4   ; ,   ;  26  branch  [length = 1]
    2d6e:	b9 f3       	breq	.-18     	; 0x2d5e <countPulseASM+0x12>
C:\Users\Ryan\AppData\Local\Arduino15\packages\MegaCore\hardware\avr\3.0.3\cores\MCUdude_corefiles/wiring_pulse.S:95
    rjmp .L6   ;   ;  184 jump  [length = 1]
    2d70:	05 c0       	rjmp	.+10     	; 0x2d7c <countPulseASM+0x30>
C:\Users\Ryan\AppData\Local\Arduino15\packages\MegaCore\hardware\avr\3.0.3\cores\MCUdude_corefiles/wiring_pulse.S:104
***     // wait for the pulse to start
***     while ((*port & bit) != stateMask)
***         if (--maxloops == 0)
*/
.LM4:
    subi r16,1   ;  maxloops,  ;  31  addsi3/2  [length = 4]
    2d72:	01 50       	subi	r16, 0x01	; 1
C:\Users\Ryan\AppData\Local\Arduino15\packages\MegaCore\hardware\avr\3.0.3\cores\MCUdude_corefiles/wiring_pulse.S:105
    sbc r17, r1   ;  maxloops
    2d74:	11 09       	sbc	r17, r1
C:\Users\Ryan\AppData\Local\Arduino15\packages\MegaCore\hardware\avr\3.0.3\cores\MCUdude_corefiles/wiring_pulse.S:106
    sbc r18, r1   ;  maxloops
    2d76:	21 09       	sbc	r18, r1
C:\Users\Ryan\AppData\Local\Arduino15\packages\MegaCore\hardware\avr\3.0.3\cores\MCUdude_corefiles/wiring_pulse.S:107
    sbc r19, r1   ;  maxloops
    2d78:	31 09       	sbc	r19, r1
C:\Users\Ryan\AppData\Local\Arduino15\packages\MegaCore\hardware\avr\3.0.3\cores\MCUdude_corefiles/wiring_pulse.S:108
    breq .L13  ; ,   ;  33  branch  [length = 1]
    2d7a:	11 f1       	breq	.+68     	; 0x2dc0 <countPulseASM+0x74>
C:\Users\Ryan\AppData\Local\Arduino15\packages\MegaCore\hardware\avr\3.0.3\cores\MCUdude_corefiles/wiring_pulse.S:112
.L6:
/*         if (--maxloops == 0) */
.LM5:
    ld r25,Z   ;  D.1554, *port_7(D)   ;  41  movqi_insn/4  [length = 1]
    2d7c:	90 81       	ld	r25, Z
C:\Users\Ryan\AppData\Local\Arduino15\packages\MegaCore\hardware\avr\3.0.3\cores\MCUdude_corefiles/wiring_pulse.S:113
    and r25,r22  ;  D.1554, bit  ;  43  andqi3/1  [length = 1]
    2d7e:	96 23       	and	r25, r22
C:\Users\Ryan\AppData\Local\Arduino15\packages\MegaCore\hardware\avr\3.0.3\cores\MCUdude_corefiles/wiring_pulse.S:114
    cpse r25,r20   ;  D.1554, stateMask  ;  44  enable_interrupt-3  [length = 1]
    2d80:	94 13       	cpse	r25, r20
C:\Users\Ryan\AppData\Local\Arduino15\packages\MegaCore\hardware\avr\3.0.3\cores\MCUdude_corefiles/wiring_pulse.S:115
    rjmp .L7   ;
    2d82:	f7 cf       	rjmp	.-18     	; 0x2d72 <countPulseASM+0x26>
C:\Users\Ryan\AppData\Local\Arduino15\packages\MegaCore\hardware\avr\3.0.3\cores\MCUdude_corefiles/wiring_pulse.S:116
    mov r12, r1   ;  width  ;  7 *movsi/2  [length = 4]
    2d84:	c1 2c       	mov	r12, r1
C:\Users\Ryan\AppData\Local\Arduino15\packages\MegaCore\hardware\avr\3.0.3\cores\MCUdude_corefiles/wiring_pulse.S:117
    mov r13, r1   ;  width
    2d86:	d1 2c       	mov	r13, r1
C:\Users\Ryan\AppData\Local\Arduino15\packages\MegaCore\hardware\avr\3.0.3\cores\MCUdude_corefiles/wiring_pulse.S:118
    mov r14, r1   ;  width
    2d88:	e1 2c       	mov	r14, r1
C:\Users\Ryan\AppData\Local\Arduino15\packages\MegaCore\hardware\avr\3.0.3\cores\MCUdude_corefiles/wiring_pulse.S:119
    mov r15, r1   ;  width
    2d8a:	f1 2c       	mov	r15, r1
C:\Users\Ryan\AppData\Local\Arduino15\packages\MegaCore\hardware\avr\3.0.3\cores\MCUdude_corefiles/wiring_pulse.S:120
    rjmp .L9   ;   ;  186 jump  [length = 1]
    2d8c:	0a c0       	rjmp	.+20     	; 0x2da2 <countPulseASM+0x56>
C:\Users\Ryan\AppData\Local\Arduino15\packages\MegaCore\hardware\avr\3.0.3\cores\MCUdude_corefiles/wiring_pulse.S:129
***     // wait for the pulse to stop
***     while ((*port & bit) == stateMask) {
***         if (++width == maxloops)
*/
.LM6:
    ldi r24,-1   ; ,   ;  50  addsi3/3  [length = 5]
    2d8e:	8f ef       	ldi	r24, 0xFF	; 255
C:\Users\Ryan\AppData\Local\Arduino15\packages\MegaCore\hardware\avr\3.0.3\cores\MCUdude_corefiles/wiring_pulse.S:130
    sub r12,r24  ;  width,
    2d90:	c8 1a       	sub	r12, r24
C:\Users\Ryan\AppData\Local\Arduino15\packages\MegaCore\hardware\avr\3.0.3\cores\MCUdude_corefiles/wiring_pulse.S:131
    sbc r13,r24  ;  width,
    2d92:	d8 0a       	sbc	r13, r24
C:\Users\Ryan\AppData\Local\Arduino15\packages\MegaCore\hardware\avr\3.0.3\cores\MCUdude_corefiles/wiring_pulse.S:132
    sbc r14,r24  ;  width,
    2d94:	e8 0a       	sbc	r14, r24
C:\Users\Ryan\AppData\Local\Arduino15\packages\MegaCore\hardware\avr\3.0.3\cores\MCUdude_corefiles/wiring_pulse.S:133
    sbc r15,r24  ;  width,
    2d96:	f8 0a       	sbc	r15, r24
C:\Users\Ryan\AppData\Local\Arduino15\packages\MegaCore\hardware\avr\3.0.3\cores\MCUdude_corefiles/wiring_pulse.S:134
    cp r16,r12   ;  maxloops, width  ;  51  *cmpsi/2  [length = 4]
    2d98:	0c 15       	cp	r16, r12
C:\Users\Ryan\AppData\Local\Arduino15\packages\MegaCore\hardware\avr\3.0.3\cores\MCUdude_corefiles/wiring_pulse.S:135
    cpc r17,r13  ;  maxloops, width
    2d9a:	1d 05       	cpc	r17, r13
C:\Users\Ryan\AppData\Local\Arduino15\packages\MegaCore\hardware\avr\3.0.3\cores\MCUdude_corefiles/wiring_pulse.S:136
    cpc r18,r14  ;  maxloops, width
    2d9c:	2e 05       	cpc	r18, r14
C:\Users\Ryan\AppData\Local\Arduino15\packages\MegaCore\hardware\avr\3.0.3\cores\MCUdude_corefiles/wiring_pulse.S:137
    cpc r19,r15  ;  maxloops, width
    2d9e:	3f 05       	cpc	r19, r15
C:\Users\Ryan\AppData\Local\Arduino15\packages\MegaCore\hardware\avr\3.0.3\cores\MCUdude_corefiles/wiring_pulse.S:138
    breq .L13  ; ,   ;  52  branch  [length = 1]
    2da0:	79 f0       	breq	.+30     	; 0x2dc0 <countPulseASM+0x74>
C:\Users\Ryan\AppData\Local\Arduino15\packages\MegaCore\hardware\avr\3.0.3\cores\MCUdude_corefiles/wiring_pulse.S:142
.L9:
/*         if (++width == maxloops) */
.LM7:
    ld r24,Z   ;  D.1554, *port_7(D)   ;  60  movqi_insn/4  [length = 1]
    2da2:	80 81       	ld	r24, Z
C:\Users\Ryan\AppData\Local\Arduino15\packages\MegaCore\hardware\avr\3.0.3\cores\MCUdude_corefiles/wiring_pulse.S:143
    and r24,r22  ;  D.1554, bit  ;  62  andqi3/1  [length = 1]
    2da4:	86 23       	and	r24, r22
C:\Users\Ryan\AppData\Local\Arduino15\packages\MegaCore\hardware\avr\3.0.3\cores\MCUdude_corefiles/wiring_pulse.S:144
    cp r24,r20   ;  D.1554, stateMask  ;  63  *cmpqi/2  [length = 1]
    2da6:	84 17       	cp	r24, r20
C:\Users\Ryan\AppData\Local\Arduino15\packages\MegaCore\hardware\avr\3.0.3\cores\MCUdude_corefiles/wiring_pulse.S:145
    breq .L10  ; ,   ;  64  branch  [length = 1]
    2da8:	91 f3       	breq	.-28     	; 0x2d8e <countPulseASM+0x42>
C:\Users\Ryan\AppData\Local\Arduino15\packages\MegaCore\hardware\avr\3.0.3\cores\MCUdude_corefiles/wiring_pulse.S:151
/*             return 0;
***     }
***     return width;
*/
.LM8:
    mov r22,r12  ;  D.1553, width  ;  108 movqi_insn/1  [length = 1]
    2daa:	6c 2d       	mov	r22, r12
C:\Users\Ryan\AppData\Local\Arduino15\packages\MegaCore\hardware\avr\3.0.3\cores\MCUdude_corefiles/wiring_pulse.S:152
    mov r23,r13  ;  D.1553, width  ;  109 movqi_insn/1  [length = 1]
    2dac:	7d 2d       	mov	r23, r13
C:\Users\Ryan\AppData\Local\Arduino15\packages\MegaCore\hardware\avr\3.0.3\cores\MCUdude_corefiles/wiring_pulse.S:153
    mov r24,r14  ;  D.1553, width  ;  110 movqi_insn/1  [length = 1]
    2dae:	8e 2d       	mov	r24, r14
C:\Users\Ryan\AppData\Local\Arduino15\packages\MegaCore\hardware\avr\3.0.3\cores\MCUdude_corefiles/wiring_pulse.S:154
    mov r25,r15  ;  D.1553, width  ;  111 movqi_insn/1  [length = 1]
    2db0:	9f 2d       	mov	r25, r15
C:\Users\Ryan\AppData\Local\Arduino15\packages\MegaCore\hardware\avr\3.0.3\cores\MCUdude_corefiles/wiring_pulse.S:157
/* epilogue start */
.LM9:
    pop r17  ;   ;  171 popqi [length = 1]
    2db2:	1f 91       	pop	r17
C:\Users\Ryan\AppData\Local\Arduino15\packages\MegaCore\hardware\avr\3.0.3\cores\MCUdude_corefiles/wiring_pulse.S:158
    pop r16  ;   ;  172 popqi [length = 1]
    2db4:	0f 91       	pop	r16
C:\Users\Ryan\AppData\Local\Arduino15\packages\MegaCore\hardware\avr\3.0.3\cores\MCUdude_corefiles/wiring_pulse.S:159
    pop r15  ;   ;  173 popqi [length = 1]
    2db6:	ff 90       	pop	r15
C:\Users\Ryan\AppData\Local\Arduino15\packages\MegaCore\hardware\avr\3.0.3\cores\MCUdude_corefiles/wiring_pulse.S:160
    pop r14  ;   ;  174 popqi [length = 1]
    2db8:	ef 90       	pop	r14
C:\Users\Ryan\AppData\Local\Arduino15\packages\MegaCore\hardware\avr\3.0.3\cores\MCUdude_corefiles/wiring_pulse.S:161
    pop r13  ;   ;  175 popqi [length = 1]
    2dba:	df 90       	pop	r13
C:\Users\Ryan\AppData\Local\Arduino15\packages\MegaCore\hardware\avr\3.0.3\cores\MCUdude_corefiles/wiring_pulse.S:162
    pop r12  ;   ;  176 popqi [length = 1]
    2dbc:	cf 90       	pop	r12
C:\Users\Ryan\AppData\Local\Arduino15\packages\MegaCore\hardware\avr\3.0.3\cores\MCUdude_corefiles/wiring_pulse.S:163
    ret  ;  177 return_from_epilogue  [length = 1]
    2dbe:	08 95       	ret
C:\Users\Ryan\AppData\Local\Arduino15\packages\MegaCore\hardware\avr\3.0.3\cores\MCUdude_corefiles/wiring_pulse.S:166
.L13:
.LM10:
    ldi r22,0  ;  D.1553   ;  120 movqi_insn/1  [length = 1]
    2dc0:	60 e0       	ldi	r22, 0x00	; 0
C:\Users\Ryan\AppData\Local\Arduino15\packages\MegaCore\hardware\avr\3.0.3\cores\MCUdude_corefiles/wiring_pulse.S:167
    ldi r23,0  ;  D.1553   ;  121 movqi_insn/1  [length = 1]
    2dc2:	70 e0       	ldi	r23, 0x00	; 0
C:\Users\Ryan\AppData\Local\Arduino15\packages\MegaCore\hardware\avr\3.0.3\cores\MCUdude_corefiles/wiring_pulse.S:168
    ldi r24,0  ;  D.1553   ;  122 movqi_insn/1  [length = 1]
    2dc4:	80 e0       	ldi	r24, 0x00	; 0
C:\Users\Ryan\AppData\Local\Arduino15\packages\MegaCore\hardware\avr\3.0.3\cores\MCUdude_corefiles/wiring_pulse.S:169
    ldi r25,0  ;  D.1553   ;  123 movqi_insn/1  [length = 1]
    2dc6:	90 e0       	ldi	r25, 0x00	; 0
C:\Users\Ryan\AppData\Local\Arduino15\packages\MegaCore\hardware\avr\3.0.3\cores\MCUdude_corefiles/wiring_pulse.S:172
/* epilogue start */
.LM11:
    pop r17  ;   ;  138 popqi [length = 1]
    2dc8:	1f 91       	pop	r17
C:\Users\Ryan\AppData\Local\Arduino15\packages\MegaCore\hardware\avr\3.0.3\cores\MCUdude_corefiles/wiring_pulse.S:173
    pop r16  ;   ;  139 popqi [length = 1]
    2dca:	0f 91       	pop	r16
C:\Users\Ryan\AppData\Local\Arduino15\packages\MegaCore\hardware\avr\3.0.3\cores\MCUdude_corefiles/wiring_pulse.S:174
    pop r15  ;   ;  140 popqi [length = 1]
    2dcc:	ff 90       	pop	r15
C:\Users\Ryan\AppData\Local\Arduino15\packages\MegaCore\hardware\avr\3.0.3\cores\MCUdude_corefiles/wiring_pulse.S:175
    pop r14  ;   ;  141 popqi [length = 1]
    2dce:	ef 90       	pop	r14
C:\Users\Ryan\AppData\Local\Arduino15\packages\MegaCore\hardware\avr\3.0.3\cores\MCUdude_corefiles/wiring_pulse.S:176
    pop r13  ;   ;  142 popqi [length = 1]
    2dd0:	df 90       	pop	r13
C:\Users\Ryan\AppData\Local\Arduino15\packages\MegaCore\hardware\avr\3.0.3\cores\MCUdude_corefiles/wiring_pulse.S:177
    pop r12  ;   ;  143 popqi [length = 1]
    2dd2:	cf 90       	pop	r12
C:\Users\Ryan\AppData\Local\Arduino15\packages\MegaCore\hardware\avr\3.0.3\cores\MCUdude_corefiles/wiring_pulse.S:178
    ret  ;  144 return_from_epilogue  [length = 1]
    2dd4:	08 95       	ret

00002dd6 <TwoWire::write(int) [clone .constprop.29]>:
write():
C:\Users\Ryan\AppData\Local\Arduino15\packages\MegaCore\hardware\avr\3.0.3\libraries\Wire\src\TwoWire/TwoWire.h:88
    void onRequest( void (*)(void) );

    inline size_t write(unsigned long n) { return write((uint8_t)n); }
    inline size_t write(long n) { return write((uint8_t)n); }
    inline size_t write(unsigned int n) { return write((uint8_t)n); }
    inline size_t write(int n) { return write((uint8_t)n); }
    2dd6:	68 2f       	mov	r22, r24
    2dd8:	83 eb       	ldi	r24, 0xB3	; 179
    2dda:	9a e0       	ldi	r25, 0x0A	; 10
    2ddc:	0c 94 ed 04 	jmp	0x9da	; 0x9da <TwoWire::write(unsigned char)>

00002de0 <vl(char)>:
vl():
C:\Users\Ryan\Documents\GitHub\sport_main_code_2023/sport_menu.h:1678

  // Your additional processing logic here

  return vl_dis;
}
unsigned int vl(char xv) {
    2de0:	cf 93       	push	r28
    2de2:	df 93       	push	r29
    2de4:	c8 2f       	mov	r28, r24
C:\Users\Ryan\Documents\GitHub\sport_main_code_2023/sport_menu.h:1687

  // Select the appropriate sensor
  if (xv == 1) {
    // Set MUX pins to select sensor 1
    // B11 Right
    digitalWrite(MUX_A, LOW);
    2de6:	60 e0       	ldi	r22, 0x00	; 0
C:\Users\Ryan\Documents\GitHub\sport_main_code_2023/sport_menu.h:1684
  unsigned int vl_dis = 1;

  // Your pin manipulation logic here if needed

  // Select the appropriate sensor
  if (xv == 1) {
    2de8:	81 30       	cpi	r24, 0x01	; 1
    2dea:	09 f4       	brne	.+2      	; 0x2dee <vl(char)+0xe>
    2dec:	3f c0       	rjmp	.+126    	; 0x2e6c <vl(char)+0x8c>
C:\Users\Ryan\Documents\GitHub\sport_main_code_2023/sport_menu.h:1699
    digitalWrite(MUX_B, LOW);
    digitalWrite(MUX_C, HIGH);
  } else if (xv == 3) {
    // Set MUX pins to select sensor 2
    // B13 Left
    digitalWrite(MUX_A, HIGH);
    2dee:	61 e0       	ldi	r22, 0x01	; 1
C:\Users\Ryan\Documents\GitHub\sport_main_code_2023/sport_menu.h:1690
    // Set MUX pins to select sensor 1
    // B11 Right
    digitalWrite(MUX_A, LOW);
    digitalWrite(MUX_B, HIGH);
    digitalWrite(MUX_C, LOW);
  } else if (xv == 2) {
    2df0:	82 30       	cpi	r24, 0x02	; 2
    2df2:	e1 f5       	brne	.+120    	; 0x2e6c <vl(char)+0x8c>
C:\Users\Ryan\Documents\GitHub\sport_main_code_2023/sport_menu.h:1693
    // Set MUX pins to select sensor 2
    // B13 Left
    digitalWrite(MUX_A, LOW);
    2df4:	60 e0       	ldi	r22, 0x00	; 0
    2df6:	8c e2       	ldi	r24, 0x2C	; 44
    2df8:	0e 94 0c 02 	call	0x418	; 0x418 <digitalWrite>
C:\Users\Ryan\Documents\GitHub\sport_main_code_2023/sport_menu.h:1694
    digitalWrite(MUX_B, LOW);
    2dfc:	60 e0       	ldi	r22, 0x00	; 0
    2dfe:	8b e2       	ldi	r24, 0x2B	; 43
    2e00:	0e 94 0c 02 	call	0x418	; 0x418 <digitalWrite>
C:\Users\Ryan\Documents\GitHub\sport_main_code_2023/sport_menu.h:1695
    digitalWrite(MUX_C, HIGH);
    2e04:	61 e0       	ldi	r22, 0x01	; 1
C:\Users\Ryan\Documents\GitHub\sport_main_code_2023/sport_menu.h:1701
  } else if (xv == 3) {
    // Set MUX pins to select sensor 2
    // B13 Left
    digitalWrite(MUX_A, HIGH);
    digitalWrite(MUX_B, HIGH);
    digitalWrite(MUX_C, LOW);
    2e06:	8a e2       	ldi	r24, 0x2A	; 42
    2e08:	0e 94 0c 02 	call	0x418	; 0x418 <digitalWrite>
beginTransmission():
C:\Users\Ryan\AppData\Local\Arduino15\packages\MegaCore\hardware\avr\3.0.3\libraries\Wire\src\TwoWire/TwoWire.cpp:208
  txBufferLength = 0;
}

void TwoWire::beginTransmission(int address)
{
  beginTransmission((uint8_t)address);
    2e0c:	89 e2       	ldi	r24, 0x29	; 41
    2e0e:	0e 94 a1 01 	call	0x342	; 0x342 <TwoWire::beginTransmission(unsigned char) [clone .constprop.17]>
vl():
C:\Users\Ryan\Documents\GitHub\sport_main_code_2023/sport_menu.h:1705
  }
  // Send command to start distance measurement
  Wire.beginTransmission(VL53L0X_ADDRESS);
  Wire.write(VL53L0X_REG_SYSRANGE_START);
    2e12:	90 e0       	ldi	r25, 0x00	; 0
    2e14:	80 e0       	ldi	r24, 0x00	; 0
    2e16:	0e 94 eb 16 	call	0x2dd6	; 0x2dd6 <TwoWire::write(int) [clone .constprop.29]>
C:\Users\Ryan\Documents\GitHub\sport_main_code_2023/sport_menu.h:1706
  Wire.write(0x01);
    2e1a:	81 e0       	ldi	r24, 0x01	; 1
    2e1c:	90 e0       	ldi	r25, 0x00	; 0
    2e1e:	0e 94 eb 16 	call	0x2dd6	; 0x2dd6 <TwoWire::write(int) [clone .constprop.29]>
C:\Users\Ryan\Documents\GitHub\sport_main_code_2023/sport_menu.h:1707
  Wire.endTransmission();
    2e22:	0e 94 ab 01 	call	0x356	; 0x356 <TwoWire::endTransmission() [clone .constprop.13]>
C:\Users\Ryan\Documents\GitHub\sport_main_code_2023/sport_menu.h:1710

  // Delay for measurement completion
  delay(10);  // Adjust delay if needed
    2e26:	6a e0       	ldi	r22, 0x0A	; 10
    2e28:	70 e0       	ldi	r23, 0x00	; 0
    2e2a:	80 e0       	ldi	r24, 0x00	; 0
    2e2c:	90 e0       	ldi	r25, 0x00	; 0
    2e2e:	0e 94 24 03 	call	0x648	; 0x648 <delay>
beginTransmission():
C:\Users\Ryan\AppData\Local\Arduino15\packages\MegaCore\hardware\avr\3.0.3\libraries\Wire\src\TwoWire/TwoWire.cpp:208
    2e32:	89 e2       	ldi	r24, 0x29	; 41
    2e34:	0e 94 a1 01 	call	0x342	; 0x342 <TwoWire::beginTransmission(unsigned char) [clone .constprop.17]>
vl():
C:\Users\Ryan\Documents\GitHub\sport_main_code_2023/sport_menu.h:1714

  // Request distance measurement
  Wire.beginTransmission(VL53L0X_ADDRESS);
  Wire.write(VL53L0X_REG_RESULT_RANGE_VAL);
    2e38:	8e e1       	ldi	r24, 0x1E	; 30
    2e3a:	90 e0       	ldi	r25, 0x00	; 0
    2e3c:	0e 94 eb 16 	call	0x2dd6	; 0x2dd6 <TwoWire::write(int) [clone .constprop.29]>
C:\Users\Ryan\Documents\GitHub\sport_main_code_2023/sport_menu.h:1715
  Wire.endTransmission(false);
    2e40:	80 e0       	ldi	r24, 0x00	; 0
    2e42:	0e 94 49 01 	call	0x292	; 0x292 <TwoWire::endTransmission(unsigned char) [clone .constprop.18]>
C:\Users\Ryan\Documents\GitHub\sport_main_code_2023/sport_menu.h:1718

  // Read distance measurement (2 bytes)
  Wire.requestFrom(VL53L0X_ADDRESS, 2);
    2e46:	62 e0       	ldi	r22, 0x02	; 2
    2e48:	70 e0       	ldi	r23, 0x00	; 0
    2e4a:	89 e2       	ldi	r24, 0x29	; 41
    2e4c:	90 e0       	ldi	r25, 0x00	; 0
    2e4e:	0e 94 41 09 	call	0x1282	; 0x1282 <TwoWire::requestFrom(int, int) [clone .constprop.14]>
available():
C:\Users\Ryan\AppData\Local\Arduino15\packages\MegaCore\hardware\avr\3.0.3\libraries\Wire\src\TwoWire/TwoWire.cpp:292
// must be called in:
// slave rx event callback
// or after requestFrom(address, numBytes)
int TwoWire::available(void)
{
  return rxBufferLength - rxBufferIndex;
    2e52:	80 91 3b 09 	lds	r24, 0x093B	; 0x80093b <TwoWire::rxBufferLength>
    2e56:	90 91 3c 09 	lds	r25, 0x093C	; 0x80093c <TwoWire::rxBufferIndex>
    2e5a:	89 1b       	sub	r24, r25
    2e5c:	99 0b       	sbc	r25, r25
vl():
C:\Users\Ryan\Documents\GitHub\sport_main_code_2023/sport_menu.h:1719
  if (Wire.available() >= 2) {
    2e5e:	02 97       	sbiw	r24, 0x02	; 2
    2e60:	74 f4       	brge	.+28     	; 0x2e7e <vl(char)+0x9e>
C:\Users\Ryan\Documents\GitHub\sport_main_code_2023/sport_menu.h:1679
  // Your additional processing logic here

  return vl_dis;
}
unsigned int vl(char xv) {
  unsigned int vl_dis = 1;
    2e62:	81 e0       	ldi	r24, 0x01	; 1
    2e64:	90 e0       	ldi	r25, 0x00	; 0
C:\Users\Ryan\Documents\GitHub\sport_main_code_2023/sport_menu.h:1730
  // Your additional processing logic here
  if (vl_dis == 20) {
    delay(10);
    return vl_double_check(xv);
  } else return vl_dis;
}
    2e66:	df 91       	pop	r29
    2e68:	cf 91       	pop	r28
    2e6a:	08 95       	ret
C:\Users\Ryan\Documents\GitHub\sport_main_code_2023/sport_menu.h:1699
    digitalWrite(MUX_B, LOW);
    digitalWrite(MUX_C, HIGH);
  } else if (xv == 3) {
    // Set MUX pins to select sensor 2
    // B13 Left
    digitalWrite(MUX_A, HIGH);
    2e6c:	8c e2       	ldi	r24, 0x2C	; 44
    2e6e:	0e 94 0c 02 	call	0x418	; 0x418 <digitalWrite>
C:\Users\Ryan\Documents\GitHub\sport_main_code_2023/sport_menu.h:1700
    digitalWrite(MUX_B, HIGH);
    2e72:	61 e0       	ldi	r22, 0x01	; 1
    2e74:	8b e2       	ldi	r24, 0x2B	; 43
    2e76:	0e 94 0c 02 	call	0x418	; 0x418 <digitalWrite>
C:\Users\Ryan\Documents\GitHub\sport_main_code_2023/sport_menu.h:1701
    digitalWrite(MUX_C, LOW);
    2e7a:	60 e0       	ldi	r22, 0x00	; 0
    2e7c:	c4 cf       	rjmp	.-120    	; 0x2e06 <vl(char)+0x26>
C:\Users\Ryan\Documents\GitHub\sport_main_code_2023/sport_menu.h:1720
  Wire.endTransmission(false);

  // Read distance measurement (2 bytes)
  Wire.requestFrom(VL53L0X_ADDRESS, 2);
  if (Wire.available() >= 2) {
    byte distance_msb = Wire.read();
    2e7e:	0e 94 36 01 	call	0x26c	; 0x26c <TwoWire::read() [clone .constprop.22]>
    2e82:	d8 2f       	mov	r29, r24
C:\Users\Ryan\Documents\GitHub\sport_main_code_2023/sport_menu.h:1721
    byte distance_lsb = Wire.read();
    2e84:	0e 94 36 01 	call	0x26c	; 0x26c <TwoWire::read() [clone .constprop.22]>
C:\Users\Ryan\Documents\GitHub\sport_main_code_2023/sport_menu.h:1722
    vl_dis = ((unsigned int)distance_msb << 8) | distance_lsb;
    2e88:	20 e0       	ldi	r18, 0x00	; 0
    2e8a:	3d 2f       	mov	r19, r29
    2e8c:	a9 01       	movw	r20, r18
    2e8e:	48 2b       	or	r20, r24
    2e90:	ca 01       	movw	r24, r20
C:\Users\Ryan\Documents\GitHub\sport_main_code_2023/sport_menu.h:1726
  }

  // Your additional processing logic here
  if (vl_dis == 20) {
    2e92:	84 31       	cpi	r24, 0x14	; 20
    2e94:	91 05       	cpc	r25, r1
    2e96:	39 f7       	brne	.-50     	; 0x2e66 <vl(char)+0x86>
C:\Users\Ryan\Documents\GitHub\sport_main_code_2023/sport_menu.h:1727
    delay(10);
    2e98:	6a e0       	ldi	r22, 0x0A	; 10
    2e9a:	70 e0       	ldi	r23, 0x00	; 0
    2e9c:	80 e0       	ldi	r24, 0x00	; 0
    2e9e:	90 e0       	ldi	r25, 0x00	; 0
    2ea0:	0e 94 24 03 	call	0x648	; 0x648 <delay>
vl_double_check():
C:\Users\Ryan\Documents\GitHub\sport_main_code_2023/sport_menu.h:1636

  // Select the appropriate sensor
  if (xv == 1) {
    // Set MUX pins to select sensor 1
    // B11 Right
    digitalWrite(MUX_A, LOW);
    2ea4:	60 e0       	ldi	r22, 0x00	; 0
C:\Users\Ryan\Documents\GitHub\sport_main_code_2023/sport_menu.h:1633
  unsigned int vl_dis = 1;

  // Your pin manipulation logic here if needed

  // Select the appropriate sensor
  if (xv == 1) {
    2ea6:	c1 30       	cpi	r28, 0x01	; 1
    2ea8:	09 f4       	brne	.+2      	; 0x2eac <vl(char)+0xcc>
    2eaa:	47 c0       	rjmp	.+142    	; 0x2f3a <vl(char)+0x15a>
C:\Users\Ryan\Documents\GitHub\sport_main_code_2023/sport_menu.h:1648
    digitalWrite(MUX_B, LOW);
    digitalWrite(MUX_C, HIGH);
  } else if (xv == 3) {
    // Set MUX pins to select sensor 2
    // B13 Left
    digitalWrite(MUX_A, HIGH);
    2eac:	61 e0       	ldi	r22, 0x01	; 1
C:\Users\Ryan\Documents\GitHub\sport_main_code_2023/sport_menu.h:1639
    // Set MUX pins to select sensor 1
    // B11 Right
    digitalWrite(MUX_A, LOW);
    digitalWrite(MUX_B, HIGH);
    digitalWrite(MUX_C, LOW);
  } else if (xv == 2) {
    2eae:	c2 30       	cpi	r28, 0x02	; 2
    2eb0:	09 f0       	breq	.+2      	; 0x2eb4 <vl(char)+0xd4>
    2eb2:	43 c0       	rjmp	.+134    	; 0x2f3a <vl(char)+0x15a>
C:\Users\Ryan\Documents\GitHub\sport_main_code_2023/sport_menu.h:1642
    // Set MUX pins to select sensor 2
    // B13 Left
    digitalWrite(MUX_A, LOW);
    2eb4:	60 e0       	ldi	r22, 0x00	; 0
    2eb6:	8c e2       	ldi	r24, 0x2C	; 44
    2eb8:	0e 94 0c 02 	call	0x418	; 0x418 <digitalWrite>
C:\Users\Ryan\Documents\GitHub\sport_main_code_2023/sport_menu.h:1643
    digitalWrite(MUX_B, LOW);
    2ebc:	60 e0       	ldi	r22, 0x00	; 0
    2ebe:	8b e2       	ldi	r24, 0x2B	; 43
    2ec0:	0e 94 0c 02 	call	0x418	; 0x418 <digitalWrite>
C:\Users\Ryan\Documents\GitHub\sport_main_code_2023/sport_menu.h:1644
    digitalWrite(MUX_C, HIGH);
    2ec4:	61 e0       	ldi	r22, 0x01	; 1
C:\Users\Ryan\Documents\GitHub\sport_main_code_2023/sport_menu.h:1650
  } else if (xv == 3) {
    // Set MUX pins to select sensor 2
    // B13 Left
    digitalWrite(MUX_A, HIGH);
    digitalWrite(MUX_B, HIGH);
    digitalWrite(MUX_C, LOW);
    2ec6:	8a e2       	ldi	r24, 0x2A	; 42
    2ec8:	0e 94 0c 02 	call	0x418	; 0x418 <digitalWrite>
beginTransmission():
C:\Users\Ryan\AppData\Local\Arduino15\packages\MegaCore\hardware\avr\3.0.3\libraries\Wire\src\TwoWire/TwoWire.cpp:208
  txBufferLength = 0;
}

void TwoWire::beginTransmission(int address)
{
  beginTransmission((uint8_t)address);
    2ecc:	89 e2       	ldi	r24, 0x29	; 41
    2ece:	0e 94 a1 01 	call	0x342	; 0x342 <TwoWire::beginTransmission(unsigned char) [clone .constprop.17]>
vl_double_check():
C:\Users\Ryan\Documents\GitHub\sport_main_code_2023/sport_menu.h:1654
  }
  // Send command to start distance measurement
  Wire.beginTransmission(VL53L0X_ADDRESS);
  Wire.write(VL53L0X_REG_SYSRANGE_START);
    2ed2:	90 e0       	ldi	r25, 0x00	; 0
    2ed4:	80 e0       	ldi	r24, 0x00	; 0
    2ed6:	0e 94 eb 16 	call	0x2dd6	; 0x2dd6 <TwoWire::write(int) [clone .constprop.29]>
C:\Users\Ryan\Documents\GitHub\sport_main_code_2023/sport_menu.h:1655
  Wire.write(0x01);
    2eda:	81 e0       	ldi	r24, 0x01	; 1
    2edc:	90 e0       	ldi	r25, 0x00	; 0
    2ede:	0e 94 eb 16 	call	0x2dd6	; 0x2dd6 <TwoWire::write(int) [clone .constprop.29]>
C:\Users\Ryan\Documents\GitHub\sport_main_code_2023/sport_menu.h:1656
  Wire.endTransmission();
    2ee2:	0e 94 ab 01 	call	0x356	; 0x356 <TwoWire::endTransmission() [clone .constprop.13]>
C:\Users\Ryan\Documents\GitHub\sport_main_code_2023/sport_menu.h:1659

  // Delay for measurement completion
  delay(10);  // Adjust delay if needed
    2ee6:	6a e0       	ldi	r22, 0x0A	; 10
    2ee8:	70 e0       	ldi	r23, 0x00	; 0
    2eea:	80 e0       	ldi	r24, 0x00	; 0
    2eec:	90 e0       	ldi	r25, 0x00	; 0
    2eee:	0e 94 24 03 	call	0x648	; 0x648 <delay>
beginTransmission():
C:\Users\Ryan\AppData\Local\Arduino15\packages\MegaCore\hardware\avr\3.0.3\libraries\Wire\src\TwoWire/TwoWire.cpp:208
    2ef2:	89 e2       	ldi	r24, 0x29	; 41
    2ef4:	0e 94 a1 01 	call	0x342	; 0x342 <TwoWire::beginTransmission(unsigned char) [clone .constprop.17]>
vl_double_check():
C:\Users\Ryan\Documents\GitHub\sport_main_code_2023/sport_menu.h:1663

  // Request distance measurement
  Wire.beginTransmission(VL53L0X_ADDRESS);
  Wire.write(VL53L0X_REG_RESULT_RANGE_VAL);
    2ef8:	8e e1       	ldi	r24, 0x1E	; 30
    2efa:	90 e0       	ldi	r25, 0x00	; 0
    2efc:	0e 94 eb 16 	call	0x2dd6	; 0x2dd6 <TwoWire::write(int) [clone .constprop.29]>
C:\Users\Ryan\Documents\GitHub\sport_main_code_2023/sport_menu.h:1664
  Wire.endTransmission(false);
    2f00:	80 e0       	ldi	r24, 0x00	; 0
    2f02:	0e 94 49 01 	call	0x292	; 0x292 <TwoWire::endTransmission(unsigned char) [clone .constprop.18]>
C:\Users\Ryan\Documents\GitHub\sport_main_code_2023/sport_menu.h:1667

  // Read distance measurement (2 bytes)
  Wire.requestFrom(VL53L0X_ADDRESS, 2);
    2f06:	62 e0       	ldi	r22, 0x02	; 2
    2f08:	70 e0       	ldi	r23, 0x00	; 0
    2f0a:	89 e2       	ldi	r24, 0x29	; 41
    2f0c:	90 e0       	ldi	r25, 0x00	; 0
    2f0e:	0e 94 41 09 	call	0x1282	; 0x1282 <TwoWire::requestFrom(int, int) [clone .constprop.14]>
available():
C:\Users\Ryan\AppData\Local\Arduino15\packages\MegaCore\hardware\avr\3.0.3\libraries\Wire\src\TwoWire/TwoWire.cpp:292
// must be called in:
// slave rx event callback
// or after requestFrom(address, numBytes)
int TwoWire::available(void)
{
  return rxBufferLength - rxBufferIndex;
    2f12:	80 91 3b 09 	lds	r24, 0x093B	; 0x80093b <TwoWire::rxBufferLength>
    2f16:	90 91 3c 09 	lds	r25, 0x093C	; 0x80093c <TwoWire::rxBufferIndex>
    2f1a:	89 1b       	sub	r24, r25
    2f1c:	99 0b       	sbc	r25, r25
vl_double_check():
C:\Users\Ryan\Documents\GitHub\sport_main_code_2023/sport_menu.h:1668
  if (Wire.available() >= 2) {
    2f1e:	02 97       	sbiw	r24, 0x02	; 2
    2f20:	0c f4       	brge	.+2      	; 0x2f24 <vl(char)+0x144>
    2f22:	9f cf       	rjmp	.-194    	; 0x2e62 <vl(char)+0x82>
C:\Users\Ryan\Documents\GitHub\sport_main_code_2023/sport_menu.h:1669
    byte distance_msb = Wire.read();
    2f24:	0e 94 36 01 	call	0x26c	; 0x26c <TwoWire::read() [clone .constprop.22]>
    2f28:	c8 2f       	mov	r28, r24
C:\Users\Ryan\Documents\GitHub\sport_main_code_2023/sport_menu.h:1670
    byte distance_lsb = Wire.read();
    2f2a:	0e 94 36 01 	call	0x26c	; 0x26c <TwoWire::read() [clone .constprop.22]>
C:\Users\Ryan\Documents\GitHub\sport_main_code_2023/sport_menu.h:1671
    vl_dis = ((unsigned int)distance_msb << 8) | distance_lsb;
    2f2e:	20 e0       	ldi	r18, 0x00	; 0
    2f30:	3c 2f       	mov	r19, r28
    2f32:	a9 01       	movw	r20, r18
    2f34:	48 2b       	or	r20, r24
    2f36:	ca 01       	movw	r24, r20
    2f38:	96 cf       	rjmp	.-212    	; 0x2e66 <vl(char)+0x86>
C:\Users\Ryan\Documents\GitHub\sport_main_code_2023/sport_menu.h:1648
    digitalWrite(MUX_B, LOW);
    digitalWrite(MUX_C, HIGH);
  } else if (xv == 3) {
    // Set MUX pins to select sensor 2
    // B13 Left
    digitalWrite(MUX_A, HIGH);
    2f3a:	8c e2       	ldi	r24, 0x2C	; 44
    2f3c:	0e 94 0c 02 	call	0x418	; 0x418 <digitalWrite>
C:\Users\Ryan\Documents\GitHub\sport_main_code_2023/sport_menu.h:1649
    digitalWrite(MUX_B, HIGH);
    2f40:	61 e0       	ldi	r22, 0x01	; 1
    2f42:	8b e2       	ldi	r24, 0x2B	; 43
    2f44:	0e 94 0c 02 	call	0x418	; 0x418 <digitalWrite>
C:\Users\Ryan\Documents\GitHub\sport_main_code_2023/sport_menu.h:1650
    digitalWrite(MUX_C, LOW);
    2f48:	60 e0       	ldi	r22, 0x00	; 0
    2f4a:	bd cf       	rjmp	.-134    	; 0x2ec6 <vl(char)+0xe6>

00002f4c <cmps(int)>:
cmps():
C:\Users\Ryan\Documents\GitHub\sport_main_code_2023/sport_menu.h:1552
      break;
    }
  }
}

int cmps(int select) {
    2f4c:	bf 92       	push	r11
    2f4e:	cf 92       	push	r12
    2f50:	df 92       	push	r13
    2f52:	ef 92       	push	r14
    2f54:	ff 92       	push	r15
    2f56:	0f 93       	push	r16
    2f58:	1f 93       	push	r17
    2f5a:	cf 93       	push	r28
    2f5c:	df 93       	push	r29
    2f5e:	8c 01       	movw	r16, r24
C:\Users\Ryan\Documents\GitHub\sport_main_code_2023/sport_menu.h:1555
  int degree, pi, rol;

  digitalWrite(MUX_A, HIGH);  //switching the multiplaxer
    2f60:	61 e0       	ldi	r22, 0x01	; 1
    2f62:	8c e2       	ldi	r24, 0x2C	; 44
    2f64:	0e 94 0c 02 	call	0x418	; 0x418 <digitalWrite>
C:\Users\Ryan\Documents\GitHub\sport_main_code_2023/sport_menu.h:1556
  digitalWrite(MUX_B, HIGH);
    2f68:	61 e0       	ldi	r22, 0x01	; 1
    2f6a:	8b e2       	ldi	r24, 0x2B	; 43
    2f6c:	0e 94 0c 02 	call	0x418	; 0x418 <digitalWrite>
C:\Users\Ryan\Documents\GitHub\sport_main_code_2023/sport_menu.h:1557
  digitalWrite(MUX_C, LOW);
    2f70:	60 e0       	ldi	r22, 0x00	; 0
    2f72:	8a e2       	ldi	r24, 0x2A	; 42
    2f74:	0e 94 0c 02 	call	0x418	; 0x418 <digitalWrite>
beginTransmission():
C:\Users\Ryan\AppData\Local\Arduino15\packages\MegaCore\hardware\avr\3.0.3\libraries\Wire\src\TwoWire/TwoWire.cpp:208
  txBufferLength = 0;
}

void TwoWire::beginTransmission(int address)
{
  beginTransmission((uint8_t)address);
    2f78:	80 e6       	ldi	r24, 0x60	; 96
    2f7a:	0e 94 a1 01 	call	0x342	; 0x342 <TwoWire::beginTransmission(unsigned char) [clone .constprop.17]>
cmps():
C:\Users\Ryan\Documents\GitHub\sport_main_code_2023/sport_menu.h:1560

  Wire.beginTransmission(cmps_address);
  Wire.write(0x02);  // Register address for desired data (adjust as needed)
    2f7e:	82 e0       	ldi	r24, 0x02	; 2
    2f80:	90 e0       	ldi	r25, 0x00	; 0
    2f82:	0e 94 eb 16 	call	0x2dd6	; 0x2dd6 <TwoWire::write(int) [clone .constprop.29]>
C:\Users\Ryan\Documents\GitHub\sport_main_code_2023/sport_menu.h:1561
  Wire.endTransmission();
    2f86:	0e 94 ab 01 	call	0x356	; 0x356 <TwoWire::endTransmission() [clone .constprop.13]>
C:\Users\Ryan\Documents\GitHub\sport_main_code_2023/sport_menu.h:1563

  Wire.requestFrom(cmps_address, 4);  // Request 4 bytes of data
    2f8a:	64 e0       	ldi	r22, 0x04	; 4
    2f8c:	70 e0       	ldi	r23, 0x00	; 0
    2f8e:	80 e6       	ldi	r24, 0x60	; 96
    2f90:	90 e0       	ldi	r25, 0x00	; 0
    2f92:	0e 94 41 09 	call	0x1282	; 0x1282 <TwoWire::requestFrom(int, int) [clone .constprop.14]>
available():
C:\Users\Ryan\AppData\Local\Arduino15\packages\MegaCore\hardware\avr\3.0.3\libraries\Wire\src\TwoWire/TwoWire.cpp:292
// must be called in:
// slave rx event callback
// or after requestFrom(address, numBytes)
int TwoWire::available(void)
{
  return rxBufferLength - rxBufferIndex;
    2f96:	80 91 3b 09 	lds	r24, 0x093B	; 0x80093b <TwoWire::rxBufferLength>
    2f9a:	90 91 3c 09 	lds	r25, 0x093C	; 0x80093c <TwoWire::rxBufferIndex>
    2f9e:	89 1b       	sub	r24, r25
    2fa0:	99 0b       	sbc	r25, r25
cmps():
C:\Users\Ryan\Documents\GitHub\sport_main_code_2023/sport_menu.h:1565

  if (Wire.available() >= 4) {
    2fa2:	04 97       	sbiw	r24, 0x04	; 4
    2fa4:	94 f1       	brlt	.+100    	; 0x300a <cmps(int)+0xbe>
C:\Users\Ryan\Documents\GitHub\sport_main_code_2023/sport_menu.h:1566
    degree = Wire.read();
    2fa6:	0e 94 36 01 	call	0x26c	; 0x26c <TwoWire::read() [clone .constprop.22]>
C:\Users\Ryan\Documents\GitHub\sport_main_code_2023/sport_menu.h:1567
    degree = (degree << 8) | Wire.read();
    2faa:	d8 2f       	mov	r29, r24
    2fac:	20 e0       	ldi	r18, 0x00	; 0
    2fae:	c2 2f       	mov	r28, r18
    2fb0:	0e 94 36 01 	call	0x26c	; 0x26c <TwoWire::read() [clone .constprop.22]>
    2fb4:	8c 2b       	or	r24, r28
    2fb6:	9d 2b       	or	r25, r29
C:\Users\Ryan\Documents\GitHub\sport_main_code_2023/sport_menu.h:1568
    degree /= 10;  // Adjust scaling if needed
    2fb8:	6a e0       	ldi	r22, 0x0A	; 10
    2fba:	70 e0       	ldi	r23, 0x00	; 0
    2fbc:	0e 94 d0 35 	call	0x6ba0	; 0x6ba0 <__divmodhi4>
C:\Users\Ryan\Documents\GitHub\sport_main_code_2023/sport_menu.h:1569
    degree -= DN;  // Replace DN with your offset value (if applicable)
    2fc0:	80 91 dd 08 	lds	r24, 0x08DD	; 0x8008dd <DN>
    2fc4:	90 91 de 08 	lds	r25, 0x08DE	; 0x8008de <DN+0x1>
    2fc8:	eb 01       	movw	r28, r22
    2fca:	c8 1b       	sub	r28, r24
    2fcc:	d9 0b       	sbc	r29, r25
C:\Users\Ryan\Documents\GitHub\sport_main_code_2023/sport_menu.h:1571

    pi = Wire.read();
    2fce:	0e 94 36 01 	call	0x26c	; 0x26c <TwoWire::read() [clone .constprop.22]>
C:\Users\Ryan\Documents\GitHub\sport_main_code_2023/sport_menu.h:1572
    pi = pi * 180 / 255;
    2fd2:	24 eb       	ldi	r18, 0xB4	; 180
    2fd4:	d2 2e       	mov	r13, r18
    2fd6:	9c 01       	movw	r18, r24
    2fd8:	d2 9e       	mul	r13, r18
    2fda:	c0 01       	movw	r24, r0
    2fdc:	d3 9e       	mul	r13, r19
    2fde:	90 0d       	add	r25, r0
    2fe0:	11 24       	eor	r1, r1
    2fe2:	ee 24       	eor	r14, r14
    2fe4:	ea 94       	dec	r14
    2fe6:	f1 2c       	mov	r15, r1
    2fe8:	b7 01       	movw	r22, r14
    2fea:	0e 94 d0 35 	call	0x6ba0	; 0x6ba0 <__divmodhi4>
    2fee:	b6 2e       	mov	r11, r22
    2ff0:	c7 2e       	mov	r12, r23
C:\Users\Ryan\Documents\GitHub\sport_main_code_2023/sport_menu.h:1574

    rol = Wire.read();
    2ff2:	0e 94 36 01 	call	0x26c	; 0x26c <TwoWire::read() [clone .constprop.22]>
C:\Users\Ryan\Documents\GitHub\sport_main_code_2023/sport_menu.h:1575
    rol = rol * 180 / 255;
    2ff6:	9c 01       	movw	r18, r24
    2ff8:	d2 9e       	mul	r13, r18
    2ffa:	c0 01       	movw	r24, r0
    2ffc:	d3 9e       	mul	r13, r19
    2ffe:	90 0d       	add	r25, r0
    3000:	11 24       	eor	r1, r1
    3002:	b7 01       	movw	r22, r14
    3004:	0e 94 d0 35 	call	0x6ba0	; 0x6ba0 <__divmodhi4>
    3008:	7b 01       	movw	r14, r22
C:\Users\Ryan\Documents\GitHub\sport_main_code_2023/sport_menu.h:1578
  }

  if (degree < 0) {
    300a:	d7 ff       	sbrs	r29, 7
    300c:	02 c0       	rjmp	.+4      	; 0x3012 <cmps(int)+0xc6>
C:\Users\Ryan\Documents\GitHub\sport_main_code_2023/sport_menu.h:1579
    degree += 360;
    300e:	c8 59       	subi	r28, 0x98	; 152
    3010:	de 4f       	sbci	r29, 0xFE	; 254
C:\Users\Ryan\Documents\GitHub\sport_main_code_2023/sport_menu.h:1583
  }


  if (select == 1) {
    3012:	01 30       	cpi	r16, 0x01	; 1
    3014:	11 05       	cpc	r17, r1
    3016:	29 f0       	breq	.+10     	; 0x3022 <cmps(int)+0xd6>
C:\Users\Ryan\Documents\GitHub\sport_main_code_2023/sport_menu.h:1585
    return degree;
  } else if (select == 2) {
    3018:	02 30       	cpi	r16, 0x02	; 2
    301a:	11 05       	cpc	r17, r1
    301c:	69 f0       	breq	.+26     	; 0x3038 <cmps(int)+0xec>
C:\Users\Ryan\Documents\GitHub\sport_main_code_2023/sport_menu.h:1588
    return pi;
  } else {
    return rol;
    301e:	ce 2d       	mov	r28, r14
    3020:	df 2d       	mov	r29, r15
C:\Users\Ryan\Documents\GitHub\sport_main_code_2023/sport_menu.h:1590
  }
}
    3022:	ce 01       	movw	r24, r28
    3024:	df 91       	pop	r29
    3026:	cf 91       	pop	r28
    3028:	1f 91       	pop	r17
    302a:	0f 91       	pop	r16
    302c:	ff 90       	pop	r15
    302e:	ef 90       	pop	r14
    3030:	df 90       	pop	r13
    3032:	cf 90       	pop	r12
    3034:	bf 90       	pop	r11
    3036:	08 95       	ret
C:\Users\Ryan\Documents\GitHub\sport_main_code_2023/sport_menu.h:1586


  if (select == 1) {
    return degree;
  } else if (select == 2) {
    return pi;
    3038:	cb 2d       	mov	r28, r11
    303a:	dc 2d       	mov	r29, r12
    303c:	f2 cf       	rjmp	.-28     	; 0x3022 <cmps(int)+0xd6>

0000303e <menu_motor()>:
menu_motor():
C:\Users\Ryan\Documents\GitHub\sport_main_code_2023/sport_menu.h:946
}

void menu_motor(void) {
  static char page = 1, last_page = 8;
  signed int spd = 0;
  lcd.clear();
    303e:	0e 94 bf 05 	call	0xb7e	; 0xb7e <LiquidCrystal::clear() [clone .constprop.38]>
C:\Users\Ryan\Documents\GitHub\sport_main_code_2023/sport_menu.h:947
  int basket_up = EEPROM_read_int(basket_up_address);
    3042:	84 ea       	ldi	r24, 0xA4	; 164
    3044:	90 e0       	ldi	r25, 0x00	; 0
    3046:	0e 94 1c 0a 	call	0x1438	; 0x1438 <EEPROM_read_int(int)>
    304a:	5c 01       	movw	r10, r24
C:\Users\Ryan\Documents\GitHub\sport_main_code_2023/sport_menu.h:948
  int basket_normal = EEPROM_read_int(basket_normal_address);
    304c:	86 ea       	ldi	r24, 0xA6	; 166
    304e:	90 e0       	ldi	r25, 0x00	; 0
    3050:	0e 94 1c 0a 	call	0x1438	; 0x1438 <EEPROM_read_int(int)>
    3054:	6c 01       	movw	r12, r24
C:\Users\Ryan\Documents\GitHub\sport_main_code_2023/sport_menu.h:949
  int arm_normal = EEPROM_read_int(arm_normal_address);
    3056:	88 ea       	ldi	r24, 0xA8	; 168
    3058:	90 e0       	ldi	r25, 0x00	; 0
    305a:	0e 94 1c 0a 	call	0x1438	; 0x1438 <EEPROM_read_int(int)>
    305e:	4c 01       	movw	r8, r24
C:\Users\Ryan\Documents\GitHub\sport_main_code_2023/sport_menu.h:950
  int arm_down = EEPROM_read_int(arm_down_address);
    3060:	8a ea       	ldi	r24, 0xAA	; 170
    3062:	90 e0       	ldi	r25, 0x00	; 0
    3064:	0e 94 1c 0a 	call	0x1438	; 0x1438 <EEPROM_read_int(int)>
    3068:	3c 01       	movw	r6, r24
C:\Users\Ryan\Documents\GitHub\sport_main_code_2023/sport_menu.h:951
  int arm_dropping = EEPROM_read_int(arm_dropping_address);
    306a:	8c ea       	ldi	r24, 0xAC	; 172
    306c:	90 e0       	ldi	r25, 0x00	; 0
    306e:	0e 94 1c 0a 	call	0x1438	; 0x1438 <EEPROM_read_int(int)>
    3072:	2c 01       	movw	r4, r24
C:\Users\Ryan\Documents\GitHub\sport_main_code_2023/sport_menu.h:952
  int gripper_close = EEPROM_read_int(gripper_close_address);
    3074:	8e ea       	ldi	r24, 0xAE	; 174
    3076:	90 e0       	ldi	r25, 0x00	; 0
    3078:	0e 94 1c 0a 	call	0x1438	; 0x1438 <EEPROM_read_int(int)>
    307c:	7c 01       	movw	r14, r24
C:\Users\Ryan\Documents\GitHub\sport_main_code_2023/sport_menu.h:953
  int gripper_open = EEPROM_read_int(gripper_open_address);
    307e:	80 eb       	ldi	r24, 0xB0	; 176
    3080:	90 e0       	ldi	r25, 0x00	; 0
    3082:	0e 94 1c 0a 	call	0x1438	; 0x1438 <EEPROM_read_int(int)>
    3086:	8c 01       	movw	r16, r24
C:\Users\Ryan\Documents\GitHub\sport_main_code_2023/sport_menu.h:945
  }
}

void menu_motor(void) {
  static char page = 1, last_page = 8;
  signed int spd = 0;
    3088:	d0 e0       	ldi	r29, 0x00	; 0
    308a:	c0 e0       	ldi	r28, 0x00	; 0
C:\Users\Ryan\Documents\GitHub\sport_main_code_2023/sport_menu.h:1108
          gripper_close -= 5;
      }
    } else if (page == 8)  // XL Gripper open 30 and 31
    {
      lcd.setCursor(0, 0);
      lcd.printf("gripper_open %d %4d", 10, gripper_open);
    308c:	8f eb       	ldi	r24, 0xBF	; 191
    308e:	28 2e       	mov	r2, r24
    3090:	8a e0       	ldi	r24, 0x0A	; 10
    3092:	38 2e       	mov	r3, r24
C:\Users\Ryan\Documents\GitHub\sport_main_code_2023/sport_menu.h:956
  int arm_dropping = EEPROM_read_int(arm_dropping_address);
  int gripper_close = EEPROM_read_int(gripper_close_address);
  int gripper_open = EEPROM_read_int(gripper_open_address);

  while (1) {
    if (next_page == 0) {
    3094:	88 e0       	ldi	r24, 0x08	; 8
    3096:	0e 94 e3 01 	call	0x3c6	; 0x3c6 <digitalRead>
    309a:	89 2b       	or	r24, r25
    309c:	a9 f4       	brne	.+42     	; 0x30c8 <menu_motor()+0x8a>
C:\Users\Ryan\Documents\GitHub\sport_main_code_2023/sport_menu.h:957
      while (next_page == 0)
    309e:	88 e0       	ldi	r24, 0x08	; 8
    30a0:	0e 94 e3 01 	call	0x3c6	; 0x3c6 <digitalRead>
    30a4:	89 2b       	or	r24, r25
    30a6:	d9 f3       	breq	.-10     	; 0x309e <menu_motor()+0x60>
C:\Users\Ryan\Documents\GitHub\sport_main_code_2023/sport_menu.h:959
        ;
      delay(50);
    30a8:	62 e3       	ldi	r22, 0x32	; 50
    30aa:	70 e0       	ldi	r23, 0x00	; 0
    30ac:	80 e0       	ldi	r24, 0x00	; 0
    30ae:	90 e0       	ldi	r25, 0x00	; 0
    30b0:	0e 94 24 03 	call	0x648	; 0x648 <delay>
C:\Users\Ryan\Documents\GitHub\sport_main_code_2023/sport_menu.h:960
      page++;
    30b4:	80 91 00 01 	lds	r24, 0x0100	; 0x800100 <__DATA_REGION_ORIGIN__>
    30b8:	8f 5f       	subi	r24, 0xFF	; 255
C:\Users\Ryan\Documents\GitHub\sport_main_code_2023/sport_menu.h:961
      if (page > last_page)
    30ba:	89 30       	cpi	r24, 0x09	; 9
    30bc:	0c f0       	brlt	.+2      	; 0x30c0 <menu_motor()+0x82>
    30be:	59 c0       	rjmp	.+178    	; 0x3172 <menu_motor()+0x134>
C:\Users\Ryan\Documents\GitHub\sport_main_code_2023/sport_menu.h:962
        page = 1;
    30c0:	80 93 00 01 	sts	0x0100, r24	; 0x800100 <__DATA_REGION_ORIGIN__>
C:\Users\Ryan\Documents\GitHub\sport_main_code_2023/sport_menu.h:963
      lcd.clear();
    30c4:	0e 94 bf 05 	call	0xb7e	; 0xb7e <LiquidCrystal::clear() [clone .constprop.38]>
C:\Users\Ryan\Documents\GitHub\sport_main_code_2023/sport_menu.h:966
    }

    if (previuse_page == 0) {
    30c8:	89 e0       	ldi	r24, 0x09	; 9
    30ca:	0e 94 e3 01 	call	0x3c6	; 0x3c6 <digitalRead>
    30ce:	89 2b       	or	r24, r25
    30d0:	a9 f4       	brne	.+42     	; 0x30fc <menu_motor()+0xbe>
C:\Users\Ryan\Documents\GitHub\sport_main_code_2023/sport_menu.h:967
      while (previuse_page == 0)
    30d2:	89 e0       	ldi	r24, 0x09	; 9
    30d4:	0e 94 e3 01 	call	0x3c6	; 0x3c6 <digitalRead>
    30d8:	89 2b       	or	r24, r25
    30da:	d9 f3       	breq	.-10     	; 0x30d2 <menu_motor()+0x94>
C:\Users\Ryan\Documents\GitHub\sport_main_code_2023/sport_menu.h:969
        ;
      delay(50);
    30dc:	62 e3       	ldi	r22, 0x32	; 50
    30de:	70 e0       	ldi	r23, 0x00	; 0
    30e0:	80 e0       	ldi	r24, 0x00	; 0
    30e2:	90 e0       	ldi	r25, 0x00	; 0
    30e4:	0e 94 24 03 	call	0x648	; 0x648 <delay>
C:\Users\Ryan\Documents\GitHub\sport_main_code_2023/sport_menu.h:970
      page--;
    30e8:	80 91 00 01 	lds	r24, 0x0100	; 0x800100 <__DATA_REGION_ORIGIN__>
    30ec:	81 50       	subi	r24, 0x01	; 1
C:\Users\Ryan\Documents\GitHub\sport_main_code_2023/sport_menu.h:971
      if (page < 1)
    30ee:	18 16       	cp	r1, r24
    30f0:	0c f0       	brlt	.+2      	; 0x30f4 <menu_motor()+0xb6>
    30f2:	41 c0       	rjmp	.+130    	; 0x3176 <menu_motor()+0x138>
C:\Users\Ryan\Documents\GitHub\sport_main_code_2023/sport_menu.h:972
        page = last_page;
    30f4:	80 93 00 01 	sts	0x0100, r24	; 0x800100 <__DATA_REGION_ORIGIN__>
C:\Users\Ryan\Documents\GitHub\sport_main_code_2023/sport_menu.h:973
      lcd.clear();
    30f8:	0e 94 bf 05 	call	0xb7e	; 0xb7e <LiquidCrystal::clear() [clone .constprop.38]>
C:\Users\Ryan\Documents\GitHub\sport_main_code_2023/sport_menu.h:976
    }

    if (page == 1)  // go
    30fc:	80 91 00 01 	lds	r24, 0x0100	; 0x800100 <__DATA_REGION_ORIGIN__>
    3100:	81 30       	cpi	r24, 0x01	; 1
    3102:	09 f0       	breq	.+2      	; 0x3106 <menu_motor()+0xc8>
    3104:	44 c0       	rjmp	.+136    	; 0x318e <menu_motor()+0x150>
C:\Users\Ryan\Documents\GitHub\sport_main_code_2023/sport_menu.h:978
    {
      lcd.setCursor(0, 0);
    3106:	60 e0       	ldi	r22, 0x00	; 0
    3108:	80 e0       	ldi	r24, 0x00	; 0
    310a:	0e 94 67 06 	call	0xcce	; 0xcce <LiquidCrystal::setCursor(unsigned char, unsigned char) [clone .constprop.27]>
C:\Users\Ryan\Documents\GitHub\sport_main_code_2023/sport_menu.h:979
      lcd.printf("go(%4d,%4d) ", spd, spd);
    310e:	df 93       	push	r29
    3110:	cf 93       	push	r28
    3112:	df 93       	push	r29
    3114:	cf 93       	push	r28
    3116:	8a e3       	ldi	r24, 0x3A	; 58
    3118:	93 e0       	ldi	r25, 0x03	; 3
    311a:	9f 93       	push	r25
    311c:	8f 93       	push	r24
    311e:	3f 92       	push	r3
    3120:	2f 92       	push	r2
    3122:	0e 94 19 09 	call	0x1232	; 0x1232 <Print::printf(char const*, ...) [clone .constprop.28]>
C:\Users\Ryan\Documents\GitHub\sport_main_code_2023/sport_menu.h:980
      if (increase == 0) {
    3126:	8a e0       	ldi	r24, 0x0A	; 10
    3128:	0e 94 e3 01 	call	0x3c6	; 0x3c6 <digitalRead>
    312c:	2d b7       	in	r18, 0x3d	; 61
    312e:	3e b7       	in	r19, 0x3e	; 62
    3130:	28 5f       	subi	r18, 0xF8	; 248
    3132:	3f 4f       	sbci	r19, 0xFF	; 255
    3134:	0f b6       	in	r0, 0x3f	; 63
    3136:	f8 94       	cli
    3138:	3e bf       	out	0x3e, r19	; 62
    313a:	0f be       	out	0x3f, r0	; 63
    313c:	2d bf       	out	0x3d, r18	; 61
    313e:	89 2b       	or	r24, r25
    3140:	e1 f4       	brne	.+56     	; 0x317a <menu_motor()+0x13c>
C:\Users\Ryan\Documents\GitHub\sport_main_code_2023/sport_menu.h:981
        spd += 50;
    3142:	e2 96       	adiw	r28, 0x32	; 50
C:\Users\Ryan\Documents\GitHub\sport_main_code_2023/sport_menu.h:985
        delay(400);
      } else if (decrease == 0) {
        spd -= 50;
        delay(400);
    3144:	60 e9       	ldi	r22, 0x90	; 144
    3146:	71 e0       	ldi	r23, 0x01	; 1
    3148:	80 e0       	ldi	r24, 0x00	; 0
    314a:	90 e0       	ldi	r25, 0x00	; 0
    314c:	0e 94 24 03 	call	0x648	; 0x648 <delay>
    3150:	c1 30       	cpi	r28, 0x01	; 1
    3152:	3f ef       	ldi	r19, 0xFF	; 255
    3154:	d3 07       	cpc	r29, r19
    3156:	14 f4       	brge	.+4      	; 0x315c <menu_motor()+0x11e>
    3158:	c1 e0       	ldi	r28, 0x01	; 1
    315a:	df ef       	ldi	r29, 0xFF	; 255
    315c:	cf 3f       	cpi	r28, 0xFF	; 255
    315e:	d1 05       	cpc	r29, r1
    3160:	19 f0       	breq	.+6      	; 0x3168 <menu_motor()+0x12a>
    3162:	14 f0       	brlt	.+4      	; 0x3168 <menu_motor()+0x12a>
    3164:	cf ef       	ldi	r28, 0xFF	; 255
    3166:	d0 e0       	ldi	r29, 0x00	; 0
C:\Users\Ryan\Documents\GitHub\sport_main_code_2023/sport_menu.h:994
      if (spd > 255)
        spd = 255;
      if (spd < -255)
        spd = -255;

      go(spd, spd);
    3168:	be 01       	movw	r22, r28
    316a:	ce 01       	movw	r24, r28
    316c:	0e 94 d0 06 	call	0xda0	; 0xda0 <go(int, int)>
    3170:	91 cf       	rjmp	.-222    	; 0x3094 <menu_motor()+0x56>
C:\Users\Ryan\Documents\GitHub\sport_main_code_2023/sport_menu.h:962
      while (next_page == 0)
        ;
      delay(50);
      page++;
      if (page > last_page)
        page = 1;
    3172:	81 e0       	ldi	r24, 0x01	; 1
    3174:	a5 cf       	rjmp	.-182    	; 0x30c0 <menu_motor()+0x82>
C:\Users\Ryan\Documents\GitHub\sport_main_code_2023/sport_menu.h:972
      while (previuse_page == 0)
        ;
      delay(50);
      page--;
      if (page < 1)
        page = last_page;
    3176:	88 e0       	ldi	r24, 0x08	; 8
    3178:	bd cf       	rjmp	.-134    	; 0x30f4 <menu_motor()+0xb6>
C:\Users\Ryan\Documents\GitHub\sport_main_code_2023/sport_menu.h:983
      lcd.setCursor(0, 0);
      lcd.printf("go(%4d,%4d) ", spd, spd);
      if (increase == 0) {
        spd += 50;
        delay(400);
      } else if (decrease == 0) {
    317a:	8b e0       	ldi	r24, 0x0B	; 11
    317c:	0e 94 e3 01 	call	0x3c6	; 0x3c6 <digitalRead>
    3180:	89 2b       	or	r24, r25
    3182:	11 f4       	brne	.+4      	; 0x3188 <menu_motor()+0x14a>
C:\Users\Ryan\Documents\GitHub\sport_main_code_2023/sport_menu.h:984
        spd -= 50;
    3184:	e2 97       	sbiw	r28, 0x32	; 50
    3186:	de cf       	rjmp	.-68     	; 0x3144 <menu_motor()+0x106>
C:\Users\Ryan\Documents\GitHub\sport_main_code_2023/sport_menu.h:987
        delay(400);
      } else
        spd = 0;
    3188:	d0 e0       	ldi	r29, 0x00	; 0
    318a:	c0 e0       	ldi	r28, 0x00	; 0
    318c:	ed cf       	rjmp	.-38     	; 0x3168 <menu_motor()+0x12a>
C:\Users\Ryan\Documents\GitHub\sport_main_code_2023/sport_menu.h:995
        spd = 255;
      if (spd < -255)
        spd = -255;

      go(spd, spd);
    } else if (page == 2)  // AX Basket ID=10
    318e:	82 30       	cpi	r24, 0x02	; 2
    3190:	09 f0       	breq	.+2      	; 0x3194 <menu_motor()+0x156>
    3192:	55 c0       	rjmp	.+170    	; 0x323e <menu_motor()+0x200>
C:\Users\Ryan\Documents\GitHub\sport_main_code_2023/sport_menu.h:997
    {
      lcd.setCursor(0, 0);
    3194:	60 e0       	ldi	r22, 0x00	; 0
    3196:	80 e0       	ldi	r24, 0x00	; 0
    3198:	0e 94 67 06 	call	0xcce	; 0xcce <LiquidCrystal::setCursor(unsigned char, unsigned char) [clone .constprop.27]>
C:\Users\Ryan\Documents\GitHub\sport_main_code_2023/sport_menu.h:998
      lcd.printf("Basket up %d %4d", 10, basket_up);
    319c:	bf 92       	push	r11
    319e:	af 92       	push	r10
    31a0:	1f 92       	push	r1
    31a2:	8a e0       	ldi	r24, 0x0A	; 10
    31a4:	8f 93       	push	r24
    31a6:	87 e4       	ldi	r24, 0x47	; 71
    31a8:	93 e0       	ldi	r25, 0x03	; 3
    31aa:	9f 93       	push	r25
    31ac:	8f 93       	push	r24
    31ae:	3f 92       	push	r3
    31b0:	2f 92       	push	r2
    31b2:	0e 94 19 09 	call	0x1232	; 0x1232 <Print::printf(char const*, ...) [clone .constprop.28]>
C:\Users\Ryan\Documents\GitHub\sport_main_code_2023/sport_menu.h:999
      if (start == 0) {
    31b6:	86 e0       	ldi	r24, 0x06	; 6
    31b8:	0e 94 e3 01 	call	0x3c6	; 0x3c6 <digitalRead>
    31bc:	2d b7       	in	r18, 0x3d	; 61
    31be:	3e b7       	in	r19, 0x3e	; 62
    31c0:	28 5f       	subi	r18, 0xF8	; 248
    31c2:	3f 4f       	sbci	r19, 0xFF	; 255
    31c4:	0f b6       	in	r0, 0x3f	; 63
    31c6:	f8 94       	cli
    31c8:	3e bf       	out	0x3e, r19	; 62
    31ca:	0f be       	out	0x3f, r0	; 63
    31cc:	2d bf       	out	0x3d, r18	; 61
    31ce:	89 2b       	or	r24, r25
    31d0:	61 f4       	brne	.+24     	; 0x31ea <menu_motor()+0x1ac>
C:\Users\Ryan\Documents\GitHub\sport_main_code_2023/sport_menu.h:1000
        EEPROM_write_int(basket_up_address, basket_up);
    31d2:	b5 01       	movw	r22, r10
    31d4:	84 ea       	ldi	r24, 0xA4	; 164
    31d6:	90 e0       	ldi	r25, 0x00	; 0
    31d8:	0e 94 0c 0a 	call	0x1418	; 0x1418 <EEPROM_write_int(int, int)>
C:\Users\Ryan\Documents\GitHub\sport_main_code_2023/sport_menu.h:1001
        AX(10, basket_up, 150);
    31dc:	46 e9       	ldi	r20, 0x96	; 150
    31de:	50 e0       	ldi	r21, 0x00	; 0
    31e0:	b5 01       	movw	r22, r10
C:\Users\Ryan\Documents\GitHub\sport_main_code_2023/sport_menu.h:1020
    {
      lcd.setCursor(0, 0);
      lcd.printf("Basket normal %d %4d", 10, basket_normal);
      if (start == 0) {
        EEPROM_write_int(basket_normal_address, basket_normal);
        AX(10, basket_normal, 150);
    31e2:	8a e0       	ldi	r24, 0x0A	; 10
    31e4:	0e 94 52 08 	call	0x10a4	; 0x10a4 <AX(char, int, int)>
    31e8:	55 cf       	rjmp	.-342    	; 0x3094 <menu_motor()+0x56>
C:\Users\Ryan\Documents\GitHub\sport_main_code_2023/sport_menu.h:1003
      lcd.printf("Basket up %d %4d", 10, basket_up);
      if (start == 0) {
        EEPROM_write_int(basket_up_address, basket_up);
        AX(10, basket_up, 150);

      } else if (increase == 0) {
    31ea:	8a e0       	ldi	r24, 0x0A	; 10
    31ec:	0e 94 e3 01 	call	0x3c6	; 0x3c6 <digitalRead>
    31f0:	89 2b       	or	r24, r25
    31f2:	81 f4       	brne	.+32     	; 0x3214 <menu_motor()+0x1d6>
C:\Users\Ryan\Documents\GitHub\sport_main_code_2023/sport_menu.h:1004
        delay(50);
    31f4:	62 e3       	ldi	r22, 0x32	; 50
    31f6:	70 e0       	ldi	r23, 0x00	; 0
    31f8:	80 e0       	ldi	r24, 0x00	; 0
    31fa:	90 e0       	ldi	r25, 0x00	; 0
    31fc:	0e 94 24 03 	call	0x648	; 0x648 <delay>
C:\Users\Ryan\Documents\GitHub\sport_main_code_2023/sport_menu.h:1005
        if (basket_up < 520)
    3200:	38 e0       	ldi	r19, 0x08	; 8
    3202:	a3 16       	cp	r10, r19
    3204:	32 e0       	ldi	r19, 0x02	; 2
    3206:	b3 06       	cpc	r11, r19
    3208:	0c f0       	brlt	.+2      	; 0x320c <menu_motor()+0x1ce>
    320a:	44 cf       	rjmp	.-376    	; 0x3094 <menu_motor()+0x56>
C:\Users\Ryan\Documents\GitHub\sport_main_code_2023/sport_menu.h:1006
          basket_up += 5;
    320c:	85 e0       	ldi	r24, 0x05	; 5
    320e:	a8 0e       	add	r10, r24
    3210:	b1 1c       	adc	r11, r1
    3212:	40 cf       	rjmp	.-384    	; 0x3094 <menu_motor()+0x56>
C:\Users\Ryan\Documents\GitHub\sport_main_code_2023/sport_menu.h:1007
      } else if (decrease == 0) {
    3214:	8b e0       	ldi	r24, 0x0B	; 11
    3216:	0e 94 e3 01 	call	0x3c6	; 0x3c6 <digitalRead>
    321a:	89 2b       	or	r24, r25
    321c:	09 f0       	breq	.+2      	; 0x3220 <menu_motor()+0x1e2>
    321e:	3a cf       	rjmp	.-396    	; 0x3094 <menu_motor()+0x56>
C:\Users\Ryan\Documents\GitHub\sport_main_code_2023/sport_menu.h:1008
        delay(50);
    3220:	62 e3       	ldi	r22, 0x32	; 50
    3222:	70 e0       	ldi	r23, 0x00	; 0
    3224:	80 e0       	ldi	r24, 0x00	; 0
    3226:	90 e0       	ldi	r25, 0x00	; 0
    3228:	0e 94 24 03 	call	0x648	; 0x648 <delay>
C:\Users\Ryan\Documents\GitHub\sport_main_code_2023/sport_menu.h:1010

        if (basket_up > 250)
    322c:	9b ef       	ldi	r25, 0xFB	; 251
    322e:	a9 16       	cp	r10, r25
    3230:	b1 04       	cpc	r11, r1
    3232:	0c f4       	brge	.+2      	; 0x3236 <menu_motor()+0x1f8>
    3234:	2f cf       	rjmp	.-418    	; 0x3094 <menu_motor()+0x56>
C:\Users\Ryan\Documents\GitHub\sport_main_code_2023/sport_menu.h:1011
          basket_up -= 5;
    3236:	25 e0       	ldi	r18, 0x05	; 5
    3238:	a2 1a       	sub	r10, r18
    323a:	b1 08       	sbc	r11, r1
    323c:	2b cf       	rjmp	.-426    	; 0x3094 <menu_motor()+0x56>
C:\Users\Ryan\Documents\GitHub\sport_main_code_2023/sport_menu.h:1014
      }

    } else if (page == 3)  // AX Basket Normal ID=10
    323e:	83 30       	cpi	r24, 0x03	; 3
    3240:	09 f0       	breq	.+2      	; 0x3244 <menu_motor()+0x206>
    3242:	52 c0       	rjmp	.+164    	; 0x32e8 <menu_motor()+0x2aa>
C:\Users\Ryan\Documents\GitHub\sport_main_code_2023/sport_menu.h:1016
    {
      lcd.setCursor(0, 0);
    3244:	60 e0       	ldi	r22, 0x00	; 0
    3246:	80 e0       	ldi	r24, 0x00	; 0
    3248:	0e 94 67 06 	call	0xcce	; 0xcce <LiquidCrystal::setCursor(unsigned char, unsigned char) [clone .constprop.27]>
C:\Users\Ryan\Documents\GitHub\sport_main_code_2023/sport_menu.h:1017
      lcd.printf("Basket normal %d %4d", 10, basket_normal);
    324c:	df 92       	push	r13
    324e:	cf 92       	push	r12
    3250:	1f 92       	push	r1
    3252:	8a e0       	ldi	r24, 0x0A	; 10
    3254:	8f 93       	push	r24
    3256:	88 e5       	ldi	r24, 0x58	; 88
    3258:	93 e0       	ldi	r25, 0x03	; 3
    325a:	9f 93       	push	r25
    325c:	8f 93       	push	r24
    325e:	3f 92       	push	r3
    3260:	2f 92       	push	r2
    3262:	0e 94 19 09 	call	0x1232	; 0x1232 <Print::printf(char const*, ...) [clone .constprop.28]>
C:\Users\Ryan\Documents\GitHub\sport_main_code_2023/sport_menu.h:1018
      if (start == 0) {
    3266:	86 e0       	ldi	r24, 0x06	; 6
    3268:	0e 94 e3 01 	call	0x3c6	; 0x3c6 <digitalRead>
    326c:	2d b7       	in	r18, 0x3d	; 61
    326e:	3e b7       	in	r19, 0x3e	; 62
    3270:	28 5f       	subi	r18, 0xF8	; 248
    3272:	3f 4f       	sbci	r19, 0xFF	; 255
    3274:	0f b6       	in	r0, 0x3f	; 63
    3276:	f8 94       	cli
    3278:	3e bf       	out	0x3e, r19	; 62
    327a:	0f be       	out	0x3f, r0	; 63
    327c:	2d bf       	out	0x3d, r18	; 61
    327e:	89 2b       	or	r24, r25
    3280:	49 f4       	brne	.+18     	; 0x3294 <menu_motor()+0x256>
C:\Users\Ryan\Documents\GitHub\sport_main_code_2023/sport_menu.h:1019
        EEPROM_write_int(basket_normal_address, basket_normal);
    3282:	b6 01       	movw	r22, r12
    3284:	86 ea       	ldi	r24, 0xA6	; 166
    3286:	90 e0       	ldi	r25, 0x00	; 0
    3288:	0e 94 0c 0a 	call	0x1418	; 0x1418 <EEPROM_write_int(int, int)>
C:\Users\Ryan\Documents\GitHub\sport_main_code_2023/sport_menu.h:1020
        AX(10, basket_normal, 150);
    328c:	46 e9       	ldi	r20, 0x96	; 150
    328e:	50 e0       	ldi	r21, 0x00	; 0
    3290:	b6 01       	movw	r22, r12
    3292:	a7 cf       	rjmp	.-178    	; 0x31e2 <menu_motor()+0x1a4>
C:\Users\Ryan\Documents\GitHub\sport_main_code_2023/sport_menu.h:1021
      } else if (increase == 0) {
    3294:	8a e0       	ldi	r24, 0x0A	; 10
    3296:	0e 94 e3 01 	call	0x3c6	; 0x3c6 <digitalRead>
    329a:	89 2b       	or	r24, r25
    329c:	81 f4       	brne	.+32     	; 0x32be <menu_motor()+0x280>
C:\Users\Ryan\Documents\GitHub\sport_main_code_2023/sport_menu.h:1022
        delay(50);
    329e:	62 e3       	ldi	r22, 0x32	; 50
    32a0:	70 e0       	ldi	r23, 0x00	; 0
    32a2:	80 e0       	ldi	r24, 0x00	; 0
    32a4:	90 e0       	ldi	r25, 0x00	; 0
    32a6:	0e 94 24 03 	call	0x648	; 0x648 <delay>
C:\Users\Ryan\Documents\GitHub\sport_main_code_2023/sport_menu.h:1023
        if (basket_normal < 520)
    32aa:	38 e0       	ldi	r19, 0x08	; 8
    32ac:	c3 16       	cp	r12, r19
    32ae:	32 e0       	ldi	r19, 0x02	; 2
    32b0:	d3 06       	cpc	r13, r19
    32b2:	0c f0       	brlt	.+2      	; 0x32b6 <menu_motor()+0x278>
    32b4:	ef ce       	rjmp	.-546    	; 0x3094 <menu_motor()+0x56>
C:\Users\Ryan\Documents\GitHub\sport_main_code_2023/sport_menu.h:1024
          basket_normal += 5;
    32b6:	85 e0       	ldi	r24, 0x05	; 5
    32b8:	c8 0e       	add	r12, r24
    32ba:	d1 1c       	adc	r13, r1
    32bc:	eb ce       	rjmp	.-554    	; 0x3094 <menu_motor()+0x56>
C:\Users\Ryan\Documents\GitHub\sport_main_code_2023/sport_menu.h:1025
      } else if (decrease == 0) {
    32be:	8b e0       	ldi	r24, 0x0B	; 11
    32c0:	0e 94 e3 01 	call	0x3c6	; 0x3c6 <digitalRead>
    32c4:	89 2b       	or	r24, r25
    32c6:	09 f0       	breq	.+2      	; 0x32ca <menu_motor()+0x28c>
    32c8:	e5 ce       	rjmp	.-566    	; 0x3094 <menu_motor()+0x56>
C:\Users\Ryan\Documents\GitHub\sport_main_code_2023/sport_menu.h:1026
        delay(50);
    32ca:	62 e3       	ldi	r22, 0x32	; 50
    32cc:	70 e0       	ldi	r23, 0x00	; 0
    32ce:	80 e0       	ldi	r24, 0x00	; 0
    32d0:	90 e0       	ldi	r25, 0x00	; 0
    32d2:	0e 94 24 03 	call	0x648	; 0x648 <delay>
C:\Users\Ryan\Documents\GitHub\sport_main_code_2023/sport_menu.h:1028

        if (basket_normal > 250)
    32d6:	9b ef       	ldi	r25, 0xFB	; 251
    32d8:	c9 16       	cp	r12, r25
    32da:	d1 04       	cpc	r13, r1
    32dc:	0c f4       	brge	.+2      	; 0x32e0 <menu_motor()+0x2a2>
    32de:	da ce       	rjmp	.-588    	; 0x3094 <menu_motor()+0x56>
C:\Users\Ryan\Documents\GitHub\sport_main_code_2023/sport_menu.h:1029
          basket_normal -= 5;
    32e0:	25 e0       	ldi	r18, 0x05	; 5
    32e2:	c2 1a       	sub	r12, r18
    32e4:	d1 08       	sbc	r13, r1
    32e6:	d6 ce       	rjmp	.-596    	; 0x3094 <menu_motor()+0x56>
C:\Users\Ryan\Documents\GitHub\sport_main_code_2023/sport_menu.h:1032
      }

    } else if (page == 4)  // AX Arm Normal ID=11
    32e8:	84 30       	cpi	r24, 0x04	; 4
    32ea:	09 f0       	breq	.+2      	; 0x32ee <menu_motor()+0x2b0>
    32ec:	55 c0       	rjmp	.+170    	; 0x3398 <menu_motor()+0x35a>
C:\Users\Ryan\Documents\GitHub\sport_main_code_2023/sport_menu.h:1034
    {
      lcd.setCursor(0, 0);
    32ee:	60 e0       	ldi	r22, 0x00	; 0
    32f0:	80 e0       	ldi	r24, 0x00	; 0
    32f2:	0e 94 67 06 	call	0xcce	; 0xcce <LiquidCrystal::setCursor(unsigned char, unsigned char) [clone .constprop.27]>
C:\Users\Ryan\Documents\GitHub\sport_main_code_2023/sport_menu.h:1035
      lcd.printf("arm normal %d %4d", 10, arm_normal);
    32f6:	9f 92       	push	r9
    32f8:	8f 92       	push	r8
    32fa:	1f 92       	push	r1
    32fc:	8a e0       	ldi	r24, 0x0A	; 10
    32fe:	8f 93       	push	r24
    3300:	8d e6       	ldi	r24, 0x6D	; 109
    3302:	93 e0       	ldi	r25, 0x03	; 3
    3304:	9f 93       	push	r25
    3306:	8f 93       	push	r24
    3308:	3f 92       	push	r3
    330a:	2f 92       	push	r2
    330c:	0e 94 19 09 	call	0x1232	; 0x1232 <Print::printf(char const*, ...) [clone .constprop.28]>
C:\Users\Ryan\Documents\GitHub\sport_main_code_2023/sport_menu.h:1036
      if (start == 0) {
    3310:	86 e0       	ldi	r24, 0x06	; 6
    3312:	0e 94 e3 01 	call	0x3c6	; 0x3c6 <digitalRead>
    3316:	2d b7       	in	r18, 0x3d	; 61
    3318:	3e b7       	in	r19, 0x3e	; 62
    331a:	28 5f       	subi	r18, 0xF8	; 248
    331c:	3f 4f       	sbci	r19, 0xFF	; 255
    331e:	0f b6       	in	r0, 0x3f	; 63
    3320:	f8 94       	cli
    3322:	3e bf       	out	0x3e, r19	; 62
    3324:	0f be       	out	0x3f, r0	; 63
    3326:	2d bf       	out	0x3d, r18	; 61
    3328:	89 2b       	or	r24, r25
    332a:	61 f4       	brne	.+24     	; 0x3344 <menu_motor()+0x306>
C:\Users\Ryan\Documents\GitHub\sport_main_code_2023/sport_menu.h:1037
        AX(11, arm_normal, 150);
    332c:	46 e9       	ldi	r20, 0x96	; 150
    332e:	50 e0       	ldi	r21, 0x00	; 0
    3330:	b4 01       	movw	r22, r8
    3332:	8b e0       	ldi	r24, 0x0B	; 11
    3334:	0e 94 52 08 	call	0x10a4	; 0x10a4 <AX(char, int, int)>
C:\Users\Ryan\Documents\GitHub\sport_main_code_2023/sport_menu.h:1038
        EEPROM_write_int(arm_normal_address, arm_normal);
    3338:	b4 01       	movw	r22, r8
    333a:	88 ea       	ldi	r24, 0xA8	; 168
    333c:	90 e0       	ldi	r25, 0x00	; 0
    333e:	0e 94 0c 0a 	call	0x1418	; 0x1418 <EEPROM_write_int(int, int)>
    3342:	a8 ce       	rjmp	.-688    	; 0x3094 <menu_motor()+0x56>
C:\Users\Ryan\Documents\GitHub\sport_main_code_2023/sport_menu.h:1039
      } else if (increase == 0) {
    3344:	8a e0       	ldi	r24, 0x0A	; 10
    3346:	0e 94 e3 01 	call	0x3c6	; 0x3c6 <digitalRead>
    334a:	89 2b       	or	r24, r25
    334c:	81 f4       	brne	.+32     	; 0x336e <menu_motor()+0x330>
C:\Users\Ryan\Documents\GitHub\sport_main_code_2023/sport_menu.h:1040
        delay(50);
    334e:	62 e3       	ldi	r22, 0x32	; 50
    3350:	70 e0       	ldi	r23, 0x00	; 0
    3352:	80 e0       	ldi	r24, 0x00	; 0
    3354:	90 e0       	ldi	r25, 0x00	; 0
    3356:	0e 94 24 03 	call	0x648	; 0x648 <delay>
C:\Users\Ryan\Documents\GitHub\sport_main_code_2023/sport_menu.h:1041
        if (arm_normal < 800)
    335a:	30 e2       	ldi	r19, 0x20	; 32
    335c:	83 16       	cp	r8, r19
    335e:	33 e0       	ldi	r19, 0x03	; 3
    3360:	93 06       	cpc	r9, r19
    3362:	0c f0       	brlt	.+2      	; 0x3366 <menu_motor()+0x328>
    3364:	97 ce       	rjmp	.-722    	; 0x3094 <menu_motor()+0x56>
C:\Users\Ryan\Documents\GitHub\sport_main_code_2023/sport_menu.h:1042
          arm_normal += 5;
    3366:	85 e0       	ldi	r24, 0x05	; 5
    3368:	88 0e       	add	r8, r24
    336a:	91 1c       	adc	r9, r1
    336c:	93 ce       	rjmp	.-730    	; 0x3094 <menu_motor()+0x56>
C:\Users\Ryan\Documents\GitHub\sport_main_code_2023/sport_menu.h:1043
      } else if (decrease == 0) {
    336e:	8b e0       	ldi	r24, 0x0B	; 11
    3370:	0e 94 e3 01 	call	0x3c6	; 0x3c6 <digitalRead>
    3374:	89 2b       	or	r24, r25
    3376:	09 f0       	breq	.+2      	; 0x337a <menu_motor()+0x33c>
    3378:	8d ce       	rjmp	.-742    	; 0x3094 <menu_motor()+0x56>
C:\Users\Ryan\Documents\GitHub\sport_main_code_2023/sport_menu.h:1044
        delay(50);
    337a:	62 e3       	ldi	r22, 0x32	; 50
    337c:	70 e0       	ldi	r23, 0x00	; 0
    337e:	80 e0       	ldi	r24, 0x00	; 0
    3380:	90 e0       	ldi	r25, 0x00	; 0
    3382:	0e 94 24 03 	call	0x648	; 0x648 <delay>
C:\Users\Ryan\Documents\GitHub\sport_main_code_2023/sport_menu.h:1046

        if (arm_normal > 150)
    3386:	97 e9       	ldi	r25, 0x97	; 151
    3388:	89 16       	cp	r8, r25
    338a:	91 04       	cpc	r9, r1
    338c:	0c f4       	brge	.+2      	; 0x3390 <menu_motor()+0x352>
    338e:	82 ce       	rjmp	.-764    	; 0x3094 <menu_motor()+0x56>
C:\Users\Ryan\Documents\GitHub\sport_main_code_2023/sport_menu.h:1047
          arm_normal -= 5;
    3390:	25 e0       	ldi	r18, 0x05	; 5
    3392:	82 1a       	sub	r8, r18
    3394:	91 08       	sbc	r9, r1
    3396:	7e ce       	rjmp	.-772    	; 0x3094 <menu_motor()+0x56>
C:\Users\Ryan\Documents\GitHub\sport_main_code_2023/sport_menu.h:1050
      }

    } else if (page == 5)  // AX Arm down ID=11
    3398:	85 30       	cpi	r24, 0x05	; 5
    339a:	09 f0       	breq	.+2      	; 0x339e <menu_motor()+0x360>
    339c:	53 c0       	rjmp	.+166    	; 0x3444 <menu_motor()+0x406>
C:\Users\Ryan\Documents\GitHub\sport_main_code_2023/sport_menu.h:1052
    {
      lcd.setCursor(0, 0);
    339e:	60 e0       	ldi	r22, 0x00	; 0
    33a0:	80 e0       	ldi	r24, 0x00	; 0
    33a2:	0e 94 67 06 	call	0xcce	; 0xcce <LiquidCrystal::setCursor(unsigned char, unsigned char) [clone .constprop.27]>
C:\Users\Ryan\Documents\GitHub\sport_main_code_2023/sport_menu.h:1053
      lcd.printf("arm_down %d %4d", 10, arm_down);
    33a6:	7f 92       	push	r7
    33a8:	6f 92       	push	r6
    33aa:	1f 92       	push	r1
    33ac:	8a e0       	ldi	r24, 0x0A	; 10
    33ae:	8f 93       	push	r24
    33b0:	8f e7       	ldi	r24, 0x7F	; 127
    33b2:	93 e0       	ldi	r25, 0x03	; 3
    33b4:	9f 93       	push	r25
    33b6:	8f 93       	push	r24
    33b8:	3f 92       	push	r3
    33ba:	2f 92       	push	r2
    33bc:	0e 94 19 09 	call	0x1232	; 0x1232 <Print::printf(char const*, ...) [clone .constprop.28]>
C:\Users\Ryan\Documents\GitHub\sport_main_code_2023/sport_menu.h:1054
      if (start == 0) {
    33c0:	86 e0       	ldi	r24, 0x06	; 6
    33c2:	0e 94 e3 01 	call	0x3c6	; 0x3c6 <digitalRead>
    33c6:	2d b7       	in	r18, 0x3d	; 61
    33c8:	3e b7       	in	r19, 0x3e	; 62
    33ca:	28 5f       	subi	r18, 0xF8	; 248
    33cc:	3f 4f       	sbci	r19, 0xFF	; 255
    33ce:	0f b6       	in	r0, 0x3f	; 63
    33d0:	f8 94       	cli
    33d2:	3e bf       	out	0x3e, r19	; 62
    33d4:	0f be       	out	0x3f, r0	; 63
    33d6:	2d bf       	out	0x3d, r18	; 61
    33d8:	89 2b       	or	r24, r25
    33da:	51 f4       	brne	.+20     	; 0x33f0 <menu_motor()+0x3b2>
C:\Users\Ryan\Documents\GitHub\sport_main_code_2023/sport_menu.h:1055
        EEPROM_write_int(arm_down_address, arm_down);
    33dc:	b3 01       	movw	r22, r6
    33de:	8a ea       	ldi	r24, 0xAA	; 170
    33e0:	90 e0       	ldi	r25, 0x00	; 0
    33e2:	0e 94 0c 0a 	call	0x1418	; 0x1418 <EEPROM_write_int(int, int)>
C:\Users\Ryan\Documents\GitHub\sport_main_code_2023/sport_menu.h:1056
        AX(11, arm_down, 150);
    33e6:	46 e9       	ldi	r20, 0x96	; 150
    33e8:	50 e0       	ldi	r21, 0x00	; 0
    33ea:	b3 01       	movw	r22, r6
C:\Users\Ryan\Documents\GitHub\sport_main_code_2023/sport_menu.h:1074
    {
      lcd.setCursor(0, 0);
      lcd.printf("arm_dropping %d %4d", 10, arm_dropping);
      if (start == 0) {
        EEPROM_write_int(arm_dropping_address, arm_dropping);
        AX(11, arm_dropping, 150);
    33ec:	8b e0       	ldi	r24, 0x0B	; 11
    33ee:	fa ce       	rjmp	.-524    	; 0x31e4 <menu_motor()+0x1a6>
C:\Users\Ryan\Documents\GitHub\sport_main_code_2023/sport_menu.h:1057
      lcd.setCursor(0, 0);
      lcd.printf("arm_down %d %4d", 10, arm_down);
      if (start == 0) {
        EEPROM_write_int(arm_down_address, arm_down);
        AX(11, arm_down, 150);
      } else if (increase == 0) {
    33f0:	8a e0       	ldi	r24, 0x0A	; 10
    33f2:	0e 94 e3 01 	call	0x3c6	; 0x3c6 <digitalRead>
    33f6:	89 2b       	or	r24, r25
    33f8:	81 f4       	brne	.+32     	; 0x341a <menu_motor()+0x3dc>
C:\Users\Ryan\Documents\GitHub\sport_main_code_2023/sport_menu.h:1058
        delay(50);
    33fa:	62 e3       	ldi	r22, 0x32	; 50
    33fc:	70 e0       	ldi	r23, 0x00	; 0
    33fe:	80 e0       	ldi	r24, 0x00	; 0
    3400:	90 e0       	ldi	r25, 0x00	; 0
    3402:	0e 94 24 03 	call	0x648	; 0x648 <delay>
C:\Users\Ryan\Documents\GitHub\sport_main_code_2023/sport_menu.h:1059
        if (arm_down < 800)
    3406:	30 e2       	ldi	r19, 0x20	; 32
    3408:	63 16       	cp	r6, r19
    340a:	33 e0       	ldi	r19, 0x03	; 3
    340c:	73 06       	cpc	r7, r19
    340e:	0c f0       	brlt	.+2      	; 0x3412 <menu_motor()+0x3d4>
    3410:	41 ce       	rjmp	.-894    	; 0x3094 <menu_motor()+0x56>
C:\Users\Ryan\Documents\GitHub\sport_main_code_2023/sport_menu.h:1060
          arm_down += 5;
    3412:	85 e0       	ldi	r24, 0x05	; 5
    3414:	68 0e       	add	r6, r24
    3416:	71 1c       	adc	r7, r1
    3418:	3d ce       	rjmp	.-902    	; 0x3094 <menu_motor()+0x56>
C:\Users\Ryan\Documents\GitHub\sport_main_code_2023/sport_menu.h:1061
      } else if (decrease == 0) {
    341a:	8b e0       	ldi	r24, 0x0B	; 11
    341c:	0e 94 e3 01 	call	0x3c6	; 0x3c6 <digitalRead>
    3420:	89 2b       	or	r24, r25
    3422:	09 f0       	breq	.+2      	; 0x3426 <menu_motor()+0x3e8>
    3424:	37 ce       	rjmp	.-914    	; 0x3094 <menu_motor()+0x56>
C:\Users\Ryan\Documents\GitHub\sport_main_code_2023/sport_menu.h:1062
        delay(50);
    3426:	62 e3       	ldi	r22, 0x32	; 50
    3428:	70 e0       	ldi	r23, 0x00	; 0
    342a:	80 e0       	ldi	r24, 0x00	; 0
    342c:	90 e0       	ldi	r25, 0x00	; 0
    342e:	0e 94 24 03 	call	0x648	; 0x648 <delay>
C:\Users\Ryan\Documents\GitHub\sport_main_code_2023/sport_menu.h:1064

        if (arm_down > 150)
    3432:	97 e9       	ldi	r25, 0x97	; 151
    3434:	69 16       	cp	r6, r25
    3436:	71 04       	cpc	r7, r1
    3438:	0c f4       	brge	.+2      	; 0x343c <menu_motor()+0x3fe>
    343a:	2c ce       	rjmp	.-936    	; 0x3094 <menu_motor()+0x56>
C:\Users\Ryan\Documents\GitHub\sport_main_code_2023/sport_menu.h:1065
          arm_down -= 5;
    343c:	25 e0       	ldi	r18, 0x05	; 5
    343e:	62 1a       	sub	r6, r18
    3440:	71 08       	sbc	r7, r1
    3442:	28 ce       	rjmp	.-944    	; 0x3094 <menu_motor()+0x56>
C:\Users\Ryan\Documents\GitHub\sport_main_code_2023/sport_menu.h:1068
      }

    } else if (page == 6)  // AX Arm dropping ID=11
    3444:	86 30       	cpi	r24, 0x06	; 6
    3446:	09 f0       	breq	.+2      	; 0x344a <menu_motor()+0x40c>
    3448:	53 c0       	rjmp	.+166    	; 0x34f0 <menu_motor()+0x4b2>
C:\Users\Ryan\Documents\GitHub\sport_main_code_2023/sport_menu.h:1070
    {
      lcd.setCursor(0, 0);
    344a:	60 e0       	ldi	r22, 0x00	; 0
    344c:	80 e0       	ldi	r24, 0x00	; 0
    344e:	0e 94 67 06 	call	0xcce	; 0xcce <LiquidCrystal::setCursor(unsigned char, unsigned char) [clone .constprop.27]>
C:\Users\Ryan\Documents\GitHub\sport_main_code_2023/sport_menu.h:1071
      lcd.printf("arm_dropping %d %4d", 10, arm_dropping);
    3452:	5f 92       	push	r5
    3454:	4f 92       	push	r4
    3456:	1f 92       	push	r1
    3458:	8a e0       	ldi	r24, 0x0A	; 10
    345a:	8f 93       	push	r24
    345c:	8f e8       	ldi	r24, 0x8F	; 143
    345e:	93 e0       	ldi	r25, 0x03	; 3
    3460:	9f 93       	push	r25
    3462:	8f 93       	push	r24
    3464:	3f 92       	push	r3
    3466:	2f 92       	push	r2
    3468:	0e 94 19 09 	call	0x1232	; 0x1232 <Print::printf(char const*, ...) [clone .constprop.28]>
C:\Users\Ryan\Documents\GitHub\sport_main_code_2023/sport_menu.h:1072
      if (start == 0) {
    346c:	86 e0       	ldi	r24, 0x06	; 6
    346e:	0e 94 e3 01 	call	0x3c6	; 0x3c6 <digitalRead>
    3472:	2d b7       	in	r18, 0x3d	; 61
    3474:	3e b7       	in	r19, 0x3e	; 62
    3476:	28 5f       	subi	r18, 0xF8	; 248
    3478:	3f 4f       	sbci	r19, 0xFF	; 255
    347a:	0f b6       	in	r0, 0x3f	; 63
    347c:	f8 94       	cli
    347e:	3e bf       	out	0x3e, r19	; 62
    3480:	0f be       	out	0x3f, r0	; 63
    3482:	2d bf       	out	0x3d, r18	; 61
    3484:	89 2b       	or	r24, r25
    3486:	49 f4       	brne	.+18     	; 0x349a <menu_motor()+0x45c>
C:\Users\Ryan\Documents\GitHub\sport_main_code_2023/sport_menu.h:1073
        EEPROM_write_int(arm_dropping_address, arm_dropping);
    3488:	b2 01       	movw	r22, r4
    348a:	8c ea       	ldi	r24, 0xAC	; 172
    348c:	90 e0       	ldi	r25, 0x00	; 0
    348e:	0e 94 0c 0a 	call	0x1418	; 0x1418 <EEPROM_write_int(int, int)>
C:\Users\Ryan\Documents\GitHub\sport_main_code_2023/sport_menu.h:1074
        AX(11, arm_dropping, 150);
    3492:	46 e9       	ldi	r20, 0x96	; 150
    3494:	50 e0       	ldi	r21, 0x00	; 0
    3496:	b2 01       	movw	r22, r4
    3498:	a9 cf       	rjmp	.-174    	; 0x33ec <menu_motor()+0x3ae>
C:\Users\Ryan\Documents\GitHub\sport_main_code_2023/sport_menu.h:1075
      } else if (increase == 0) {
    349a:	8a e0       	ldi	r24, 0x0A	; 10
    349c:	0e 94 e3 01 	call	0x3c6	; 0x3c6 <digitalRead>
    34a0:	89 2b       	or	r24, r25
    34a2:	81 f4       	brne	.+32     	; 0x34c4 <menu_motor()+0x486>
C:\Users\Ryan\Documents\GitHub\sport_main_code_2023/sport_menu.h:1076
        delay(50);
    34a4:	62 e3       	ldi	r22, 0x32	; 50
    34a6:	70 e0       	ldi	r23, 0x00	; 0
    34a8:	80 e0       	ldi	r24, 0x00	; 0
    34aa:	90 e0       	ldi	r25, 0x00	; 0
    34ac:	0e 94 24 03 	call	0x648	; 0x648 <delay>
C:\Users\Ryan\Documents\GitHub\sport_main_code_2023/sport_menu.h:1077
        if (arm_dropping < 1000)
    34b0:	38 ee       	ldi	r19, 0xE8	; 232
    34b2:	43 16       	cp	r4, r19
    34b4:	33 e0       	ldi	r19, 0x03	; 3
    34b6:	53 06       	cpc	r5, r19
    34b8:	0c f0       	brlt	.+2      	; 0x34bc <menu_motor()+0x47e>
    34ba:	ec cd       	rjmp	.-1064   	; 0x3094 <menu_motor()+0x56>
C:\Users\Ryan\Documents\GitHub\sport_main_code_2023/sport_menu.h:1078
          arm_dropping += 5;
    34bc:	85 e0       	ldi	r24, 0x05	; 5
    34be:	48 0e       	add	r4, r24
    34c0:	51 1c       	adc	r5, r1
    34c2:	e8 cd       	rjmp	.-1072   	; 0x3094 <menu_motor()+0x56>
C:\Users\Ryan\Documents\GitHub\sport_main_code_2023/sport_menu.h:1079
      } else if (decrease == 0) {
    34c4:	8b e0       	ldi	r24, 0x0B	; 11
    34c6:	0e 94 e3 01 	call	0x3c6	; 0x3c6 <digitalRead>
    34ca:	89 2b       	or	r24, r25
    34cc:	09 f0       	breq	.+2      	; 0x34d0 <menu_motor()+0x492>
    34ce:	e2 cd       	rjmp	.-1084   	; 0x3094 <menu_motor()+0x56>
C:\Users\Ryan\Documents\GitHub\sport_main_code_2023/sport_menu.h:1080
        delay(50);
    34d0:	62 e3       	ldi	r22, 0x32	; 50
    34d2:	70 e0       	ldi	r23, 0x00	; 0
    34d4:	80 e0       	ldi	r24, 0x00	; 0
    34d6:	90 e0       	ldi	r25, 0x00	; 0
    34d8:	0e 94 24 03 	call	0x648	; 0x648 <delay>
C:\Users\Ryan\Documents\GitHub\sport_main_code_2023/sport_menu.h:1082

        if (arm_dropping > 300)
    34dc:	9d e2       	ldi	r25, 0x2D	; 45
    34de:	49 16       	cp	r4, r25
    34e0:	91 e0       	ldi	r25, 0x01	; 1
    34e2:	59 06       	cpc	r5, r25
    34e4:	0c f4       	brge	.+2      	; 0x34e8 <menu_motor()+0x4aa>
    34e6:	d6 cd       	rjmp	.-1108   	; 0x3094 <menu_motor()+0x56>
C:\Users\Ryan\Documents\GitHub\sport_main_code_2023/sport_menu.h:1083
          arm_dropping -= 5;
    34e8:	25 e0       	ldi	r18, 0x05	; 5
    34ea:	42 1a       	sub	r4, r18
    34ec:	51 08       	sbc	r5, r1
    34ee:	d2 cd       	rjmp	.-1116   	; 0x3094 <menu_motor()+0x56>
C:\Users\Ryan\Documents\GitHub\sport_main_code_2023/sport_menu.h:1086
      }

    } else if (page == 7)  // XL Gripper close 30 and 31
    34f0:	87 30       	cpi	r24, 0x07	; 7
    34f2:	09 f0       	breq	.+2      	; 0x34f6 <menu_motor()+0x4b8>
    34f4:	65 c0       	rjmp	.+202    	; 0x35c0 <menu_motor()+0x582>
C:\Users\Ryan\Documents\GitHub\sport_main_code_2023/sport_menu.h:1088
    {
      lcd.setCursor(0, 0);
    34f6:	60 e0       	ldi	r22, 0x00	; 0
    34f8:	80 e0       	ldi	r24, 0x00	; 0
    34fa:	0e 94 67 06 	call	0xcce	; 0xcce <LiquidCrystal::setCursor(unsigned char, unsigned char) [clone .constprop.27]>
C:\Users\Ryan\Documents\GitHub\sport_main_code_2023/sport_menu.h:1089
      lcd.printf("gripper_close %d %4d", 10, gripper_close);
    34fe:	ff 92       	push	r15
    3500:	ef 92       	push	r14
    3502:	1f 92       	push	r1
    3504:	8a e0       	ldi	r24, 0x0A	; 10
    3506:	8f 93       	push	r24
    3508:	83 ea       	ldi	r24, 0xA3	; 163
    350a:	93 e0       	ldi	r25, 0x03	; 3
    350c:	9f 93       	push	r25
    350e:	8f 93       	push	r24
    3510:	3f 92       	push	r3
    3512:	2f 92       	push	r2
    3514:	0e 94 19 09 	call	0x1232	; 0x1232 <Print::printf(char const*, ...) [clone .constprop.28]>
C:\Users\Ryan\Documents\GitHub\sport_main_code_2023/sport_menu.h:1090
      if (start == 0) {
    3518:	86 e0       	ldi	r24, 0x06	; 6
    351a:	0e 94 e3 01 	call	0x3c6	; 0x3c6 <digitalRead>
    351e:	2d b7       	in	r18, 0x3d	; 61
    3520:	3e b7       	in	r19, 0x3e	; 62
    3522:	28 5f       	subi	r18, 0xF8	; 248
    3524:	3f 4f       	sbci	r19, 0xFF	; 255
    3526:	0f b6       	in	r0, 0x3f	; 63
    3528:	f8 94       	cli
    352a:	3e bf       	out	0x3e, r19	; 62
    352c:	0f be       	out	0x3f, r0	; 63
    352e:	2d bf       	out	0x3d, r18	; 61
    3530:	89 2b       	or	r24, r25
    3532:	d9 f4       	brne	.+54     	; 0x356a <menu_motor()+0x52c>
C:\Users\Ryan\Documents\GitHub\sport_main_code_2023/sport_menu.h:1091
        EEPROM_write_int(gripper_close_address, gripper_close);
    3534:	b7 01       	movw	r22, r14
    3536:	8e ea       	ldi	r24, 0xAE	; 174
    3538:	90 e0       	ldi	r25, 0x00	; 0
    353a:	0e 94 0c 0a 	call	0x1418	; 0x1418 <EEPROM_write_int(int, int)>
C:\Users\Ryan\Documents\GitHub\sport_main_code_2023/sport_menu.h:1092
        XL_Gripper(30, gripper_close, 100);
    353e:	44 e6       	ldi	r20, 0x64	; 100
    3540:	50 e0       	ldi	r21, 0x00	; 0
    3542:	b7 01       	movw	r22, r14
    3544:	8e e1       	ldi	r24, 0x1E	; 30
    3546:	0e 94 a8 08 	call	0x1150	; 0x1150 <XL_Gripper(char, int, int)>
C:\Users\Ryan\Documents\GitHub\sport_main_code_2023/sport_menu.h:1093
        delay(50);
    354a:	62 e3       	ldi	r22, 0x32	; 50
    354c:	70 e0       	ldi	r23, 0x00	; 0
    354e:	80 e0       	ldi	r24, 0x00	; 0
    3550:	90 e0       	ldi	r25, 0x00	; 0
    3552:	0e 94 24 03 	call	0x648	; 0x648 <delay>
C:\Users\Ryan\Documents\GitHub\sport_main_code_2023/sport_menu.h:1094
        XL_Gripper(31, 1023 - gripper_close + xl_error, 100);
    3556:	44 e6       	ldi	r20, 0x64	; 100
    3558:	50 e0       	ldi	r21, 0x00	; 0
    355a:	65 e4       	ldi	r22, 0x45	; 69
    355c:	74 e0       	ldi	r23, 0x04	; 4
    355e:	6e 19       	sub	r22, r14
    3560:	7f 09       	sbc	r23, r15
C:\Users\Ryan\Documents\GitHub\sport_main_code_2023/sport_menu.h:1113
      lcd.printf("gripper_open %d %4d", 10, gripper_open);
      if (start == 0) {
        EEPROM_write_int(gripper_open_address, gripper_open);
        XL_Gripper(30, gripper_open, 100);
        delay(50);
        XL_Gripper(31, 1023 - gripper_open + xl_error, 100);
    3562:	8f e1       	ldi	r24, 0x1F	; 31
    3564:	0e 94 a8 08 	call	0x1150	; 0x1150 <XL_Gripper(char, int, int)>
    3568:	95 cd       	rjmp	.-1238   	; 0x3094 <menu_motor()+0x56>
C:\Users\Ryan\Documents\GitHub\sport_main_code_2023/sport_menu.h:1095
      if (start == 0) {
        EEPROM_write_int(gripper_close_address, gripper_close);
        XL_Gripper(30, gripper_close, 100);
        delay(50);
        XL_Gripper(31, 1023 - gripper_close + xl_error, 100);
      } else if (increase == 0) {
    356a:	8a e0       	ldi	r24, 0x0A	; 10
    356c:	0e 94 e3 01 	call	0x3c6	; 0x3c6 <digitalRead>
    3570:	89 2b       	or	r24, r25
    3572:	81 f4       	brne	.+32     	; 0x3594 <menu_motor()+0x556>
C:\Users\Ryan\Documents\GitHub\sport_main_code_2023/sport_menu.h:1096
        delay(50);
    3574:	62 e3       	ldi	r22, 0x32	; 50
    3576:	70 e0       	ldi	r23, 0x00	; 0
    3578:	80 e0       	ldi	r24, 0x00	; 0
    357a:	90 e0       	ldi	r25, 0x00	; 0
    357c:	0e 94 24 03 	call	0x648	; 0x648 <delay>
C:\Users\Ryan\Documents\GitHub\sport_main_code_2023/sport_menu.h:1097
        if (gripper_close < 890)
    3580:	3a e7       	ldi	r19, 0x7A	; 122
    3582:	e3 16       	cp	r14, r19
    3584:	33 e0       	ldi	r19, 0x03	; 3
    3586:	f3 06       	cpc	r15, r19
    3588:	0c f0       	brlt	.+2      	; 0x358c <menu_motor()+0x54e>
    358a:	84 cd       	rjmp	.-1272   	; 0x3094 <menu_motor()+0x56>
C:\Users\Ryan\Documents\GitHub\sport_main_code_2023/sport_menu.h:1098
          gripper_close += 5;
    358c:	85 e0       	ldi	r24, 0x05	; 5
    358e:	e8 0e       	add	r14, r24
    3590:	f1 1c       	adc	r15, r1
    3592:	80 cd       	rjmp	.-1280   	; 0x3094 <menu_motor()+0x56>
C:\Users\Ryan\Documents\GitHub\sport_main_code_2023/sport_menu.h:1099
      } else if (decrease == 0) {
    3594:	8b e0       	ldi	r24, 0x0B	; 11
    3596:	0e 94 e3 01 	call	0x3c6	; 0x3c6 <digitalRead>
    359a:	89 2b       	or	r24, r25
    359c:	09 f0       	breq	.+2      	; 0x35a0 <menu_motor()+0x562>
    359e:	7a cd       	rjmp	.-1292   	; 0x3094 <menu_motor()+0x56>
C:\Users\Ryan\Documents\GitHub\sport_main_code_2023/sport_menu.h:1100
        delay(50);
    35a0:	62 e3       	ldi	r22, 0x32	; 50
    35a2:	70 e0       	ldi	r23, 0x00	; 0
    35a4:	80 e0       	ldi	r24, 0x00	; 0
    35a6:	90 e0       	ldi	r25, 0x00	; 0
    35a8:	0e 94 24 03 	call	0x648	; 0x648 <delay>
C:\Users\Ryan\Documents\GitHub\sport_main_code_2023/sport_menu.h:1102

        if (gripper_close > 570)
    35ac:	9b e3       	ldi	r25, 0x3B	; 59
    35ae:	e9 16       	cp	r14, r25
    35b0:	92 e0       	ldi	r25, 0x02	; 2
    35b2:	f9 06       	cpc	r15, r25
    35b4:	0c f4       	brge	.+2      	; 0x35b8 <menu_motor()+0x57a>
    35b6:	6e cd       	rjmp	.-1316   	; 0x3094 <menu_motor()+0x56>
C:\Users\Ryan\Documents\GitHub\sport_main_code_2023/sport_menu.h:1103
          gripper_close -= 5;
    35b8:	25 e0       	ldi	r18, 0x05	; 5
    35ba:	e2 1a       	sub	r14, r18
    35bc:	f1 08       	sbc	r15, r1
    35be:	6a cd       	rjmp	.-1324   	; 0x3094 <menu_motor()+0x56>
C:\Users\Ryan\Documents\GitHub\sport_main_code_2023/sport_menu.h:1105
      }
    } else if (page == 8)  // XL Gripper open 30 and 31
    35c0:	88 30       	cpi	r24, 0x08	; 8
    35c2:	09 f0       	breq	.+2      	; 0x35c6 <menu_motor()+0x588>
    35c4:	67 cd       	rjmp	.-1330   	; 0x3094 <menu_motor()+0x56>
C:\Users\Ryan\Documents\GitHub\sport_main_code_2023/sport_menu.h:1107
    {
      lcd.setCursor(0, 0);
    35c6:	60 e0       	ldi	r22, 0x00	; 0
    35c8:	80 e0       	ldi	r24, 0x00	; 0
    35ca:	0e 94 67 06 	call	0xcce	; 0xcce <LiquidCrystal::setCursor(unsigned char, unsigned char) [clone .constprop.27]>
C:\Users\Ryan\Documents\GitHub\sport_main_code_2023/sport_menu.h:1108
      lcd.printf("gripper_open %d %4d", 10, gripper_open);
    35ce:	1f 93       	push	r17
    35d0:	0f 93       	push	r16
    35d2:	1f 92       	push	r1
    35d4:	8a e0       	ldi	r24, 0x0A	; 10
    35d6:	8f 93       	push	r24
    35d8:	88 eb       	ldi	r24, 0xB8	; 184
    35da:	93 e0       	ldi	r25, 0x03	; 3
    35dc:	9f 93       	push	r25
    35de:	8f 93       	push	r24
    35e0:	3f 92       	push	r3
    35e2:	2f 92       	push	r2
    35e4:	0e 94 19 09 	call	0x1232	; 0x1232 <Print::printf(char const*, ...) [clone .constprop.28]>
C:\Users\Ryan\Documents\GitHub\sport_main_code_2023/sport_menu.h:1109
      if (start == 0) {
    35e8:	86 e0       	ldi	r24, 0x06	; 6
    35ea:	0e 94 e3 01 	call	0x3c6	; 0x3c6 <digitalRead>
    35ee:	2d b7       	in	r18, 0x3d	; 61
    35f0:	3e b7       	in	r19, 0x3e	; 62
    35f2:	28 5f       	subi	r18, 0xF8	; 248
    35f4:	3f 4f       	sbci	r19, 0xFF	; 255
    35f6:	0f b6       	in	r0, 0x3f	; 63
    35f8:	f8 94       	cli
    35fa:	3e bf       	out	0x3e, r19	; 62
    35fc:	0f be       	out	0x3f, r0	; 63
    35fe:	2d bf       	out	0x3d, r18	; 61
    3600:	89 2b       	or	r24, r25
    3602:	c1 f4       	brne	.+48     	; 0x3634 <menu_motor()+0x5f6>
C:\Users\Ryan\Documents\GitHub\sport_main_code_2023/sport_menu.h:1110
        EEPROM_write_int(gripper_open_address, gripper_open);
    3604:	b8 01       	movw	r22, r16
    3606:	80 eb       	ldi	r24, 0xB0	; 176
    3608:	90 e0       	ldi	r25, 0x00	; 0
    360a:	0e 94 0c 0a 	call	0x1418	; 0x1418 <EEPROM_write_int(int, int)>
C:\Users\Ryan\Documents\GitHub\sport_main_code_2023/sport_menu.h:1111
        XL_Gripper(30, gripper_open, 100);
    360e:	44 e6       	ldi	r20, 0x64	; 100
    3610:	50 e0       	ldi	r21, 0x00	; 0
    3612:	b8 01       	movw	r22, r16
    3614:	8e e1       	ldi	r24, 0x1E	; 30
    3616:	0e 94 a8 08 	call	0x1150	; 0x1150 <XL_Gripper(char, int, int)>
C:\Users\Ryan\Documents\GitHub\sport_main_code_2023/sport_menu.h:1112
        delay(50);
    361a:	62 e3       	ldi	r22, 0x32	; 50
    361c:	70 e0       	ldi	r23, 0x00	; 0
    361e:	80 e0       	ldi	r24, 0x00	; 0
    3620:	90 e0       	ldi	r25, 0x00	; 0
    3622:	0e 94 24 03 	call	0x648	; 0x648 <delay>
C:\Users\Ryan\Documents\GitHub\sport_main_code_2023/sport_menu.h:1113
        XL_Gripper(31, 1023 - gripper_open + xl_error, 100);
    3626:	44 e6       	ldi	r20, 0x64	; 100
    3628:	50 e0       	ldi	r21, 0x00	; 0
    362a:	65 e4       	ldi	r22, 0x45	; 69
    362c:	74 e0       	ldi	r23, 0x04	; 4
    362e:	60 1b       	sub	r22, r16
    3630:	71 0b       	sbc	r23, r17
    3632:	97 cf       	rjmp	.-210    	; 0x3562 <menu_motor()+0x524>
C:\Users\Ryan\Documents\GitHub\sport_main_code_2023/sport_menu.h:1114
      } else if (increase == 0) {
    3634:	8a e0       	ldi	r24, 0x0A	; 10
    3636:	0e 94 e3 01 	call	0x3c6	; 0x3c6 <digitalRead>
    363a:	89 2b       	or	r24, r25
    363c:	71 f4       	brne	.+28     	; 0x365a <menu_motor()+0x61c>
C:\Users\Ryan\Documents\GitHub\sport_main_code_2023/sport_menu.h:1115
        delay(50);
    363e:	62 e3       	ldi	r22, 0x32	; 50
    3640:	70 e0       	ldi	r23, 0x00	; 0
    3642:	80 e0       	ldi	r24, 0x00	; 0
    3644:	90 e0       	ldi	r25, 0x00	; 0
    3646:	0e 94 24 03 	call	0x648	; 0x648 <delay>
C:\Users\Ryan\Documents\GitHub\sport_main_code_2023/sport_menu.h:1116
        if (gripper_open < 890)
    364a:	0a 37       	cpi	r16, 0x7A	; 122
    364c:	33 e0       	ldi	r19, 0x03	; 3
    364e:	13 07       	cpc	r17, r19
    3650:	0c f0       	brlt	.+2      	; 0x3654 <menu_motor()+0x616>
    3652:	20 cd       	rjmp	.-1472   	; 0x3094 <menu_motor()+0x56>
C:\Users\Ryan\Documents\GitHub\sport_main_code_2023/sport_menu.h:1117
          gripper_open += 5;
    3654:	0b 5f       	subi	r16, 0xFB	; 251
    3656:	1f 4f       	sbci	r17, 0xFF	; 255
    3658:	1d cd       	rjmp	.-1478   	; 0x3094 <menu_motor()+0x56>
C:\Users\Ryan\Documents\GitHub\sport_main_code_2023/sport_menu.h:1118
      } else if (decrease == 0) {
    365a:	8b e0       	ldi	r24, 0x0B	; 11
    365c:	0e 94 e3 01 	call	0x3c6	; 0x3c6 <digitalRead>
    3660:	89 2b       	or	r24, r25
    3662:	09 f0       	breq	.+2      	; 0x3666 <menu_motor()+0x628>
    3664:	17 cd       	rjmp	.-1490   	; 0x3094 <menu_motor()+0x56>
C:\Users\Ryan\Documents\GitHub\sport_main_code_2023/sport_menu.h:1119
        delay(50);
    3666:	62 e3       	ldi	r22, 0x32	; 50
    3668:	70 e0       	ldi	r23, 0x00	; 0
    366a:	80 e0       	ldi	r24, 0x00	; 0
    366c:	90 e0       	ldi	r25, 0x00	; 0
    366e:	0e 94 24 03 	call	0x648	; 0x648 <delay>
C:\Users\Ryan\Documents\GitHub\sport_main_code_2023/sport_menu.h:1121

        if (gripper_open > 570)
    3672:	0b 33       	cpi	r16, 0x3B	; 59
    3674:	82 e0       	ldi	r24, 0x02	; 2
    3676:	18 07       	cpc	r17, r24
    3678:	0c f4       	brge	.+2      	; 0x367c <menu_motor()+0x63e>
    367a:	0c cd       	rjmp	.-1512   	; 0x3094 <menu_motor()+0x56>
C:\Users\Ryan\Documents\GitHub\sport_main_code_2023/sport_menu.h:1122
          gripper_open -= 5;
    367c:	05 50       	subi	r16, 0x05	; 5
    367e:	11 09       	sbc	r17, r1
    3680:	09 cd       	rjmp	.-1518   	; 0x3094 <menu_motor()+0x56>

00003682 <menu_color()>:
menu_color():
C:\Users\Ryan\Documents\GitHub\sport_main_code_2023/sport_menu.h:1130
  }
}

void menu_color(void) {
  static char page = 1, last_page = 8;
  lcd.clear();
    3682:	0e 94 bf 05 	call	0xb7e	; 0xb7e <LiquidCrystal::clear() [clone .constprop.38]>
C:\Users\Ryan\Documents\GitHub\sport_main_code_2023/sport_menu.h:1311
      lcd.print("APDS Front: ");
      lcd.setCursor(0, 1);
      lcd.print("  RED  GRN  BLU ");

      lcd.setCursor(0, 2);
      lcd.printf(" %4d %4d %4d %4d", red, green, blue, clear);
    3686:	85 e0       	ldi	r24, 0x05	; 5
    3688:	88 2e       	mov	r8, r24
    368a:	84 e0       	ldi	r24, 0x04	; 4
    368c:	98 2e       	mov	r9, r24
    368e:	cf eb       	ldi	r28, 0xBF	; 191
    3690:	da e0       	ldi	r29, 0x0A	; 10
C:\Users\Ryan\Documents\GitHub\sport_main_code_2023/sport_menu.h:1323
        lcd.printf("M%4d %4d %4d %4d ", EEPROM_read_int(red_front_r), EEPROM_read_int(red_front_g), EEPROM_read_int(red_front_b), EEPROM_read_int(red_front_c));
      } else if (color_F == GREEN) {
        lcd.setCursor(12, 0);
        lcd.print("GRN ");
        lcd.setCursor(0, 3);
        lcd.printf("M%4d %4d %4d %4d ", EEPROM_read_int(green_front_r), EEPROM_read_int(green_front_g), EEPROM_read_int(green_front_b), EEPROM_read_int(green_front_c));
    3692:	99 e8       	ldi	r25, 0x89	; 137
    3694:	e9 2e       	mov	r14, r25
    3696:	94 e0       	ldi	r25, 0x04	; 4
    3698:	f9 2e       	mov	r15, r25
C:\Users\Ryan\Documents\GitHub\sport_main_code_2023/sport_menu.h:1286

      lcd.setCursor(0, 1);
      lcd.print("  RED  GRN  BLU ");

      lcd.setCursor(0, 2);
      lcd.printf("L%4d %4d %4d ", EEPROM_read_int(yellow_left_r), EEPROM_read_int(yellow_left_g), EEPROM_read_int(yellow_left_b));
    369a:	2b ec       	ldi	r18, 0xCB	; 203
    369c:	c2 2e       	mov	r12, r18
    369e:	24 e0       	ldi	r18, 0x04	; 4
    36a0:	d2 2e       	mov	r13, r18
C:\Users\Ryan\Documents\GitHub\sport_main_code_2023/sport_menu.h:1289

      lcd.setCursor(0, 3);
      lcd.printf("R%4d %4d %4d ", EEPROM_read_int(yellow_right_r), EEPROM_read_int(yellow_right_g), EEPROM_read_int(yellow_right_b));
    36a2:	39 ed       	ldi	r19, 0xD9	; 217
    36a4:	a3 2e       	mov	r10, r19
    36a6:	34 e0       	ldi	r19, 0x04	; 4
    36a8:	b3 2e       	mov	r11, r19
C:\Users\Ryan\Documents\GitHub\sport_main_code_2023/sport_menu.h:1231
        lcd.printf("M%4d %4d %4d ", EEPROM_read_int(yellow_right_r), EEPROM_read_int(yellow_right_g), EEPROM_read_int(yellow_right_b), EEPROM_read_int(yellow_right_c));
      } else if (color_R == SILVER) {
        lcd.setCursor(12, 0);
        lcd.print("SIL ");
        lcd.setCursor(0, 3);
        lcd.printf("M%4d %4d %4d %4d", EEPROM_read_int(silver_right_r), EEPROM_read_int(silver_right_g), EEPROM_read_int(silver_right_b), EEPROM_read_int(silver_right_c));
    36aa:	0d e1       	ldi	r16, 0x1D	; 29
    36ac:	14 e0       	ldi	r17, 0x04	; 4
C:\Users\Ryan\Documents\GitHub\sport_main_code_2023/sport_menu.h:1132

void menu_color(void) {
  static char page = 1, last_page = 8;
  lcd.clear();
  while (1) {
    if (next_page == 0) {
    36ae:	88 e0       	ldi	r24, 0x08	; 8
    36b0:	0e 94 e3 01 	call	0x3c6	; 0x3c6 <digitalRead>
    36b4:	89 2b       	or	r24, r25
    36b6:	79 f4       	brne	.+30     	; 0x36d6 <menu_color()+0x54>
C:\Users\Ryan\Documents\GitHub\sport_main_code_2023/sport_menu.h:1133
      while (next_page == 0)
    36b8:	88 e0       	ldi	r24, 0x08	; 8
    36ba:	0e 94 e3 01 	call	0x3c6	; 0x3c6 <digitalRead>
    36be:	89 2b       	or	r24, r25
    36c0:	d9 f3       	breq	.-10     	; 0x36b8 <menu_color()+0x36>
C:\Users\Ryan\Documents\GitHub\sport_main_code_2023/sport_menu.h:1135
        ;
      page++;
    36c2:	80 91 01 01 	lds	r24, 0x0101	; 0x800101 <menu_color()::page>
    36c6:	8f 5f       	subi	r24, 0xFF	; 255
C:\Users\Ryan\Documents\GitHub\sport_main_code_2023/sport_menu.h:1136
      if (page > last_page)
    36c8:	89 30       	cpi	r24, 0x09	; 9
    36ca:	0c f0       	brlt	.+2      	; 0x36ce <menu_color()+0x4c>
    36cc:	a8 c0       	rjmp	.+336    	; 0x381e <menu_color()+0x19c>
C:\Users\Ryan\Documents\GitHub\sport_main_code_2023/sport_menu.h:1135
  lcd.clear();
  while (1) {
    if (next_page == 0) {
      while (next_page == 0)
        ;
      page++;
    36ce:	80 93 01 01 	sts	0x0101, r24	; 0x800101 <menu_color()::page>
C:\Users\Ryan\Documents\GitHub\sport_main_code_2023/sport_menu.h:1138
      if (page > last_page)
        page = 1;
      lcd.clear();
    36d2:	0e 94 bf 05 	call	0xb7e	; 0xb7e <LiquidCrystal::clear() [clone .constprop.38]>
C:\Users\Ryan\Documents\GitHub\sport_main_code_2023/sport_menu.h:1140
    }
    if (previuse_page == 0) {
    36d6:	89 e0       	ldi	r24, 0x09	; 9
    36d8:	0e 94 e3 01 	call	0x3c6	; 0x3c6 <digitalRead>
    36dc:	89 2b       	or	r24, r25
    36de:	71 f4       	brne	.+28     	; 0x36fc <menu_color()+0x7a>
C:\Users\Ryan\Documents\GitHub\sport_main_code_2023/sport_menu.h:1141
      while (previuse_page == 0)
    36e0:	89 e0       	ldi	r24, 0x09	; 9
    36e2:	0e 94 e3 01 	call	0x3c6	; 0x3c6 <digitalRead>
    36e6:	89 2b       	or	r24, r25
    36e8:	d9 f3       	breq	.-10     	; 0x36e0 <menu_color()+0x5e>
C:\Users\Ryan\Documents\GitHub\sport_main_code_2023/sport_menu.h:1143
        ;
      page--;
    36ea:	80 91 01 01 	lds	r24, 0x0101	; 0x800101 <menu_color()::page>
    36ee:	81 50       	subi	r24, 0x01	; 1
C:\Users\Ryan\Documents\GitHub\sport_main_code_2023/sport_menu.h:1144
      if (page == 0)
    36f0:	09 f4       	brne	.+2      	; 0x36f4 <menu_color()+0x72>
    36f2:	99 c0       	rjmp	.+306    	; 0x3826 <menu_color()+0x1a4>
C:\Users\Ryan\Documents\GitHub\sport_main_code_2023/sport_menu.h:1145
        page = last_page;
    36f4:	80 93 01 01 	sts	0x0101, r24	; 0x800101 <menu_color()::page>
C:\Users\Ryan\Documents\GitHub\sport_main_code_2023/sport_menu.h:1146
      lcd.clear();
    36f8:	0e 94 bf 05 	call	0xb7e	; 0xb7e <LiquidCrystal::clear() [clone .constprop.38]>
C:\Users\Ryan\Documents\GitHub\sport_main_code_2023/sport_menu.h:1148
    }
    if (increase == 0)
    36fc:	8a e0       	ldi	r24, 0x0A	; 10
    36fe:	0e 94 e3 01 	call	0x3c6	; 0x3c6 <digitalRead>
    3702:	89 2b       	or	r24, r25
    3704:	09 f0       	breq	.+2      	; 0x3708 <menu_color()+0x86>
    3706:	91 c0       	rjmp	.+290    	; 0x382a <menu_color()+0x1a8>
C:\Users\Ryan\Documents\GitHub\sport_main_code_2023/sport_menu.h:1149
      go(40, 40);
    3708:	68 e2       	ldi	r22, 0x28	; 40
    370a:	70 e0       	ldi	r23, 0x00	; 0
    370c:	88 e2       	ldi	r24, 0x28	; 40
    370e:	90 e0       	ldi	r25, 0x00	; 0
C:\Users\Ryan\Documents\GitHub\sport_main_code_2023/sport_menu.h:1153
    else if (decrease == 0)
      go(-40, -40);
    else
      go(0, 0);
    3710:	0e 94 d0 06 	call	0xda0	; 0xda0 <go(int, int)>
C:\Users\Ryan\Documents\GitHub\sport_main_code_2023/sport_menu.h:1155

    if (page == 1) {
    3714:	80 91 01 01 	lds	r24, 0x0101	; 0x800101 <menu_color()::page>
    3718:	81 30       	cpi	r24, 0x01	; 1
    371a:	09 f0       	breq	.+2      	; 0x371e <menu_color()+0x9c>
    371c:	a8 c1       	rjmp	.+848    	; 0x3a6e <menu_color()+0x3ec>
C:\Users\Ryan\Documents\GitHub\sport_main_code_2023/sport_menu.h:1156
      lcd.setCursor(0, 0);
    371e:	60 e0       	ldi	r22, 0x00	; 0
    3720:	80 e0       	ldi	r24, 0x00	; 0
    3722:	0e 94 67 06 	call	0xcce	; 0xcce <LiquidCrystal::setCursor(unsigned char, unsigned char) [clone .constprop.27]>
C:\Users\Ryan\Documents\GitHub\sport_main_code_2023/sport_menu.h:1157
      lcd.print("APDS left: ");
    3726:	84 ee       	ldi	r24, 0xE4	; 228
    3728:	93 e0       	ldi	r25, 0x03	; 3
    372a:	0e 94 ff 09 	call	0x13fe	; 0x13fe <Print::print(char const*) [clone .constprop.9]>
C:\Users\Ryan\Documents\GitHub\sport_main_code_2023/sport_menu.h:1159

      lcd.setCursor(0, 1);
    372e:	61 e0       	ldi	r22, 0x01	; 1
    3730:	80 e0       	ldi	r24, 0x00	; 0
    3732:	0e 94 67 06 	call	0xcce	; 0xcce <LiquidCrystal::setCursor(unsigned char, unsigned char) [clone .constprop.27]>
C:\Users\Ryan\Documents\GitHub\sport_main_code_2023/sport_menu.h:1160
      lcd.print("  RED  GRN  BLU  CLR");
    3736:	80 ef       	ldi	r24, 0xF0	; 240
    3738:	93 e0       	ldi	r25, 0x03	; 3
    373a:	0e 94 ff 09 	call	0x13fe	; 0x13fe <Print::print(char const*) [clone .constprop.9]>
C:\Users\Ryan\Documents\GitHub\sport_main_code_2023/sport_menu.h:1162

      lcd.setCursor(0, 2);
    373e:	62 e0       	ldi	r22, 0x02	; 2
    3740:	80 e0       	ldi	r24, 0x00	; 0
    3742:	0e 94 67 06 	call	0xcce	; 0xcce <LiquidCrystal::setCursor(unsigned char, unsigned char) [clone .constprop.27]>
C:\Users\Ryan\Documents\GitHub\sport_main_code_2023/sport_menu.h:1163
      lcd.printf(" %4d %4d %4d %4d", red, green, blue, clear);
    3746:	80 91 c6 08 	lds	r24, 0x08C6	; 0x8008c6 <clear+0x1>
    374a:	8f 93       	push	r24
    374c:	80 91 c5 08 	lds	r24, 0x08C5	; 0x8008c5 <clear>
    3750:	8f 93       	push	r24
    3752:	80 91 c8 08 	lds	r24, 0x08C8	; 0x8008c8 <blue+0x1>
    3756:	8f 93       	push	r24
    3758:	80 91 c7 08 	lds	r24, 0x08C7	; 0x8008c7 <blue>
    375c:	8f 93       	push	r24
    375e:	80 91 ca 08 	lds	r24, 0x08CA	; 0x8008ca <green+0x1>
    3762:	8f 93       	push	r24
    3764:	80 91 c9 08 	lds	r24, 0x08C9	; 0x8008c9 <green>
    3768:	8f 93       	push	r24
    376a:	80 91 cc 08 	lds	r24, 0x08CC	; 0x8008cc <red+0x1>
    376e:	8f 93       	push	r24
    3770:	80 91 cb 08 	lds	r24, 0x08CB	; 0x8008cb <red>
    3774:	8f 93       	push	r24
    3776:	9f 92       	push	r9
    3778:	8f 92       	push	r8
    377a:	df 93       	push	r29
    377c:	cf 93       	push	r28
    377e:	0e 94 19 09 	call	0x1232	; 0x1232 <Print::printf(char const*, ...) [clone .constprop.28]>
C:\Users\Ryan\Documents\GitHub\sport_main_code_2023/sport_menu.h:1164
      delay(100);
    3782:	64 e6       	ldi	r22, 0x64	; 100
    3784:	70 e0       	ldi	r23, 0x00	; 0
    3786:	80 e0       	ldi	r24, 0x00	; 0
    3788:	90 e0       	ldi	r25, 0x00	; 0
    378a:	0e 94 24 03 	call	0x648	; 0x648 <delay>
C:\Users\Ryan\Documents\GitHub\sport_main_code_2023/sport_menu.h:1165
      if (color_L == RED) {
    378e:	81 e0       	ldi	r24, 0x01	; 1
    3790:	0e 94 32 0a 	call	0x1464	; 0x1464 <color(char)>
    3794:	2d b7       	in	r18, 0x3d	; 61
    3796:	3e b7       	in	r19, 0x3e	; 62
    3798:	24 5f       	subi	r18, 0xF4	; 244
    379a:	3f 4f       	sbci	r19, 0xFF	; 255
    379c:	0f b6       	in	r0, 0x3f	; 63
    379e:	f8 94       	cli
    37a0:	3e bf       	out	0x3e, r19	; 62
    37a2:	0f be       	out	0x3f, r0	; 63
    37a4:	2d bf       	out	0x3d, r18	; 61
    37a6:	81 11       	cpse	r24, r1
    37a8:	4f c0       	rjmp	.+158    	; 0x3848 <menu_color()+0x1c6>
C:\Users\Ryan\Documents\GitHub\sport_main_code_2023/sport_menu.h:1166
        lcd.setCursor(12, 0);
    37aa:	60 e0       	ldi	r22, 0x00	; 0
    37ac:	8c e0       	ldi	r24, 0x0C	; 12
    37ae:	0e 94 67 06 	call	0xcce	; 0xcce <LiquidCrystal::setCursor(unsigned char, unsigned char) [clone .constprop.27]>
C:\Users\Ryan\Documents\GitHub\sport_main_code_2023/sport_menu.h:1167
        lcd.print("RED   ");
    37b2:	86 e1       	ldi	r24, 0x16	; 22
    37b4:	94 e0       	ldi	r25, 0x04	; 4
    37b6:	0e 94 ff 09 	call	0x13fe	; 0x13fe <Print::print(char const*) [clone .constprop.9]>
C:\Users\Ryan\Documents\GitHub\sport_main_code_2023/sport_menu.h:1168
        lcd.setCursor(0, 3);
    37ba:	63 e0       	ldi	r22, 0x03	; 3
    37bc:	80 e0       	ldi	r24, 0x00	; 0
    37be:	0e 94 67 06 	call	0xcce	; 0xcce <LiquidCrystal::setCursor(unsigned char, unsigned char) [clone .constprop.27]>
C:\Users\Ryan\Documents\GitHub\sport_main_code_2023/sport_menu.h:1169
        lcd.printf("M%4d %4d %4d %4d", EEPROM_read_int(red_left_r), EEPROM_read_int(red_left_g), EEPROM_read_int(red_left_b), EEPROM_read_int(red_left_c));
    37c2:	8a e1       	ldi	r24, 0x1A	; 26
    37c4:	90 e0       	ldi	r25, 0x00	; 0
    37c6:	0e 94 1c 0a 	call	0x1438	; 0x1438 <EEPROM_read_int(int)>
    37ca:	38 2e       	mov	r3, r24
    37cc:	29 2e       	mov	r2, r25
    37ce:	88 e1       	ldi	r24, 0x18	; 24
    37d0:	90 e0       	ldi	r25, 0x00	; 0
    37d2:	0e 94 1c 0a 	call	0x1438	; 0x1438 <EEPROM_read_int(int)>
    37d6:	58 2e       	mov	r5, r24
    37d8:	49 2e       	mov	r4, r25
    37da:	86 e1       	ldi	r24, 0x16	; 22
    37dc:	90 e0       	ldi	r25, 0x00	; 0
    37de:	0e 94 1c 0a 	call	0x1438	; 0x1438 <EEPROM_read_int(int)>
    37e2:	78 2e       	mov	r7, r24
    37e4:	69 2e       	mov	r6, r25
    37e6:	84 e1       	ldi	r24, 0x14	; 20
    37e8:	90 e0       	ldi	r25, 0x00	; 0
    37ea:	0e 94 1c 0a 	call	0x1438	; 0x1438 <EEPROM_read_int(int)>
    37ee:	2f 92       	push	r2
    37f0:	3f 92       	push	r3
    37f2:	4f 92       	push	r4
    37f4:	5f 92       	push	r5
    37f6:	6f 92       	push	r6
    37f8:	7f 92       	push	r7
    37fa:	9f 93       	push	r25
    37fc:	8f 93       	push	r24
    37fe:	1f 93       	push	r17
    3800:	0f 93       	push	r16
    3802:	df 93       	push	r29
    3804:	cf 93       	push	r28
    3806:	0e 94 19 09 	call	0x1232	; 0x1232 <Print::printf(char const*, ...) [clone .constprop.28]>
    380a:	2d b7       	in	r18, 0x3d	; 61
    380c:	3e b7       	in	r19, 0x3e	; 62
    380e:	24 5f       	subi	r18, 0xF4	; 244
    3810:	3f 4f       	sbci	r19, 0xFF	; 255
    3812:	0f b6       	in	r0, 0x3f	; 63
    3814:	f8 94       	cli
    3816:	3e bf       	out	0x3e, r19	; 62
    3818:	0f be       	out	0x3f, r0	; 63
    381a:	2d bf       	out	0x3d, r18	; 61
    381c:	48 cf       	rjmp	.-368    	; 0x36ae <menu_color()+0x2c>
C:\Users\Ryan\Documents\GitHub\sport_main_code_2023/sport_menu.h:1137
    if (next_page == 0) {
      while (next_page == 0)
        ;
      page++;
      if (page > last_page)
        page = 1;
    381e:	21 e0       	ldi	r18, 0x01	; 1
    3820:	20 93 01 01 	sts	0x0101, r18	; 0x800101 <menu_color()::page>
    3824:	56 cf       	rjmp	.-340    	; 0x36d2 <menu_color()+0x50>
C:\Users\Ryan\Documents\GitHub\sport_main_code_2023/sport_menu.h:1145
    if (previuse_page == 0) {
      while (previuse_page == 0)
        ;
      page--;
      if (page == 0)
        page = last_page;
    3826:	88 e0       	ldi	r24, 0x08	; 8
    3828:	65 cf       	rjmp	.-310    	; 0x36f4 <menu_color()+0x72>
C:\Users\Ryan\Documents\GitHub\sport_main_code_2023/sport_menu.h:1150
      lcd.clear();
    }
    if (increase == 0)
      go(40, 40);
    else if (decrease == 0)
    382a:	8b e0       	ldi	r24, 0x0B	; 11
    382c:	0e 94 e3 01 	call	0x3c6	; 0x3c6 <digitalRead>
    3830:	89 2b       	or	r24, r25
    3832:	29 f4       	brne	.+10     	; 0x383e <menu_color()+0x1bc>
C:\Users\Ryan\Documents\GitHub\sport_main_code_2023/sport_menu.h:1151
      go(-40, -40);
    3834:	68 ed       	ldi	r22, 0xD8	; 216
    3836:	7f ef       	ldi	r23, 0xFF	; 255
    3838:	88 ed       	ldi	r24, 0xD8	; 216
    383a:	9f ef       	ldi	r25, 0xFF	; 255
    383c:	69 cf       	rjmp	.-302    	; 0x3710 <menu_color()+0x8e>
C:\Users\Ryan\Documents\GitHub\sport_main_code_2023/sport_menu.h:1153
    else
      go(0, 0);
    383e:	70 e0       	ldi	r23, 0x00	; 0
    3840:	60 e0       	ldi	r22, 0x00	; 0
    3842:	90 e0       	ldi	r25, 0x00	; 0
    3844:	80 e0       	ldi	r24, 0x00	; 0
    3846:	64 cf       	rjmp	.-312    	; 0x3710 <menu_color()+0x8e>
C:\Users\Ryan\Documents\GitHub\sport_main_code_2023/sport_menu.h:1170
      if (color_L == RED) {
        lcd.setCursor(12, 0);
        lcd.print("RED   ");
        lcd.setCursor(0, 3);
        lcd.printf("M%4d %4d %4d %4d", EEPROM_read_int(red_left_r), EEPROM_read_int(red_left_g), EEPROM_read_int(red_left_b), EEPROM_read_int(red_left_c));
      } else if (color_L == GREEN) {
    3848:	81 e0       	ldi	r24, 0x01	; 1
    384a:	0e 94 32 0a 	call	0x1464	; 0x1464 <color(char)>
    384e:	81 30       	cpi	r24, 0x01	; 1
    3850:	d1 f5       	brne	.+116    	; 0x38c6 <menu_color()+0x244>
C:\Users\Ryan\Documents\GitHub\sport_main_code_2023/sport_menu.h:1171
        lcd.setCursor(12, 0);
    3852:	60 e0       	ldi	r22, 0x00	; 0
    3854:	8c e0       	ldi	r24, 0x0C	; 12
    3856:	0e 94 67 06 	call	0xcce	; 0xcce <LiquidCrystal::setCursor(unsigned char, unsigned char) [clone .constprop.27]>
C:\Users\Ryan\Documents\GitHub\sport_main_code_2023/sport_menu.h:1172
        lcd.print("GREEN ");
    385a:	8e e2       	ldi	r24, 0x2E	; 46
    385c:	94 e0       	ldi	r25, 0x04	; 4
    385e:	0e 94 ff 09 	call	0x13fe	; 0x13fe <Print::print(char const*) [clone .constprop.9]>
C:\Users\Ryan\Documents\GitHub\sport_main_code_2023/sport_menu.h:1173
        lcd.setCursor(0, 3);
    3862:	63 e0       	ldi	r22, 0x03	; 3
    3864:	80 e0       	ldi	r24, 0x00	; 0
    3866:	0e 94 67 06 	call	0xcce	; 0xcce <LiquidCrystal::setCursor(unsigned char, unsigned char) [clone .constprop.27]>
C:\Users\Ryan\Documents\GitHub\sport_main_code_2023/sport_menu.h:1174
        lcd.printf("M%4d %4d %4d %4d", EEPROM_read_int(green_left_r), EEPROM_read_int(green_left_g), EEPROM_read_int(green_left_b), EEPROM_read_int(green_left_c));
    386a:	82 e2       	ldi	r24, 0x22	; 34
    386c:	90 e0       	ldi	r25, 0x00	; 0
    386e:	0e 94 1c 0a 	call	0x1438	; 0x1438 <EEPROM_read_int(int)>
    3872:	38 2e       	mov	r3, r24
    3874:	29 2e       	mov	r2, r25
    3876:	80 e2       	ldi	r24, 0x20	; 32
    3878:	90 e0       	ldi	r25, 0x00	; 0
    387a:	0e 94 1c 0a 	call	0x1438	; 0x1438 <EEPROM_read_int(int)>
    387e:	58 2e       	mov	r5, r24
    3880:	49 2e       	mov	r4, r25
    3882:	8e e1       	ldi	r24, 0x1E	; 30
    3884:	90 e0       	ldi	r25, 0x00	; 0
    3886:	0e 94 1c 0a 	call	0x1438	; 0x1438 <EEPROM_read_int(int)>
    388a:	78 2e       	mov	r7, r24
    388c:	69 2e       	mov	r6, r25
    388e:	8c e1       	ldi	r24, 0x1C	; 28
    3890:	90 e0       	ldi	r25, 0x00	; 0
    3892:	0e 94 1c 0a 	call	0x1438	; 0x1438 <EEPROM_read_int(int)>
    3896:	2f 92       	push	r2
    3898:	3f 92       	push	r3
    389a:	4f 92       	push	r4
    389c:	5f 92       	push	r5
    389e:	6f 92       	push	r6
    38a0:	7f 92       	push	r7
    38a2:	9f 93       	push	r25
    38a4:	8f 93       	push	r24
    38a6:	1f 93       	push	r17
    38a8:	0f 93       	push	r16
    38aa:	df 93       	push	r29
    38ac:	cf 93       	push	r28
    38ae:	0e 94 19 09 	call	0x1232	; 0x1232 <Print::printf(char const*, ...) [clone .constprop.28]>
    38b2:	2d b7       	in	r18, 0x3d	; 61
    38b4:	3e b7       	in	r19, 0x3e	; 62
    38b6:	24 5f       	subi	r18, 0xF4	; 244
    38b8:	3f 4f       	sbci	r19, 0xFF	; 255
    38ba:	0f b6       	in	r0, 0x3f	; 63
    38bc:	f8 94       	cli
    38be:	3e bf       	out	0x3e, r19	; 62
    38c0:	0f be       	out	0x3f, r0	; 63
    38c2:	2d bf       	out	0x3d, r18	; 61
    38c4:	f4 ce       	rjmp	.-536    	; 0x36ae <menu_color()+0x2c>
C:\Users\Ryan\Documents\GitHub\sport_main_code_2023/sport_menu.h:1175
      } else if (color_L == BLUE) {
    38c6:	81 e0       	ldi	r24, 0x01	; 1
    38c8:	0e 94 32 0a 	call	0x1464	; 0x1464 <color(char)>
    38cc:	82 30       	cpi	r24, 0x02	; 2
    38ce:	d1 f5       	brne	.+116    	; 0x3944 <menu_color()+0x2c2>
C:\Users\Ryan\Documents\GitHub\sport_main_code_2023/sport_menu.h:1176
        lcd.setCursor(12, 0);
    38d0:	60 e0       	ldi	r22, 0x00	; 0
    38d2:	8c e0       	ldi	r24, 0x0C	; 12
    38d4:	0e 94 67 06 	call	0xcce	; 0xcce <LiquidCrystal::setCursor(unsigned char, unsigned char) [clone .constprop.27]>
C:\Users\Ryan\Documents\GitHub\sport_main_code_2023/sport_menu.h:1177
        lcd.print("BLUE  ");
    38d8:	85 e3       	ldi	r24, 0x35	; 53
    38da:	94 e0       	ldi	r25, 0x04	; 4
    38dc:	0e 94 ff 09 	call	0x13fe	; 0x13fe <Print::print(char const*) [clone .constprop.9]>
C:\Users\Ryan\Documents\GitHub\sport_main_code_2023/sport_menu.h:1178
        lcd.setCursor(0, 3);
    38e0:	63 e0       	ldi	r22, 0x03	; 3
    38e2:	80 e0       	ldi	r24, 0x00	; 0
    38e4:	0e 94 67 06 	call	0xcce	; 0xcce <LiquidCrystal::setCursor(unsigned char, unsigned char) [clone .constprop.27]>
C:\Users\Ryan\Documents\GitHub\sport_main_code_2023/sport_menu.h:1179
        lcd.printf("M%4d %4d %4d %4d", EEPROM_read_int(blue_left_r), EEPROM_read_int(blue_left_g), EEPROM_read_int(blue_left_b), EEPROM_read_int(blue_left_c));
    38e8:	8a e2       	ldi	r24, 0x2A	; 42
    38ea:	90 e0       	ldi	r25, 0x00	; 0
    38ec:	0e 94 1c 0a 	call	0x1438	; 0x1438 <EEPROM_read_int(int)>
    38f0:	38 2e       	mov	r3, r24
    38f2:	29 2e       	mov	r2, r25
    38f4:	88 e2       	ldi	r24, 0x28	; 40
    38f6:	90 e0       	ldi	r25, 0x00	; 0
    38f8:	0e 94 1c 0a 	call	0x1438	; 0x1438 <EEPROM_read_int(int)>
    38fc:	58 2e       	mov	r5, r24
    38fe:	49 2e       	mov	r4, r25
    3900:	86 e2       	ldi	r24, 0x26	; 38
    3902:	90 e0       	ldi	r25, 0x00	; 0
    3904:	0e 94 1c 0a 	call	0x1438	; 0x1438 <EEPROM_read_int(int)>
    3908:	78 2e       	mov	r7, r24
    390a:	69 2e       	mov	r6, r25
    390c:	84 e2       	ldi	r24, 0x24	; 36
    390e:	90 e0       	ldi	r25, 0x00	; 0
    3910:	0e 94 1c 0a 	call	0x1438	; 0x1438 <EEPROM_read_int(int)>
    3914:	2f 92       	push	r2
    3916:	3f 92       	push	r3
    3918:	4f 92       	push	r4
    391a:	5f 92       	push	r5
    391c:	6f 92       	push	r6
    391e:	7f 92       	push	r7
    3920:	9f 93       	push	r25
    3922:	8f 93       	push	r24
    3924:	1f 93       	push	r17
    3926:	0f 93       	push	r16
    3928:	df 93       	push	r29
    392a:	cf 93       	push	r28
    392c:	0e 94 19 09 	call	0x1232	; 0x1232 <Print::printf(char const*, ...) [clone .constprop.28]>
    3930:	2d b7       	in	r18, 0x3d	; 61
    3932:	3e b7       	in	r19, 0x3e	; 62
    3934:	24 5f       	subi	r18, 0xF4	; 244
    3936:	3f 4f       	sbci	r19, 0xFF	; 255
    3938:	0f b6       	in	r0, 0x3f	; 63
    393a:	f8 94       	cli
    393c:	3e bf       	out	0x3e, r19	; 62
    393e:	0f be       	out	0x3f, r0	; 63
    3940:	2d bf       	out	0x3d, r18	; 61
    3942:	b5 ce       	rjmp	.-662    	; 0x36ae <menu_color()+0x2c>
C:\Users\Ryan\Documents\GitHub\sport_main_code_2023/sport_menu.h:1180
      } else if (color_L == YELLOW) {
    3944:	81 e0       	ldi	r24, 0x01	; 1
    3946:	0e 94 32 0a 	call	0x1464	; 0x1464 <color(char)>
    394a:	84 30       	cpi	r24, 0x04	; 4
    394c:	d1 f5       	brne	.+116    	; 0x39c2 <menu_color()+0x340>
C:\Users\Ryan\Documents\GitHub\sport_main_code_2023/sport_menu.h:1181
        lcd.setCursor(12, 0);
    394e:	60 e0       	ldi	r22, 0x00	; 0
    3950:	8c e0       	ldi	r24, 0x0C	; 12
    3952:	0e 94 67 06 	call	0xcce	; 0xcce <LiquidCrystal::setCursor(unsigned char, unsigned char) [clone .constprop.27]>
C:\Users\Ryan\Documents\GitHub\sport_main_code_2023/sport_menu.h:1182
        lcd.print("YELLOW");
    3956:	8c e3       	ldi	r24, 0x3C	; 60
    3958:	94 e0       	ldi	r25, 0x04	; 4
    395a:	0e 94 ff 09 	call	0x13fe	; 0x13fe <Print::print(char const*) [clone .constprop.9]>
C:\Users\Ryan\Documents\GitHub\sport_main_code_2023/sport_menu.h:1183
        lcd.setCursor(0, 3);
    395e:	63 e0       	ldi	r22, 0x03	; 3
    3960:	80 e0       	ldi	r24, 0x00	; 0
    3962:	0e 94 67 06 	call	0xcce	; 0xcce <LiquidCrystal::setCursor(unsigned char, unsigned char) [clone .constprop.27]>
C:\Users\Ryan\Documents\GitHub\sport_main_code_2023/sport_menu.h:1184
        lcd.printf("M%4d %4d %4d %4d", EEPROM_read_int(yellow_left_r), EEPROM_read_int(yellow_left_g), EEPROM_read_int(yellow_left_b), EEPROM_read_int(yellow_left_c));
    3966:	82 e3       	ldi	r24, 0x32	; 50
    3968:	90 e0       	ldi	r25, 0x00	; 0
    396a:	0e 94 1c 0a 	call	0x1438	; 0x1438 <EEPROM_read_int(int)>
    396e:	38 2e       	mov	r3, r24
    3970:	29 2e       	mov	r2, r25
    3972:	80 e3       	ldi	r24, 0x30	; 48
    3974:	90 e0       	ldi	r25, 0x00	; 0
    3976:	0e 94 1c 0a 	call	0x1438	; 0x1438 <EEPROM_read_int(int)>
    397a:	58 2e       	mov	r5, r24
    397c:	49 2e       	mov	r4, r25
    397e:	8e e2       	ldi	r24, 0x2E	; 46
    3980:	90 e0       	ldi	r25, 0x00	; 0
    3982:	0e 94 1c 0a 	call	0x1438	; 0x1438 <EEPROM_read_int(int)>
    3986:	78 2e       	mov	r7, r24
    3988:	69 2e       	mov	r6, r25
    398a:	8c e2       	ldi	r24, 0x2C	; 44
    398c:	90 e0       	ldi	r25, 0x00	; 0
    398e:	0e 94 1c 0a 	call	0x1438	; 0x1438 <EEPROM_read_int(int)>
    3992:	2f 92       	push	r2
    3994:	3f 92       	push	r3
    3996:	4f 92       	push	r4
    3998:	5f 92       	push	r5
    399a:	6f 92       	push	r6
    399c:	7f 92       	push	r7
    399e:	9f 93       	push	r25
    39a0:	8f 93       	push	r24
    39a2:	1f 93       	push	r17
    39a4:	0f 93       	push	r16
    39a6:	df 93       	push	r29
    39a8:	cf 93       	push	r28
    39aa:	0e 94 19 09 	call	0x1232	; 0x1232 <Print::printf(char const*, ...) [clone .constprop.28]>
    39ae:	2d b7       	in	r18, 0x3d	; 61
    39b0:	3e b7       	in	r19, 0x3e	; 62
    39b2:	24 5f       	subi	r18, 0xF4	; 244
    39b4:	3f 4f       	sbci	r19, 0xFF	; 255
    39b6:	0f b6       	in	r0, 0x3f	; 63
    39b8:	f8 94       	cli
    39ba:	3e bf       	out	0x3e, r19	; 62
    39bc:	0f be       	out	0x3f, r0	; 63
    39be:	2d bf       	out	0x3d, r18	; 61
    39c0:	76 ce       	rjmp	.-788    	; 0x36ae <menu_color()+0x2c>
C:\Users\Ryan\Documents\GitHub\sport_main_code_2023/sport_menu.h:1185
      } else if (color_L == SILVER) {
    39c2:	81 e0       	ldi	r24, 0x01	; 1
    39c4:	0e 94 32 0a 	call	0x1464	; 0x1464 <color(char)>
    39c8:	85 30       	cpi	r24, 0x05	; 5
    39ca:	d1 f5       	brne	.+116    	; 0x3a40 <menu_color()+0x3be>
C:\Users\Ryan\Documents\GitHub\sport_main_code_2023/sport_menu.h:1186
        lcd.setCursor(12, 0);
    39cc:	60 e0       	ldi	r22, 0x00	; 0
    39ce:	8c e0       	ldi	r24, 0x0C	; 12
    39d0:	0e 94 67 06 	call	0xcce	; 0xcce <LiquidCrystal::setCursor(unsigned char, unsigned char) [clone .constprop.27]>
C:\Users\Ryan\Documents\GitHub\sport_main_code_2023/sport_menu.h:1187
        lcd.print("SILVER");
    39d4:	83 e4       	ldi	r24, 0x43	; 67
    39d6:	94 e0       	ldi	r25, 0x04	; 4
    39d8:	0e 94 ff 09 	call	0x13fe	; 0x13fe <Print::print(char const*) [clone .constprop.9]>
C:\Users\Ryan\Documents\GitHub\sport_main_code_2023/sport_menu.h:1188
        lcd.setCursor(0, 3);
    39dc:	63 e0       	ldi	r22, 0x03	; 3
    39de:	80 e0       	ldi	r24, 0x00	; 0
    39e0:	0e 94 67 06 	call	0xcce	; 0xcce <LiquidCrystal::setCursor(unsigned char, unsigned char) [clone .constprop.27]>
C:\Users\Ryan\Documents\GitHub\sport_main_code_2023/sport_menu.h:1189
        lcd.printf("M%4d %4d %4d %4d", EEPROM_read_int(silver_left_r), EEPROM_read_int(silver_left_g), EEPROM_read_int(silver_left_b), EEPROM_read_int(silver_left_c));
    39e4:	8a e3       	ldi	r24, 0x3A	; 58
    39e6:	90 e0       	ldi	r25, 0x00	; 0
    39e8:	0e 94 1c 0a 	call	0x1438	; 0x1438 <EEPROM_read_int(int)>
    39ec:	38 2e       	mov	r3, r24
    39ee:	29 2e       	mov	r2, r25
    39f0:	88 e3       	ldi	r24, 0x38	; 56
    39f2:	90 e0       	ldi	r25, 0x00	; 0
    39f4:	0e 94 1c 0a 	call	0x1438	; 0x1438 <EEPROM_read_int(int)>
    39f8:	58 2e       	mov	r5, r24
    39fa:	49 2e       	mov	r4, r25
    39fc:	86 e3       	ldi	r24, 0x36	; 54
    39fe:	90 e0       	ldi	r25, 0x00	; 0
    3a00:	0e 94 1c 0a 	call	0x1438	; 0x1438 <EEPROM_read_int(int)>
    3a04:	78 2e       	mov	r7, r24
    3a06:	69 2e       	mov	r6, r25
    3a08:	84 e3       	ldi	r24, 0x34	; 52
    3a0a:	90 e0       	ldi	r25, 0x00	; 0
    3a0c:	0e 94 1c 0a 	call	0x1438	; 0x1438 <EEPROM_read_int(int)>
    3a10:	2f 92       	push	r2
    3a12:	3f 92       	push	r3
    3a14:	4f 92       	push	r4
    3a16:	5f 92       	push	r5
    3a18:	6f 92       	push	r6
    3a1a:	7f 92       	push	r7
    3a1c:	9f 93       	push	r25
    3a1e:	8f 93       	push	r24
    3a20:	1f 93       	push	r17
    3a22:	0f 93       	push	r16
    3a24:	df 93       	push	r29
    3a26:	cf 93       	push	r28
    3a28:	0e 94 19 09 	call	0x1232	; 0x1232 <Print::printf(char const*, ...) [clone .constprop.28]>
    3a2c:	2d b7       	in	r18, 0x3d	; 61
    3a2e:	3e b7       	in	r19, 0x3e	; 62
    3a30:	24 5f       	subi	r18, 0xF4	; 244
    3a32:	3f 4f       	sbci	r19, 0xFF	; 255
    3a34:	0f b6       	in	r0, 0x3f	; 63
    3a36:	f8 94       	cli
    3a38:	3e bf       	out	0x3e, r19	; 62
    3a3a:	0f be       	out	0x3f, r0	; 63
    3a3c:	2d bf       	out	0x3d, r18	; 61
    3a3e:	37 ce       	rjmp	.-914    	; 0x36ae <menu_color()+0x2c>
C:\Users\Ryan\Documents\GitHub\sport_main_code_2023/sport_menu.h:1190
      } else if (color_L == WHITE) {
    3a40:	81 e0       	ldi	r24, 0x01	; 1
    3a42:	0e 94 32 0a 	call	0x1464	; 0x1464 <color(char)>
    3a46:	87 30       	cpi	r24, 0x07	; 7
    3a48:	09 f0       	breq	.+2      	; 0x3a4c <menu_color()+0x3ca>
    3a4a:	31 ce       	rjmp	.-926    	; 0x36ae <menu_color()+0x2c>
C:\Users\Ryan\Documents\GitHub\sport_main_code_2023/sport_menu.h:1191
        lcd.setCursor(12, 0);
    3a4c:	60 e0       	ldi	r22, 0x00	; 0
    3a4e:	8c e0       	ldi	r24, 0x0C	; 12
    3a50:	0e 94 67 06 	call	0xcce	; 0xcce <LiquidCrystal::setCursor(unsigned char, unsigned char) [clone .constprop.27]>
C:\Users\Ryan\Documents\GitHub\sport_main_code_2023/sport_menu.h:1192
        lcd.print("WHITE ");
    3a54:	8a e4       	ldi	r24, 0x4A	; 74
    3a56:	94 e0       	ldi	r25, 0x04	; 4
C:\Users\Ryan\Documents\GitHub\sport_main_code_2023/sport_menu.h:1234
        lcd.print("SIL ");
        lcd.setCursor(0, 3);
        lcd.printf("M%4d %4d %4d %4d", EEPROM_read_int(silver_right_r), EEPROM_read_int(silver_right_g), EEPROM_read_int(silver_right_b), EEPROM_read_int(silver_right_c));
      } else if (color_R == WHITE) {
        lcd.setCursor(12, 0);
        lcd.print("WHT ");
    3a58:	0e 94 ff 09 	call	0x13fe	; 0x13fe <Print::print(char const*) [clone .constprop.9]>
C:\Users\Ryan\Documents\GitHub\sport_main_code_2023/sport_menu.h:1235
        lcd.setCursor(0, 3);
    3a5c:	63 e0       	ldi	r22, 0x03	; 3
    3a5e:	80 e0       	ldi	r24, 0x00	; 0
    3a60:	0e 94 67 06 	call	0xcce	; 0xcce <LiquidCrystal::setCursor(unsigned char, unsigned char) [clone .constprop.27]>
C:\Users\Ryan\Documents\GitHub\sport_main_code_2023/sport_menu.h:1236
        lcd.print("                    ");
    3a64:	81 e5       	ldi	r24, 0x51	; 81
    3a66:	94 e0       	ldi	r25, 0x04	; 4
    3a68:	0e 94 ff 09 	call	0x13fe	; 0x13fe <Print::print(char const*) [clone .constprop.9]>
    3a6c:	20 ce       	rjmp	.-960    	; 0x36ae <menu_color()+0x2c>
C:\Users\Ryan\Documents\GitHub\sport_main_code_2023/sport_menu.h:1196
        lcd.setCursor(12, 0);
        lcd.print("WHITE ");
        lcd.setCursor(0, 3);
        lcd.print("                    ");
      }
    } else if (page == 2)  // APDS Right
    3a6e:	82 30       	cpi	r24, 0x02	; 2
    3a70:	09 f0       	breq	.+2      	; 0x3a74 <menu_color()+0x3f2>
    3a72:	89 c1       	rjmp	.+786    	; 0x3d86 <menu_color()+0x704>
C:\Users\Ryan\Documents\GitHub\sport_main_code_2023/sport_menu.h:1198
    {
      lcd.setCursor(0, 0);
    3a74:	60 e0       	ldi	r22, 0x00	; 0
    3a76:	80 e0       	ldi	r24, 0x00	; 0
    3a78:	0e 94 67 06 	call	0xcce	; 0xcce <LiquidCrystal::setCursor(unsigned char, unsigned char) [clone .constprop.27]>
C:\Users\Ryan\Documents\GitHub\sport_main_code_2023/sport_menu.h:1199
      lcd.print("APDS Right: ");
    3a7c:	86 e6       	ldi	r24, 0x66	; 102
    3a7e:	94 e0       	ldi	r25, 0x04	; 4
    3a80:	0e 94 ff 09 	call	0x13fe	; 0x13fe <Print::print(char const*) [clone .constprop.9]>
C:\Users\Ryan\Documents\GitHub\sport_main_code_2023/sport_menu.h:1200
      lcd.setCursor(0, 1);
    3a84:	61 e0       	ldi	r22, 0x01	; 1
    3a86:	80 e0       	ldi	r24, 0x00	; 0
    3a88:	0e 94 67 06 	call	0xcce	; 0xcce <LiquidCrystal::setCursor(unsigned char, unsigned char) [clone .constprop.27]>
C:\Users\Ryan\Documents\GitHub\sport_main_code_2023/sport_menu.h:1201
      lcd.print("  RED  GRN  BLU ");
    3a8c:	83 e7       	ldi	r24, 0x73	; 115
    3a8e:	94 e0       	ldi	r25, 0x04	; 4
    3a90:	0e 94 ff 09 	call	0x13fe	; 0x13fe <Print::print(char const*) [clone .constprop.9]>
C:\Users\Ryan\Documents\GitHub\sport_main_code_2023/sport_menu.h:1203

      lcd.setCursor(0, 2);
    3a94:	62 e0       	ldi	r22, 0x02	; 2
    3a96:	80 e0       	ldi	r24, 0x00	; 0
    3a98:	0e 94 67 06 	call	0xcce	; 0xcce <LiquidCrystal::setCursor(unsigned char, unsigned char) [clone .constprop.27]>
C:\Users\Ryan\Documents\GitHub\sport_main_code_2023/sport_menu.h:1204
      lcd.printf(" %4d %4d %4d %4d", red, green, blue, clear);
    3a9c:	80 91 c6 08 	lds	r24, 0x08C6	; 0x8008c6 <clear+0x1>
    3aa0:	8f 93       	push	r24
    3aa2:	80 91 c5 08 	lds	r24, 0x08C5	; 0x8008c5 <clear>
    3aa6:	8f 93       	push	r24
    3aa8:	80 91 c8 08 	lds	r24, 0x08C8	; 0x8008c8 <blue+0x1>
    3aac:	8f 93       	push	r24
    3aae:	80 91 c7 08 	lds	r24, 0x08C7	; 0x8008c7 <blue>
    3ab2:	8f 93       	push	r24
    3ab4:	80 91 ca 08 	lds	r24, 0x08CA	; 0x8008ca <green+0x1>
    3ab8:	8f 93       	push	r24
    3aba:	80 91 c9 08 	lds	r24, 0x08C9	; 0x8008c9 <green>
    3abe:	8f 93       	push	r24
    3ac0:	80 91 cc 08 	lds	r24, 0x08CC	; 0x8008cc <red+0x1>
    3ac4:	8f 93       	push	r24
    3ac6:	80 91 cb 08 	lds	r24, 0x08CB	; 0x8008cb <red>
    3aca:	8f 93       	push	r24
    3acc:	9f 92       	push	r9
    3ace:	8f 92       	push	r8
    3ad0:	df 93       	push	r29
    3ad2:	cf 93       	push	r28
    3ad4:	0e 94 19 09 	call	0x1232	; 0x1232 <Print::printf(char const*, ...) [clone .constprop.28]>
C:\Users\Ryan\Documents\GitHub\sport_main_code_2023/sport_menu.h:1206

      lcd.setCursor(12, 0);
    3ad8:	60 e0       	ldi	r22, 0x00	; 0
    3ada:	8c e0       	ldi	r24, 0x0C	; 12
    3adc:	0e 94 67 06 	call	0xcce	; 0xcce <LiquidCrystal::setCursor(unsigned char, unsigned char) [clone .constprop.27]>
C:\Users\Ryan\Documents\GitHub\sport_main_code_2023/sport_menu.h:1207
      if (color_R == RED) {
    3ae0:	82 e0       	ldi	r24, 0x02	; 2
    3ae2:	0e 94 32 0a 	call	0x1464	; 0x1464 <color(char)>
    3ae6:	2d b7       	in	r18, 0x3d	; 61
    3ae8:	3e b7       	in	r19, 0x3e	; 62
    3aea:	24 5f       	subi	r18, 0xF4	; 244
    3aec:	3f 4f       	sbci	r19, 0xFF	; 255
    3aee:	0f b6       	in	r0, 0x3f	; 63
    3af0:	f8 94       	cli
    3af2:	3e bf       	out	0x3e, r19	; 62
    3af4:	0f be       	out	0x3f, r0	; 63
    3af6:	2d bf       	out	0x3d, r18	; 61
    3af8:	81 11       	cpse	r24, r1
    3afa:	3a c0       	rjmp	.+116    	; 0x3b70 <menu_color()+0x4ee>
C:\Users\Ryan\Documents\GitHub\sport_main_code_2023/sport_menu.h:1208
        lcd.setCursor(12, 0);
    3afc:	60 e0       	ldi	r22, 0x00	; 0
    3afe:	8c e0       	ldi	r24, 0x0C	; 12
    3b00:	0e 94 67 06 	call	0xcce	; 0xcce <LiquidCrystal::setCursor(unsigned char, unsigned char) [clone .constprop.27]>
C:\Users\Ryan\Documents\GitHub\sport_main_code_2023/sport_menu.h:1209
        lcd.print("RED ");
    3b04:	84 e8       	ldi	r24, 0x84	; 132
    3b06:	94 e0       	ldi	r25, 0x04	; 4
    3b08:	0e 94 ff 09 	call	0x13fe	; 0x13fe <Print::print(char const*) [clone .constprop.9]>
C:\Users\Ryan\Documents\GitHub\sport_main_code_2023/sport_menu.h:1210
        lcd.setCursor(0, 3);
    3b0c:	63 e0       	ldi	r22, 0x03	; 3
    3b0e:	80 e0       	ldi	r24, 0x00	; 0
    3b10:	0e 94 67 06 	call	0xcce	; 0xcce <LiquidCrystal::setCursor(unsigned char, unsigned char) [clone .constprop.27]>
C:\Users\Ryan\Documents\GitHub\sport_main_code_2023/sport_menu.h:1211
        lcd.printf("M%4d %4d %4d %4d ", EEPROM_read_int(red_right_r), EEPROM_read_int(red_right_g), EEPROM_read_int(red_right_b), EEPROM_read_int(red_right_c));
    3b14:	82 e4       	ldi	r24, 0x42	; 66
    3b16:	90 e0       	ldi	r25, 0x00	; 0
    3b18:	0e 94 1c 0a 	call	0x1438	; 0x1438 <EEPROM_read_int(int)>
    3b1c:	38 2e       	mov	r3, r24
    3b1e:	29 2e       	mov	r2, r25
    3b20:	80 e4       	ldi	r24, 0x40	; 64
    3b22:	90 e0       	ldi	r25, 0x00	; 0
    3b24:	0e 94 1c 0a 	call	0x1438	; 0x1438 <EEPROM_read_int(int)>
    3b28:	58 2e       	mov	r5, r24
    3b2a:	49 2e       	mov	r4, r25
    3b2c:	8e e3       	ldi	r24, 0x3E	; 62
    3b2e:	90 e0       	ldi	r25, 0x00	; 0
    3b30:	0e 94 1c 0a 	call	0x1438	; 0x1438 <EEPROM_read_int(int)>
    3b34:	78 2e       	mov	r7, r24
    3b36:	69 2e       	mov	r6, r25
    3b38:	8c e3       	ldi	r24, 0x3C	; 60
    3b3a:	90 e0       	ldi	r25, 0x00	; 0
    3b3c:	0e 94 1c 0a 	call	0x1438	; 0x1438 <EEPROM_read_int(int)>
    3b40:	2f 92       	push	r2
    3b42:	3f 92       	push	r3
    3b44:	4f 92       	push	r4
    3b46:	5f 92       	push	r5
    3b48:	6f 92       	push	r6
    3b4a:	7f 92       	push	r7
    3b4c:	9f 93       	push	r25
    3b4e:	8f 93       	push	r24
    3b50:	ff 92       	push	r15
    3b52:	ef 92       	push	r14
    3b54:	df 93       	push	r29
    3b56:	cf 93       	push	r28
    3b58:	0e 94 19 09 	call	0x1232	; 0x1232 <Print::printf(char const*, ...) [clone .constprop.28]>
    3b5c:	2d b7       	in	r18, 0x3d	; 61
    3b5e:	3e b7       	in	r19, 0x3e	; 62
    3b60:	24 5f       	subi	r18, 0xF4	; 244
    3b62:	3f 4f       	sbci	r19, 0xFF	; 255
    3b64:	0f b6       	in	r0, 0x3f	; 63
    3b66:	f8 94       	cli
    3b68:	3e bf       	out	0x3e, r19	; 62
    3b6a:	0f be       	out	0x3f, r0	; 63
    3b6c:	2d bf       	out	0x3d, r18	; 61
    3b6e:	9f cd       	rjmp	.-1218   	; 0x36ae <menu_color()+0x2c>
C:\Users\Ryan\Documents\GitHub\sport_main_code_2023/sport_menu.h:1212
      } else if (color_R == GREEN) {
    3b70:	82 e0       	ldi	r24, 0x02	; 2
    3b72:	0e 94 32 0a 	call	0x1464	; 0x1464 <color(char)>
    3b76:	81 30       	cpi	r24, 0x01	; 1
    3b78:	d1 f5       	brne	.+116    	; 0x3bee <menu_color()+0x56c>
C:\Users\Ryan\Documents\GitHub\sport_main_code_2023/sport_menu.h:1213
        lcd.setCursor(12, 0);
    3b7a:	60 e0       	ldi	r22, 0x00	; 0
    3b7c:	8c e0       	ldi	r24, 0x0C	; 12
    3b7e:	0e 94 67 06 	call	0xcce	; 0xcce <LiquidCrystal::setCursor(unsigned char, unsigned char) [clone .constprop.27]>
C:\Users\Ryan\Documents\GitHub\sport_main_code_2023/sport_menu.h:1214
        lcd.print("GRN ");
    3b82:	8b e9       	ldi	r24, 0x9B	; 155
    3b84:	94 e0       	ldi	r25, 0x04	; 4
    3b86:	0e 94 ff 09 	call	0x13fe	; 0x13fe <Print::print(char const*) [clone .constprop.9]>
C:\Users\Ryan\Documents\GitHub\sport_main_code_2023/sport_menu.h:1215
        lcd.setCursor(0, 3);
    3b8a:	63 e0       	ldi	r22, 0x03	; 3
    3b8c:	80 e0       	ldi	r24, 0x00	; 0
    3b8e:	0e 94 67 06 	call	0xcce	; 0xcce <LiquidCrystal::setCursor(unsigned char, unsigned char) [clone .constprop.27]>
C:\Users\Ryan\Documents\GitHub\sport_main_code_2023/sport_menu.h:1216
        lcd.printf("M%4d %4d %4d %4d ", EEPROM_read_int(green_right_r), EEPROM_read_int(green_right_g), EEPROM_read_int(green_right_b), EEPROM_read_int(green_right_c));
    3b92:	8a e4       	ldi	r24, 0x4A	; 74
    3b94:	90 e0       	ldi	r25, 0x00	; 0
    3b96:	0e 94 1c 0a 	call	0x1438	; 0x1438 <EEPROM_read_int(int)>
    3b9a:	38 2e       	mov	r3, r24
    3b9c:	29 2e       	mov	r2, r25
    3b9e:	88 e4       	ldi	r24, 0x48	; 72
    3ba0:	90 e0       	ldi	r25, 0x00	; 0
    3ba2:	0e 94 1c 0a 	call	0x1438	; 0x1438 <EEPROM_read_int(int)>
    3ba6:	58 2e       	mov	r5, r24
    3ba8:	49 2e       	mov	r4, r25
    3baa:	86 e4       	ldi	r24, 0x46	; 70
    3bac:	90 e0       	ldi	r25, 0x00	; 0
    3bae:	0e 94 1c 0a 	call	0x1438	; 0x1438 <EEPROM_read_int(int)>
    3bb2:	78 2e       	mov	r7, r24
    3bb4:	69 2e       	mov	r6, r25
    3bb6:	84 e4       	ldi	r24, 0x44	; 68
    3bb8:	90 e0       	ldi	r25, 0x00	; 0
    3bba:	0e 94 1c 0a 	call	0x1438	; 0x1438 <EEPROM_read_int(int)>
    3bbe:	2f 92       	push	r2
    3bc0:	3f 92       	push	r3
    3bc2:	4f 92       	push	r4
    3bc4:	5f 92       	push	r5
    3bc6:	6f 92       	push	r6
    3bc8:	7f 92       	push	r7
    3bca:	9f 93       	push	r25
    3bcc:	8f 93       	push	r24
    3bce:	ff 92       	push	r15
    3bd0:	ef 92       	push	r14
    3bd2:	df 93       	push	r29
    3bd4:	cf 93       	push	r28
    3bd6:	0e 94 19 09 	call	0x1232	; 0x1232 <Print::printf(char const*, ...) [clone .constprop.28]>
    3bda:	2d b7       	in	r18, 0x3d	; 61
    3bdc:	3e b7       	in	r19, 0x3e	; 62
    3bde:	24 5f       	subi	r18, 0xF4	; 244
    3be0:	3f 4f       	sbci	r19, 0xFF	; 255
    3be2:	0f b6       	in	r0, 0x3f	; 63
    3be4:	f8 94       	cli
    3be6:	3e bf       	out	0x3e, r19	; 62
    3be8:	0f be       	out	0x3f, r0	; 63
    3bea:	2d bf       	out	0x3d, r18	; 61
    3bec:	60 cd       	rjmp	.-1344   	; 0x36ae <menu_color()+0x2c>
C:\Users\Ryan\Documents\GitHub\sport_main_code_2023/sport_menu.h:1217
      } else if (color_R == BLUE) {
    3bee:	82 e0       	ldi	r24, 0x02	; 2
    3bf0:	0e 94 32 0a 	call	0x1464	; 0x1464 <color(char)>
    3bf4:	82 30       	cpi	r24, 0x02	; 2
    3bf6:	d1 f5       	brne	.+116    	; 0x3c6c <menu_color()+0x5ea>
C:\Users\Ryan\Documents\GitHub\sport_main_code_2023/sport_menu.h:1218
        lcd.setCursor(12, 0);
    3bf8:	60 e0       	ldi	r22, 0x00	; 0
    3bfa:	8c e0       	ldi	r24, 0x0C	; 12
    3bfc:	0e 94 67 06 	call	0xcce	; 0xcce <LiquidCrystal::setCursor(unsigned char, unsigned char) [clone .constprop.27]>
C:\Users\Ryan\Documents\GitHub\sport_main_code_2023/sport_menu.h:1219
        lcd.print("BLUE");
    3c00:	80 ea       	ldi	r24, 0xA0	; 160
    3c02:	94 e0       	ldi	r25, 0x04	; 4
    3c04:	0e 94 ff 09 	call	0x13fe	; 0x13fe <Print::print(char const*) [clone .constprop.9]>
C:\Users\Ryan\Documents\GitHub\sport_main_code_2023/sport_menu.h:1220
        lcd.setCursor(0, 3);
    3c08:	63 e0       	ldi	r22, 0x03	; 3
    3c0a:	80 e0       	ldi	r24, 0x00	; 0
    3c0c:	0e 94 67 06 	call	0xcce	; 0xcce <LiquidCrystal::setCursor(unsigned char, unsigned char) [clone .constprop.27]>
C:\Users\Ryan\Documents\GitHub\sport_main_code_2023/sport_menu.h:1221
        lcd.printf("M%4d %4d %4d %4d", EEPROM_read_int(blue_right_r), EEPROM_read_int(blue_right_g), EEPROM_read_int(blue_right_b), EEPROM_read_int(blue_right_c));
    3c10:	82 e5       	ldi	r24, 0x52	; 82
    3c12:	90 e0       	ldi	r25, 0x00	; 0
    3c14:	0e 94 1c 0a 	call	0x1438	; 0x1438 <EEPROM_read_int(int)>
    3c18:	38 2e       	mov	r3, r24
    3c1a:	29 2e       	mov	r2, r25
    3c1c:	80 e5       	ldi	r24, 0x50	; 80
    3c1e:	90 e0       	ldi	r25, 0x00	; 0
    3c20:	0e 94 1c 0a 	call	0x1438	; 0x1438 <EEPROM_read_int(int)>
    3c24:	58 2e       	mov	r5, r24
    3c26:	49 2e       	mov	r4, r25
    3c28:	8e e4       	ldi	r24, 0x4E	; 78
    3c2a:	90 e0       	ldi	r25, 0x00	; 0
    3c2c:	0e 94 1c 0a 	call	0x1438	; 0x1438 <EEPROM_read_int(int)>
    3c30:	78 2e       	mov	r7, r24
    3c32:	69 2e       	mov	r6, r25
    3c34:	8c e4       	ldi	r24, 0x4C	; 76
    3c36:	90 e0       	ldi	r25, 0x00	; 0
    3c38:	0e 94 1c 0a 	call	0x1438	; 0x1438 <EEPROM_read_int(int)>
    3c3c:	2f 92       	push	r2
    3c3e:	3f 92       	push	r3
    3c40:	4f 92       	push	r4
    3c42:	5f 92       	push	r5
    3c44:	6f 92       	push	r6
    3c46:	7f 92       	push	r7
    3c48:	9f 93       	push	r25
    3c4a:	8f 93       	push	r24
    3c4c:	1f 93       	push	r17
    3c4e:	0f 93       	push	r16
    3c50:	df 93       	push	r29
    3c52:	cf 93       	push	r28
    3c54:	0e 94 19 09 	call	0x1232	; 0x1232 <Print::printf(char const*, ...) [clone .constprop.28]>
    3c58:	2d b7       	in	r18, 0x3d	; 61
    3c5a:	3e b7       	in	r19, 0x3e	; 62
    3c5c:	24 5f       	subi	r18, 0xF4	; 244
    3c5e:	3f 4f       	sbci	r19, 0xFF	; 255
    3c60:	0f b6       	in	r0, 0x3f	; 63
    3c62:	f8 94       	cli
    3c64:	3e bf       	out	0x3e, r19	; 62
    3c66:	0f be       	out	0x3f, r0	; 63
    3c68:	2d bf       	out	0x3d, r18	; 61
    3c6a:	21 cd       	rjmp	.-1470   	; 0x36ae <menu_color()+0x2c>
C:\Users\Ryan\Documents\GitHub\sport_main_code_2023/sport_menu.h:1222
      } else if (color_R == YELLOW) {
    3c6c:	82 e0       	ldi	r24, 0x02	; 2
    3c6e:	0e 94 32 0a 	call	0x1464	; 0x1464 <color(char)>
    3c72:	84 30       	cpi	r24, 0x04	; 4
    3c74:	e1 f5       	brne	.+120    	; 0x3cee <menu_color()+0x66c>
C:\Users\Ryan\Documents\GitHub\sport_main_code_2023/sport_menu.h:1223
        lcd.setCursor(12, 0);
    3c76:	60 e0       	ldi	r22, 0x00	; 0
    3c78:	8c e0       	ldi	r24, 0x0C	; 12
    3c7a:	0e 94 67 06 	call	0xcce	; 0xcce <LiquidCrystal::setCursor(unsigned char, unsigned char) [clone .constprop.27]>
C:\Users\Ryan\Documents\GitHub\sport_main_code_2023/sport_menu.h:1224
        lcd.print("YELLOW");
    3c7e:	8c e3       	ldi	r24, 0x3C	; 60
    3c80:	94 e0       	ldi	r25, 0x04	; 4
    3c82:	0e 94 ff 09 	call	0x13fe	; 0x13fe <Print::print(char const*) [clone .constprop.9]>
C:\Users\Ryan\Documents\GitHub\sport_main_code_2023/sport_menu.h:1225
        lcd.setCursor(0, 3);
    3c86:	63 e0       	ldi	r22, 0x03	; 3
    3c88:	80 e0       	ldi	r24, 0x00	; 0
    3c8a:	0e 94 67 06 	call	0xcce	; 0xcce <LiquidCrystal::setCursor(unsigned char, unsigned char) [clone .constprop.27]>
C:\Users\Ryan\Documents\GitHub\sport_main_code_2023/sport_menu.h:1226
        lcd.printf("M%4d %4d %4d ", EEPROM_read_int(yellow_right_r), EEPROM_read_int(yellow_right_g), EEPROM_read_int(yellow_right_b), EEPROM_read_int(yellow_right_c));
    3c8e:	8a e5       	ldi	r24, 0x5A	; 90
    3c90:	90 e0       	ldi	r25, 0x00	; 0
    3c92:	0e 94 1c 0a 	call	0x1438	; 0x1438 <EEPROM_read_int(int)>
    3c96:	38 2e       	mov	r3, r24
    3c98:	29 2e       	mov	r2, r25
    3c9a:	88 e5       	ldi	r24, 0x58	; 88
    3c9c:	90 e0       	ldi	r25, 0x00	; 0
    3c9e:	0e 94 1c 0a 	call	0x1438	; 0x1438 <EEPROM_read_int(int)>
    3ca2:	58 2e       	mov	r5, r24
    3ca4:	49 2e       	mov	r4, r25
    3ca6:	86 e5       	ldi	r24, 0x56	; 86
    3ca8:	90 e0       	ldi	r25, 0x00	; 0
    3caa:	0e 94 1c 0a 	call	0x1438	; 0x1438 <EEPROM_read_int(int)>
    3cae:	78 2e       	mov	r7, r24
    3cb0:	69 2e       	mov	r6, r25
    3cb2:	84 e5       	ldi	r24, 0x54	; 84
    3cb4:	90 e0       	ldi	r25, 0x00	; 0
    3cb6:	0e 94 1c 0a 	call	0x1438	; 0x1438 <EEPROM_read_int(int)>
    3cba:	2f 92       	push	r2
    3cbc:	3f 92       	push	r3
    3cbe:	4f 92       	push	r4
    3cc0:	5f 92       	push	r5
    3cc2:	6f 92       	push	r6
    3cc4:	7f 92       	push	r7
    3cc6:	9f 93       	push	r25
    3cc8:	8f 93       	push	r24
    3cca:	85 ea       	ldi	r24, 0xA5	; 165
    3ccc:	94 e0       	ldi	r25, 0x04	; 4
    3cce:	9f 93       	push	r25
    3cd0:	8f 93       	push	r24
    3cd2:	df 93       	push	r29
    3cd4:	cf 93       	push	r28
    3cd6:	0e 94 19 09 	call	0x1232	; 0x1232 <Print::printf(char const*, ...) [clone .constprop.28]>
    3cda:	2d b7       	in	r18, 0x3d	; 61
    3cdc:	3e b7       	in	r19, 0x3e	; 62
    3cde:	24 5f       	subi	r18, 0xF4	; 244
    3ce0:	3f 4f       	sbci	r19, 0xFF	; 255
    3ce2:	0f b6       	in	r0, 0x3f	; 63
    3ce4:	f8 94       	cli
    3ce6:	3e bf       	out	0x3e, r19	; 62
    3ce8:	0f be       	out	0x3f, r0	; 63
    3cea:	2d bf       	out	0x3d, r18	; 61
    3cec:	e0 cc       	rjmp	.-1600   	; 0x36ae <menu_color()+0x2c>
C:\Users\Ryan\Documents\GitHub\sport_main_code_2023/sport_menu.h:1227
      } else if (color_R == SILVER) {
    3cee:	82 e0       	ldi	r24, 0x02	; 2
    3cf0:	0e 94 32 0a 	call	0x1464	; 0x1464 <color(char)>
    3cf4:	85 30       	cpi	r24, 0x05	; 5
    3cf6:	d1 f5       	brne	.+116    	; 0x3d6c <menu_color()+0x6ea>
C:\Users\Ryan\Documents\GitHub\sport_main_code_2023/sport_menu.h:1228
        lcd.setCursor(12, 0);
    3cf8:	60 e0       	ldi	r22, 0x00	; 0
    3cfa:	8c e0       	ldi	r24, 0x0C	; 12
    3cfc:	0e 94 67 06 	call	0xcce	; 0xcce <LiquidCrystal::setCursor(unsigned char, unsigned char) [clone .constprop.27]>
C:\Users\Ryan\Documents\GitHub\sport_main_code_2023/sport_menu.h:1229
        lcd.print("SIL ");
    3d00:	83 eb       	ldi	r24, 0xB3	; 179
    3d02:	94 e0       	ldi	r25, 0x04	; 4
    3d04:	0e 94 ff 09 	call	0x13fe	; 0x13fe <Print::print(char const*) [clone .constprop.9]>
C:\Users\Ryan\Documents\GitHub\sport_main_code_2023/sport_menu.h:1230
        lcd.setCursor(0, 3);
    3d08:	63 e0       	ldi	r22, 0x03	; 3
    3d0a:	80 e0       	ldi	r24, 0x00	; 0
    3d0c:	0e 94 67 06 	call	0xcce	; 0xcce <LiquidCrystal::setCursor(unsigned char, unsigned char) [clone .constprop.27]>
C:\Users\Ryan\Documents\GitHub\sport_main_code_2023/sport_menu.h:1231
        lcd.printf("M%4d %4d %4d %4d", EEPROM_read_int(silver_right_r), EEPROM_read_int(silver_right_g), EEPROM_read_int(silver_right_b), EEPROM_read_int(silver_right_c));
    3d10:	82 e6       	ldi	r24, 0x62	; 98
    3d12:	90 e0       	ldi	r25, 0x00	; 0
    3d14:	0e 94 1c 0a 	call	0x1438	; 0x1438 <EEPROM_read_int(int)>
    3d18:	38 2e       	mov	r3, r24
    3d1a:	29 2e       	mov	r2, r25
    3d1c:	80 e6       	ldi	r24, 0x60	; 96
    3d1e:	90 e0       	ldi	r25, 0x00	; 0
    3d20:	0e 94 1c 0a 	call	0x1438	; 0x1438 <EEPROM_read_int(int)>
    3d24:	58 2e       	mov	r5, r24
    3d26:	49 2e       	mov	r4, r25
    3d28:	8e e5       	ldi	r24, 0x5E	; 94
    3d2a:	90 e0       	ldi	r25, 0x00	; 0
    3d2c:	0e 94 1c 0a 	call	0x1438	; 0x1438 <EEPROM_read_int(int)>
    3d30:	78 2e       	mov	r7, r24
    3d32:	69 2e       	mov	r6, r25
    3d34:	8c e5       	ldi	r24, 0x5C	; 92
    3d36:	90 e0       	ldi	r25, 0x00	; 0
    3d38:	0e 94 1c 0a 	call	0x1438	; 0x1438 <EEPROM_read_int(int)>
    3d3c:	2f 92       	push	r2
    3d3e:	3f 92       	push	r3
    3d40:	4f 92       	push	r4
    3d42:	5f 92       	push	r5
    3d44:	6f 92       	push	r6
    3d46:	7f 92       	push	r7
    3d48:	9f 93       	push	r25
    3d4a:	8f 93       	push	r24
    3d4c:	1f 93       	push	r17
    3d4e:	0f 93       	push	r16
    3d50:	df 93       	push	r29
    3d52:	cf 93       	push	r28
    3d54:	0e 94 19 09 	call	0x1232	; 0x1232 <Print::printf(char const*, ...) [clone .constprop.28]>
    3d58:	2d b7       	in	r18, 0x3d	; 61
    3d5a:	3e b7       	in	r19, 0x3e	; 62
    3d5c:	24 5f       	subi	r18, 0xF4	; 244
    3d5e:	3f 4f       	sbci	r19, 0xFF	; 255
    3d60:	0f b6       	in	r0, 0x3f	; 63
    3d62:	f8 94       	cli
    3d64:	3e bf       	out	0x3e, r19	; 62
    3d66:	0f be       	out	0x3f, r0	; 63
    3d68:	2d bf       	out	0x3d, r18	; 61
    3d6a:	a1 cc       	rjmp	.-1726   	; 0x36ae <menu_color()+0x2c>
C:\Users\Ryan\Documents\GitHub\sport_main_code_2023/sport_menu.h:1232
      } else if (color_R == WHITE) {
    3d6c:	82 e0       	ldi	r24, 0x02	; 2
    3d6e:	0e 94 32 0a 	call	0x1464	; 0x1464 <color(char)>
    3d72:	87 30       	cpi	r24, 0x07	; 7
    3d74:	09 f0       	breq	.+2      	; 0x3d78 <menu_color()+0x6f6>
    3d76:	9b cc       	rjmp	.-1738   	; 0x36ae <menu_color()+0x2c>
C:\Users\Ryan\Documents\GitHub\sport_main_code_2023/sport_menu.h:1233
        lcd.setCursor(12, 0);
    3d78:	60 e0       	ldi	r22, 0x00	; 0
    3d7a:	8c e0       	ldi	r24, 0x0C	; 12
    3d7c:	0e 94 67 06 	call	0xcce	; 0xcce <LiquidCrystal::setCursor(unsigned char, unsigned char) [clone .constprop.27]>
C:\Users\Ryan\Documents\GitHub\sport_main_code_2023/sport_menu.h:1234
        lcd.print("WHT ");
    3d80:	88 eb       	ldi	r24, 0xB8	; 184
    3d82:	94 e0       	ldi	r25, 0x04	; 4
    3d84:	69 ce       	rjmp	.-814    	; 0x3a58 <menu_color()+0x3d6>
C:\Users\Ryan\Documents\GitHub\sport_main_code_2023/sport_menu.h:1238
        lcd.setCursor(0, 3);
        lcd.print("                    ");
      }
    } else if (page == 3)  // memory RED
    3d86:	83 30       	cpi	r24, 0x03	; 3
    3d88:	09 f0       	breq	.+2      	; 0x3d8c <menu_color()+0x70a>
    3d8a:	59 c0       	rjmp	.+178    	; 0x3e3e <menu_color()+0x7bc>
C:\Users\Ryan\Documents\GitHub\sport_main_code_2023/sport_menu.h:1240
    {
      lcd.setCursor(0, 0);
    3d8c:	60 e0       	ldi	r22, 0x00	; 0
    3d8e:	80 e0       	ldi	r24, 0x00	; 0
    3d90:	0e 94 67 06 	call	0xcce	; 0xcce <LiquidCrystal::setCursor(unsigned char, unsigned char) [clone .constprop.27]>
C:\Users\Ryan\Documents\GitHub\sport_main_code_2023/sport_menu.h:1241
      lcd.print("memory RED:  ");
    3d94:	8d eb       	ldi	r24, 0xBD	; 189
    3d96:	94 e0       	ldi	r25, 0x04	; 4
    3d98:	0e 94 ff 09 	call	0x13fe	; 0x13fe <Print::print(char const*) [clone .constprop.9]>
C:\Users\Ryan\Documents\GitHub\sport_main_code_2023/sport_menu.h:1243

      lcd.setCursor(0, 1);
    3d9c:	61 e0       	ldi	r22, 0x01	; 1
    3d9e:	80 e0       	ldi	r24, 0x00	; 0
    3da0:	0e 94 67 06 	call	0xcce	; 0xcce <LiquidCrystal::setCursor(unsigned char, unsigned char) [clone .constprop.27]>
C:\Users\Ryan\Documents\GitHub\sport_main_code_2023/sport_menu.h:1244
      lcd.print("  RED  GRN  BLU ");
    3da4:	83 e7       	ldi	r24, 0x73	; 115
    3da6:	94 e0       	ldi	r25, 0x04	; 4
    3da8:	0e 94 ff 09 	call	0x13fe	; 0x13fe <Print::print(char const*) [clone .constprop.9]>
C:\Users\Ryan\Documents\GitHub\sport_main_code_2023/sport_menu.h:1246

      lcd.setCursor(0, 2);
    3dac:	62 e0       	ldi	r22, 0x02	; 2
    3dae:	80 e0       	ldi	r24, 0x00	; 0
    3db0:	0e 94 67 06 	call	0xcce	; 0xcce <LiquidCrystal::setCursor(unsigned char, unsigned char) [clone .constprop.27]>
C:\Users\Ryan\Documents\GitHub\sport_main_code_2023/sport_menu.h:1247
      lcd.printf("L%4d %4d %4d ", EEPROM_read_int(red_left_r), EEPROM_read_int(red_left_g), EEPROM_read_int(red_left_b));
    3db4:	88 e1       	ldi	r24, 0x18	; 24
    3db6:	90 e0       	ldi	r25, 0x00	; 0
    3db8:	0e 94 1c 0a 	call	0x1438	; 0x1438 <EEPROM_read_int(int)>
    3dbc:	58 2e       	mov	r5, r24
    3dbe:	49 2e       	mov	r4, r25
    3dc0:	86 e1       	ldi	r24, 0x16	; 22
    3dc2:	90 e0       	ldi	r25, 0x00	; 0
    3dc4:	0e 94 1c 0a 	call	0x1438	; 0x1438 <EEPROM_read_int(int)>
    3dc8:	78 2e       	mov	r7, r24
    3dca:	69 2e       	mov	r6, r25
    3dcc:	84 e1       	ldi	r24, 0x14	; 20
    3dce:	90 e0       	ldi	r25, 0x00	; 0
    3dd0:	0e 94 1c 0a 	call	0x1438	; 0x1438 <EEPROM_read_int(int)>
    3dd4:	4f 92       	push	r4
    3dd6:	5f 92       	push	r5
    3dd8:	6f 92       	push	r6
    3dda:	7f 92       	push	r7
    3ddc:	9f 93       	push	r25
    3dde:	8f 93       	push	r24
    3de0:	df 92       	push	r13
    3de2:	cf 92       	push	r12
    3de4:	df 93       	push	r29
    3de6:	cf 93       	push	r28
    3de8:	0e 94 19 09 	call	0x1232	; 0x1232 <Print::printf(char const*, ...) [clone .constprop.28]>
C:\Users\Ryan\Documents\GitHub\sport_main_code_2023/sport_menu.h:1249

      lcd.setCursor(0, 3);
    3dec:	63 e0       	ldi	r22, 0x03	; 3
    3dee:	80 e0       	ldi	r24, 0x00	; 0
    3df0:	0e 94 67 06 	call	0xcce	; 0xcce <LiquidCrystal::setCursor(unsigned char, unsigned char) [clone .constprop.27]>
C:\Users\Ryan\Documents\GitHub\sport_main_code_2023/sport_menu.h:1250
      lcd.printf("R%4d %4d %4d ", EEPROM_read_int(red_right_r), EEPROM_read_int(red_right_g), EEPROM_read_int(red_right_b));
    3df4:	80 e4       	ldi	r24, 0x40	; 64
    3df6:	90 e0       	ldi	r25, 0x00	; 0
    3df8:	0e 94 1c 0a 	call	0x1438	; 0x1438 <EEPROM_read_int(int)>
    3dfc:	58 2e       	mov	r5, r24
    3dfe:	49 2e       	mov	r4, r25
    3e00:	8e e3       	ldi	r24, 0x3E	; 62
    3e02:	90 e0       	ldi	r25, 0x00	; 0
    3e04:	0e 94 1c 0a 	call	0x1438	; 0x1438 <EEPROM_read_int(int)>
    3e08:	78 2e       	mov	r7, r24
    3e0a:	69 2e       	mov	r6, r25
    3e0c:	8c e3       	ldi	r24, 0x3C	; 60
    3e0e:	90 e0       	ldi	r25, 0x00	; 0
    3e10:	0e 94 1c 0a 	call	0x1438	; 0x1438 <EEPROM_read_int(int)>
    3e14:	4f 92       	push	r4
    3e16:	5f 92       	push	r5
    3e18:	6f 92       	push	r6
    3e1a:	7f 92       	push	r7
    3e1c:	9f 93       	push	r25
    3e1e:	8f 93       	push	r24
    3e20:	bf 92       	push	r11
    3e22:	af 92       	push	r10
    3e24:	df 93       	push	r29
    3e26:	cf 93       	push	r28
    3e28:	0e 94 19 09 	call	0x1232	; 0x1232 <Print::printf(char const*, ...) [clone .constprop.28]>
    3e2c:	8d b7       	in	r24, 0x3d	; 61
    3e2e:	9e b7       	in	r25, 0x3e	; 62
    3e30:	44 96       	adiw	r24, 0x14	; 20
    3e32:	0f b6       	in	r0, 0x3f	; 63
    3e34:	f8 94       	cli
    3e36:	9e bf       	out	0x3e, r25	; 62
    3e38:	0f be       	out	0x3f, r0	; 63
    3e3a:	8d bf       	out	0x3d, r24	; 61
    3e3c:	38 cc       	rjmp	.-1936   	; 0x36ae <menu_color()+0x2c>
C:\Users\Ryan\Documents\GitHub\sport_main_code_2023/sport_menu.h:1251
    } else if (page == 4)  // memory GREEN
    3e3e:	84 30       	cpi	r24, 0x04	; 4
    3e40:	09 f0       	breq	.+2      	; 0x3e44 <menu_color()+0x7c2>
    3e42:	5a c0       	rjmp	.+180    	; 0x3ef8 <menu_color()+0x876>
C:\Users\Ryan\Documents\GitHub\sport_main_code_2023/sport_menu.h:1253
    {
      lcd.setCursor(0, 0);
    3e44:	60 e0       	ldi	r22, 0x00	; 0
    3e46:	80 e0       	ldi	r24, 0x00	; 0
    3e48:	0e 94 67 06 	call	0xcce	; 0xcce <LiquidCrystal::setCursor(unsigned char, unsigned char) [clone .constprop.27]>
C:\Users\Ryan\Documents\GitHub\sport_main_code_2023/sport_menu.h:1254
      lcd.print("memory GRN:  ");
    3e4c:	87 ee       	ldi	r24, 0xE7	; 231
    3e4e:	94 e0       	ldi	r25, 0x04	; 4
    3e50:	0e 94 ff 09 	call	0x13fe	; 0x13fe <Print::print(char const*) [clone .constprop.9]>
C:\Users\Ryan\Documents\GitHub\sport_main_code_2023/sport_menu.h:1256

      lcd.setCursor(0, 1);
    3e54:	61 e0       	ldi	r22, 0x01	; 1
    3e56:	80 e0       	ldi	r24, 0x00	; 0
    3e58:	0e 94 67 06 	call	0xcce	; 0xcce <LiquidCrystal::setCursor(unsigned char, unsigned char) [clone .constprop.27]>
C:\Users\Ryan\Documents\GitHub\sport_main_code_2023/sport_menu.h:1257
      lcd.print("  RED  GRN  BLU ");
    3e5c:	83 e7       	ldi	r24, 0x73	; 115
    3e5e:	94 e0       	ldi	r25, 0x04	; 4
    3e60:	0e 94 ff 09 	call	0x13fe	; 0x13fe <Print::print(char const*) [clone .constprop.9]>
C:\Users\Ryan\Documents\GitHub\sport_main_code_2023/sport_menu.h:1259

      lcd.setCursor(0, 2);
    3e64:	62 e0       	ldi	r22, 0x02	; 2
    3e66:	80 e0       	ldi	r24, 0x00	; 0
    3e68:	0e 94 67 06 	call	0xcce	; 0xcce <LiquidCrystal::setCursor(unsigned char, unsigned char) [clone .constprop.27]>
C:\Users\Ryan\Documents\GitHub\sport_main_code_2023/sport_menu.h:1260
      lcd.printf("L%4d %4d %4d ", EEPROM_read_int(green_left_r), EEPROM_read_int(green_left_g), EEPROM_read_int(green_left_b));
    3e6c:	80 e2       	ldi	r24, 0x20	; 32
    3e6e:	90 e0       	ldi	r25, 0x00	; 0
    3e70:	0e 94 1c 0a 	call	0x1438	; 0x1438 <EEPROM_read_int(int)>
    3e74:	58 2e       	mov	r5, r24
    3e76:	49 2e       	mov	r4, r25
    3e78:	8e e1       	ldi	r24, 0x1E	; 30
    3e7a:	90 e0       	ldi	r25, 0x00	; 0
    3e7c:	0e 94 1c 0a 	call	0x1438	; 0x1438 <EEPROM_read_int(int)>
    3e80:	78 2e       	mov	r7, r24
    3e82:	69 2e       	mov	r6, r25
    3e84:	8c e1       	ldi	r24, 0x1C	; 28
    3e86:	90 e0       	ldi	r25, 0x00	; 0
    3e88:	0e 94 1c 0a 	call	0x1438	; 0x1438 <EEPROM_read_int(int)>
    3e8c:	4f 92       	push	r4
    3e8e:	5f 92       	push	r5
    3e90:	6f 92       	push	r6
    3e92:	7f 92       	push	r7
    3e94:	9f 93       	push	r25
    3e96:	8f 93       	push	r24
    3e98:	df 92       	push	r13
    3e9a:	cf 92       	push	r12
    3e9c:	df 93       	push	r29
    3e9e:	cf 93       	push	r28
    3ea0:	0e 94 19 09 	call	0x1232	; 0x1232 <Print::printf(char const*, ...) [clone .constprop.28]>
C:\Users\Ryan\Documents\GitHub\sport_main_code_2023/sport_menu.h:1262

      lcd.setCursor(0, 3);
    3ea4:	63 e0       	ldi	r22, 0x03	; 3
    3ea6:	80 e0       	ldi	r24, 0x00	; 0
    3ea8:	0e 94 67 06 	call	0xcce	; 0xcce <LiquidCrystal::setCursor(unsigned char, unsigned char) [clone .constprop.27]>
C:\Users\Ryan\Documents\GitHub\sport_main_code_2023/sport_menu.h:1263
      lcd.printf("R%4d %4d %4d ", EEPROM_read_int(green_right_r), EEPROM_read_int(green_right_g), EEPROM_read_int(green_right_b));
    3eac:	88 e4       	ldi	r24, 0x48	; 72
    3eae:	90 e0       	ldi	r25, 0x00	; 0
    3eb0:	0e 94 1c 0a 	call	0x1438	; 0x1438 <EEPROM_read_int(int)>
    3eb4:	58 2e       	mov	r5, r24
    3eb6:	49 2e       	mov	r4, r25
    3eb8:	86 e4       	ldi	r24, 0x46	; 70
    3eba:	90 e0       	ldi	r25, 0x00	; 0
    3ebc:	0e 94 1c 0a 	call	0x1438	; 0x1438 <EEPROM_read_int(int)>
    3ec0:	78 2e       	mov	r7, r24
    3ec2:	69 2e       	mov	r6, r25
    3ec4:	84 e4       	ldi	r24, 0x44	; 68
    3ec6:	90 e0       	ldi	r25, 0x00	; 0
    3ec8:	0e 94 1c 0a 	call	0x1438	; 0x1438 <EEPROM_read_int(int)>
    3ecc:	4f 92       	push	r4
    3ece:	5f 92       	push	r5
    3ed0:	6f 92       	push	r6
    3ed2:	7f 92       	push	r7
    3ed4:	9f 93       	push	r25
    3ed6:	8f 93       	push	r24
    3ed8:	bf 92       	push	r11
    3eda:	af 92       	push	r10
    3edc:	df 93       	push	r29
    3ede:	cf 93       	push	r28
    3ee0:	0e 94 19 09 	call	0x1232	; 0x1232 <Print::printf(char const*, ...) [clone .constprop.28]>
    3ee4:	2d b7       	in	r18, 0x3d	; 61
    3ee6:	3e b7       	in	r19, 0x3e	; 62
    3ee8:	2c 5e       	subi	r18, 0xEC	; 236
    3eea:	3f 4f       	sbci	r19, 0xFF	; 255
    3eec:	0f b6       	in	r0, 0x3f	; 63
    3eee:	f8 94       	cli
    3ef0:	3e bf       	out	0x3e, r19	; 62
    3ef2:	0f be       	out	0x3f, r0	; 63
    3ef4:	2d bf       	out	0x3d, r18	; 61
    3ef6:	db cb       	rjmp	.-2122   	; 0x36ae <menu_color()+0x2c>
C:\Users\Ryan\Documents\GitHub\sport_main_code_2023/sport_menu.h:1264
    } else if (page == 5)  // memory BLUE
    3ef8:	85 30       	cpi	r24, 0x05	; 5
    3efa:	09 f0       	breq	.+2      	; 0x3efe <menu_color()+0x87c>
    3efc:	59 c0       	rjmp	.+178    	; 0x3fb0 <menu_color()+0x92e>
C:\Users\Ryan\Documents\GitHub\sport_main_code_2023/sport_menu.h:1266
    {
      lcd.setCursor(0, 0);
    3efe:	60 e0       	ldi	r22, 0x00	; 0
    3f00:	80 e0       	ldi	r24, 0x00	; 0
    3f02:	0e 94 67 06 	call	0xcce	; 0xcce <LiquidCrystal::setCursor(unsigned char, unsigned char) [clone .constprop.27]>
C:\Users\Ryan\Documents\GitHub\sport_main_code_2023/sport_menu.h:1267
      lcd.print("memory BLU:  ");
    3f06:	85 ef       	ldi	r24, 0xF5	; 245
    3f08:	94 e0       	ldi	r25, 0x04	; 4
    3f0a:	0e 94 ff 09 	call	0x13fe	; 0x13fe <Print::print(char const*) [clone .constprop.9]>
C:\Users\Ryan\Documents\GitHub\sport_main_code_2023/sport_menu.h:1269

      lcd.setCursor(0, 1);
    3f0e:	61 e0       	ldi	r22, 0x01	; 1
    3f10:	80 e0       	ldi	r24, 0x00	; 0
    3f12:	0e 94 67 06 	call	0xcce	; 0xcce <LiquidCrystal::setCursor(unsigned char, unsigned char) [clone .constprop.27]>
C:\Users\Ryan\Documents\GitHub\sport_main_code_2023/sport_menu.h:1270
      lcd.print("  RED  GRN  BLU ");
    3f16:	83 e7       	ldi	r24, 0x73	; 115
    3f18:	94 e0       	ldi	r25, 0x04	; 4
    3f1a:	0e 94 ff 09 	call	0x13fe	; 0x13fe <Print::print(char const*) [clone .constprop.9]>
C:\Users\Ryan\Documents\GitHub\sport_main_code_2023/sport_menu.h:1272

      lcd.setCursor(0, 2);
    3f1e:	62 e0       	ldi	r22, 0x02	; 2
    3f20:	80 e0       	ldi	r24, 0x00	; 0
    3f22:	0e 94 67 06 	call	0xcce	; 0xcce <LiquidCrystal::setCursor(unsigned char, unsigned char) [clone .constprop.27]>
C:\Users\Ryan\Documents\GitHub\sport_main_code_2023/sport_menu.h:1273
      lcd.printf("L%4d %4d %4d ", EEPROM_read_int(blue_left_r), EEPROM_read_int(blue_left_g), EEPROM_read_int(blue_left_b));
    3f26:	88 e2       	ldi	r24, 0x28	; 40
    3f28:	90 e0       	ldi	r25, 0x00	; 0
    3f2a:	0e 94 1c 0a 	call	0x1438	; 0x1438 <EEPROM_read_int(int)>
    3f2e:	58 2e       	mov	r5, r24
    3f30:	49 2e       	mov	r4, r25
    3f32:	86 e2       	ldi	r24, 0x26	; 38
    3f34:	90 e0       	ldi	r25, 0x00	; 0
    3f36:	0e 94 1c 0a 	call	0x1438	; 0x1438 <EEPROM_read_int(int)>
    3f3a:	78 2e       	mov	r7, r24
    3f3c:	69 2e       	mov	r6, r25
    3f3e:	84 e2       	ldi	r24, 0x24	; 36
    3f40:	90 e0       	ldi	r25, 0x00	; 0
    3f42:	0e 94 1c 0a 	call	0x1438	; 0x1438 <EEPROM_read_int(int)>
    3f46:	4f 92       	push	r4
    3f48:	5f 92       	push	r5
    3f4a:	6f 92       	push	r6
    3f4c:	7f 92       	push	r7
    3f4e:	9f 93       	push	r25
    3f50:	8f 93       	push	r24
    3f52:	df 92       	push	r13
    3f54:	cf 92       	push	r12
    3f56:	df 93       	push	r29
    3f58:	cf 93       	push	r28
    3f5a:	0e 94 19 09 	call	0x1232	; 0x1232 <Print::printf(char const*, ...) [clone .constprop.28]>
C:\Users\Ryan\Documents\GitHub\sport_main_code_2023/sport_menu.h:1275

      lcd.setCursor(0, 3);
    3f5e:	63 e0       	ldi	r22, 0x03	; 3
    3f60:	80 e0       	ldi	r24, 0x00	; 0
    3f62:	0e 94 67 06 	call	0xcce	; 0xcce <LiquidCrystal::setCursor(unsigned char, unsigned char) [clone .constprop.27]>
C:\Users\Ryan\Documents\GitHub\sport_main_code_2023/sport_menu.h:1276
      lcd.printf("R%4d %4d %4d ", EEPROM_read_int(blue_right_r), EEPROM_read_int(blue_right_g), EEPROM_read_int(blue_right_b));
    3f66:	80 e5       	ldi	r24, 0x50	; 80
    3f68:	90 e0       	ldi	r25, 0x00	; 0
    3f6a:	0e 94 1c 0a 	call	0x1438	; 0x1438 <EEPROM_read_int(int)>
    3f6e:	58 2e       	mov	r5, r24
    3f70:	49 2e       	mov	r4, r25
    3f72:	8e e4       	ldi	r24, 0x4E	; 78
    3f74:	90 e0       	ldi	r25, 0x00	; 0
    3f76:	0e 94 1c 0a 	call	0x1438	; 0x1438 <EEPROM_read_int(int)>
    3f7a:	78 2e       	mov	r7, r24
    3f7c:	69 2e       	mov	r6, r25
    3f7e:	8c e4       	ldi	r24, 0x4C	; 76
    3f80:	90 e0       	ldi	r25, 0x00	; 0
    3f82:	0e 94 1c 0a 	call	0x1438	; 0x1438 <EEPROM_read_int(int)>
    3f86:	4f 92       	push	r4
    3f88:	5f 92       	push	r5
    3f8a:	6f 92       	push	r6
    3f8c:	7f 92       	push	r7
    3f8e:	9f 93       	push	r25
    3f90:	8f 93       	push	r24
    3f92:	bf 92       	push	r11
    3f94:	af 92       	push	r10
    3f96:	df 93       	push	r29
    3f98:	cf 93       	push	r28
    3f9a:	0e 94 19 09 	call	0x1232	; 0x1232 <Print::printf(char const*, ...) [clone .constprop.28]>
    3f9e:	8d b7       	in	r24, 0x3d	; 61
    3fa0:	9e b7       	in	r25, 0x3e	; 62
    3fa2:	44 96       	adiw	r24, 0x14	; 20
    3fa4:	0f b6       	in	r0, 0x3f	; 63
    3fa6:	f8 94       	cli
    3fa8:	9e bf       	out	0x3e, r25	; 62
    3faa:	0f be       	out	0x3f, r0	; 63
    3fac:	8d bf       	out	0x3d, r24	; 61
    3fae:	7f cb       	rjmp	.-2306   	; 0x36ae <menu_color()+0x2c>
C:\Users\Ryan\Documents\GitHub\sport_main_code_2023/sport_menu.h:1277
    } else if (page == 6)  // memory Yellow
    3fb0:	86 30       	cpi	r24, 0x06	; 6
    3fb2:	09 f0       	breq	.+2      	; 0x3fb6 <menu_color()+0x934>
    3fb4:	5a c0       	rjmp	.+180    	; 0x406a <menu_color()+0x9e8>
C:\Users\Ryan\Documents\GitHub\sport_main_code_2023/sport_menu.h:1279
    {
      lcd.setCursor(0, 0);
    3fb6:	60 e0       	ldi	r22, 0x00	; 0
    3fb8:	80 e0       	ldi	r24, 0x00	; 0
    3fba:	0e 94 67 06 	call	0xcce	; 0xcce <LiquidCrystal::setCursor(unsigned char, unsigned char) [clone .constprop.27]>
C:\Users\Ryan\Documents\GitHub\sport_main_code_2023/sport_menu.h:1280
      lcd.print("memory Yel:  ");
    3fbe:	83 e0       	ldi	r24, 0x03	; 3
    3fc0:	95 e0       	ldi	r25, 0x05	; 5
    3fc2:	0e 94 ff 09 	call	0x13fe	; 0x13fe <Print::print(char const*) [clone .constprop.9]>
C:\Users\Ryan\Documents\GitHub\sport_main_code_2023/sport_menu.h:1282

      lcd.setCursor(0, 1);
    3fc6:	61 e0       	ldi	r22, 0x01	; 1
    3fc8:	80 e0       	ldi	r24, 0x00	; 0
    3fca:	0e 94 67 06 	call	0xcce	; 0xcce <LiquidCrystal::setCursor(unsigned char, unsigned char) [clone .constprop.27]>
C:\Users\Ryan\Documents\GitHub\sport_main_code_2023/sport_menu.h:1283
      lcd.print("  RED  GRN  BLU ");
    3fce:	83 e7       	ldi	r24, 0x73	; 115
    3fd0:	94 e0       	ldi	r25, 0x04	; 4
    3fd2:	0e 94 ff 09 	call	0x13fe	; 0x13fe <Print::print(char const*) [clone .constprop.9]>
C:\Users\Ryan\Documents\GitHub\sport_main_code_2023/sport_menu.h:1285

      lcd.setCursor(0, 2);
    3fd6:	62 e0       	ldi	r22, 0x02	; 2
    3fd8:	80 e0       	ldi	r24, 0x00	; 0
    3fda:	0e 94 67 06 	call	0xcce	; 0xcce <LiquidCrystal::setCursor(unsigned char, unsigned char) [clone .constprop.27]>
C:\Users\Ryan\Documents\GitHub\sport_main_code_2023/sport_menu.h:1286
      lcd.printf("L%4d %4d %4d ", EEPROM_read_int(yellow_left_r), EEPROM_read_int(yellow_left_g), EEPROM_read_int(yellow_left_b));
    3fde:	80 e3       	ldi	r24, 0x30	; 48
    3fe0:	90 e0       	ldi	r25, 0x00	; 0
    3fe2:	0e 94 1c 0a 	call	0x1438	; 0x1438 <EEPROM_read_int(int)>
    3fe6:	58 2e       	mov	r5, r24
    3fe8:	49 2e       	mov	r4, r25
    3fea:	8e e2       	ldi	r24, 0x2E	; 46
    3fec:	90 e0       	ldi	r25, 0x00	; 0
    3fee:	0e 94 1c 0a 	call	0x1438	; 0x1438 <EEPROM_read_int(int)>
    3ff2:	78 2e       	mov	r7, r24
    3ff4:	69 2e       	mov	r6, r25
    3ff6:	8c e2       	ldi	r24, 0x2C	; 44
    3ff8:	90 e0       	ldi	r25, 0x00	; 0
    3ffa:	0e 94 1c 0a 	call	0x1438	; 0x1438 <EEPROM_read_int(int)>
    3ffe:	4f 92       	push	r4
    4000:	5f 92       	push	r5
    4002:	6f 92       	push	r6
    4004:	7f 92       	push	r7
    4006:	9f 93       	push	r25
    4008:	8f 93       	push	r24
    400a:	df 92       	push	r13
    400c:	cf 92       	push	r12
    400e:	df 93       	push	r29
    4010:	cf 93       	push	r28
    4012:	0e 94 19 09 	call	0x1232	; 0x1232 <Print::printf(char const*, ...) [clone .constprop.28]>
C:\Users\Ryan\Documents\GitHub\sport_main_code_2023/sport_menu.h:1288

      lcd.setCursor(0, 3);
    4016:	63 e0       	ldi	r22, 0x03	; 3
    4018:	80 e0       	ldi	r24, 0x00	; 0
    401a:	0e 94 67 06 	call	0xcce	; 0xcce <LiquidCrystal::setCursor(unsigned char, unsigned char) [clone .constprop.27]>
C:\Users\Ryan\Documents\GitHub\sport_main_code_2023/sport_menu.h:1289
      lcd.printf("R%4d %4d %4d ", EEPROM_read_int(yellow_right_r), EEPROM_read_int(yellow_right_g), EEPROM_read_int(yellow_right_b));
    401e:	88 e5       	ldi	r24, 0x58	; 88
    4020:	90 e0       	ldi	r25, 0x00	; 0
    4022:	0e 94 1c 0a 	call	0x1438	; 0x1438 <EEPROM_read_int(int)>
    4026:	58 2e       	mov	r5, r24
    4028:	49 2e       	mov	r4, r25
    402a:	86 e5       	ldi	r24, 0x56	; 86
    402c:	90 e0       	ldi	r25, 0x00	; 0
    402e:	0e 94 1c 0a 	call	0x1438	; 0x1438 <EEPROM_read_int(int)>
    4032:	78 2e       	mov	r7, r24
    4034:	69 2e       	mov	r6, r25
    4036:	84 e5       	ldi	r24, 0x54	; 84
    4038:	90 e0       	ldi	r25, 0x00	; 0
    403a:	0e 94 1c 0a 	call	0x1438	; 0x1438 <EEPROM_read_int(int)>
    403e:	4f 92       	push	r4
    4040:	5f 92       	push	r5
    4042:	6f 92       	push	r6
    4044:	7f 92       	push	r7
    4046:	9f 93       	push	r25
    4048:	8f 93       	push	r24
    404a:	bf 92       	push	r11
    404c:	af 92       	push	r10
    404e:	df 93       	push	r29
    4050:	cf 93       	push	r28
    4052:	0e 94 19 09 	call	0x1232	; 0x1232 <Print::printf(char const*, ...) [clone .constprop.28]>
    4056:	2d b7       	in	r18, 0x3d	; 61
    4058:	3e b7       	in	r19, 0x3e	; 62
    405a:	2c 5e       	subi	r18, 0xEC	; 236
    405c:	3f 4f       	sbci	r19, 0xFF	; 255
    405e:	0f b6       	in	r0, 0x3f	; 63
    4060:	f8 94       	cli
    4062:	3e bf       	out	0x3e, r19	; 62
    4064:	0f be       	out	0x3f, r0	; 63
    4066:	2d bf       	out	0x3d, r18	; 61
    4068:	22 cb       	rjmp	.-2492   	; 0x36ae <menu_color()+0x2c>
C:\Users\Ryan\Documents\GitHub\sport_main_code_2023/sport_menu.h:1290
    } else if (page == 7)  // memory Silver
    406a:	87 30       	cpi	r24, 0x07	; 7
    406c:	09 f0       	breq	.+2      	; 0x4070 <menu_color()+0x9ee>
    406e:	6d c0       	rjmp	.+218    	; 0x414a <menu_color()+0xac8>
C:\Users\Ryan\Documents\GitHub\sport_main_code_2023/sport_menu.h:1292
    {
      lcd.setCursor(0, 0);
    4070:	60 e0       	ldi	r22, 0x00	; 0
    4072:	80 e0       	ldi	r24, 0x00	; 0
    4074:	0e 94 67 06 	call	0xcce	; 0xcce <LiquidCrystal::setCursor(unsigned char, unsigned char) [clone .constprop.27]>
C:\Users\Ryan\Documents\GitHub\sport_main_code_2023/sport_menu.h:1293
      lcd.print("memory Silver:  ");
    4078:	81 e1       	ldi	r24, 0x11	; 17
    407a:	95 e0       	ldi	r25, 0x05	; 5
    407c:	0e 94 ff 09 	call	0x13fe	; 0x13fe <Print::print(char const*) [clone .constprop.9]>
C:\Users\Ryan\Documents\GitHub\sport_main_code_2023/sport_menu.h:1295

      lcd.setCursor(0, 1);
    4080:	61 e0       	ldi	r22, 0x01	; 1
    4082:	80 e0       	ldi	r24, 0x00	; 0
    4084:	0e 94 67 06 	call	0xcce	; 0xcce <LiquidCrystal::setCursor(unsigned char, unsigned char) [clone .constprop.27]>
C:\Users\Ryan\Documents\GitHub\sport_main_code_2023/sport_menu.h:1296
      lcd.print("  RED  GRN  BLU ");
    4088:	83 e7       	ldi	r24, 0x73	; 115
    408a:	94 e0       	ldi	r25, 0x04	; 4
    408c:	0e 94 ff 09 	call	0x13fe	; 0x13fe <Print::print(char const*) [clone .constprop.9]>
C:\Users\Ryan\Documents\GitHub\sport_main_code_2023/sport_menu.h:1298

      lcd.setCursor(0, 2);
    4090:	62 e0       	ldi	r22, 0x02	; 2
    4092:	80 e0       	ldi	r24, 0x00	; 0
    4094:	0e 94 67 06 	call	0xcce	; 0xcce <LiquidCrystal::setCursor(unsigned char, unsigned char) [clone .constprop.27]>
C:\Users\Ryan\Documents\GitHub\sport_main_code_2023/sport_menu.h:1299
      lcd.printf("L%4d %4d %4d %4d", EEPROM_read_int(silver_left_r), EEPROM_read_int(silver_left_g), EEPROM_read_int(silver_left_b), EEPROM_read_int(silver_left_c));
    4098:	8a e3       	ldi	r24, 0x3A	; 58
    409a:	90 e0       	ldi	r25, 0x00	; 0
    409c:	0e 94 1c 0a 	call	0x1438	; 0x1438 <EEPROM_read_int(int)>
    40a0:	38 2e       	mov	r3, r24
    40a2:	29 2e       	mov	r2, r25
    40a4:	88 e3       	ldi	r24, 0x38	; 56
    40a6:	90 e0       	ldi	r25, 0x00	; 0
    40a8:	0e 94 1c 0a 	call	0x1438	; 0x1438 <EEPROM_read_int(int)>
    40ac:	58 2e       	mov	r5, r24
    40ae:	49 2e       	mov	r4, r25
    40b0:	86 e3       	ldi	r24, 0x36	; 54
    40b2:	90 e0       	ldi	r25, 0x00	; 0
    40b4:	0e 94 1c 0a 	call	0x1438	; 0x1438 <EEPROM_read_int(int)>
    40b8:	78 2e       	mov	r7, r24
    40ba:	69 2e       	mov	r6, r25
    40bc:	84 e3       	ldi	r24, 0x34	; 52
    40be:	90 e0       	ldi	r25, 0x00	; 0
    40c0:	0e 94 1c 0a 	call	0x1438	; 0x1438 <EEPROM_read_int(int)>
    40c4:	2f 92       	push	r2
    40c6:	3f 92       	push	r3
    40c8:	4f 92       	push	r4
    40ca:	5f 92       	push	r5
    40cc:	6f 92       	push	r6
    40ce:	7f 92       	push	r7
    40d0:	9f 93       	push	r25
    40d2:	8f 93       	push	r24
    40d4:	82 e2       	ldi	r24, 0x22	; 34
    40d6:	95 e0       	ldi	r25, 0x05	; 5
    40d8:	9f 93       	push	r25
    40da:	8f 93       	push	r24
    40dc:	df 93       	push	r29
    40de:	cf 93       	push	r28
    40e0:	0e 94 19 09 	call	0x1232	; 0x1232 <Print::printf(char const*, ...) [clone .constprop.28]>
C:\Users\Ryan\Documents\GitHub\sport_main_code_2023/sport_menu.h:1301

      lcd.setCursor(0, 3);
    40e4:	63 e0       	ldi	r22, 0x03	; 3
    40e6:	80 e0       	ldi	r24, 0x00	; 0
    40e8:	0e 94 67 06 	call	0xcce	; 0xcce <LiquidCrystal::setCursor(unsigned char, unsigned char) [clone .constprop.27]>
C:\Users\Ryan\Documents\GitHub\sport_main_code_2023/sport_menu.h:1302
      lcd.printf("R%4d %4d %4d %4d", EEPROM_read_int(silver_right_r), EEPROM_read_int(silver_right_g), EEPROM_read_int(silver_right_b), EEPROM_read_int(silver_right_c));
    40ec:	82 e6       	ldi	r24, 0x62	; 98
    40ee:	90 e0       	ldi	r25, 0x00	; 0
    40f0:	0e 94 1c 0a 	call	0x1438	; 0x1438 <EEPROM_read_int(int)>
    40f4:	38 2e       	mov	r3, r24
    40f6:	29 2e       	mov	r2, r25
    40f8:	80 e6       	ldi	r24, 0x60	; 96
    40fa:	90 e0       	ldi	r25, 0x00	; 0
    40fc:	0e 94 1c 0a 	call	0x1438	; 0x1438 <EEPROM_read_int(int)>
    4100:	58 2e       	mov	r5, r24
    4102:	49 2e       	mov	r4, r25
    4104:	8e e5       	ldi	r24, 0x5E	; 94
    4106:	90 e0       	ldi	r25, 0x00	; 0
    4108:	0e 94 1c 0a 	call	0x1438	; 0x1438 <EEPROM_read_int(int)>
    410c:	78 2e       	mov	r7, r24
    410e:	69 2e       	mov	r6, r25
    4110:	8c e5       	ldi	r24, 0x5C	; 92
    4112:	90 e0       	ldi	r25, 0x00	; 0
    4114:	0e 94 1c 0a 	call	0x1438	; 0x1438 <EEPROM_read_int(int)>
    4118:	2f 92       	push	r2
    411a:	3f 92       	push	r3
    411c:	4f 92       	push	r4
    411e:	5f 92       	push	r5
    4120:	6f 92       	push	r6
    4122:	7f 92       	push	r7
    4124:	9f 93       	push	r25
    4126:	8f 93       	push	r24
    4128:	23 e3       	ldi	r18, 0x33	; 51
    412a:	35 e0       	ldi	r19, 0x05	; 5
    412c:	3f 93       	push	r19
    412e:	2f 93       	push	r18
    4130:	df 93       	push	r29
    4132:	cf 93       	push	r28
    4134:	0e 94 19 09 	call	0x1232	; 0x1232 <Print::printf(char const*, ...) [clone .constprop.28]>
    4138:	8d b7       	in	r24, 0x3d	; 61
    413a:	9e b7       	in	r25, 0x3e	; 62
    413c:	48 96       	adiw	r24, 0x18	; 24
    413e:	0f b6       	in	r0, 0x3f	; 63
    4140:	f8 94       	cli
    4142:	9e bf       	out	0x3e, r25	; 62
    4144:	0f be       	out	0x3f, r0	; 63
    4146:	8d bf       	out	0x3d, r24	; 61
    4148:	b2 ca       	rjmp	.-2716   	; 0x36ae <menu_color()+0x2c>
C:\Users\Ryan\Documents\GitHub\sport_main_code_2023/sport_menu.h:1303
    } else if (page == 8)  // APDS Front
    414a:	88 30       	cpi	r24, 0x08	; 8
    414c:	09 f0       	breq	.+2      	; 0x4150 <menu_color()+0xace>
    414e:	af ca       	rjmp	.-2722   	; 0x36ae <menu_color()+0x2c>
C:\Users\Ryan\Documents\GitHub\sport_main_code_2023/sport_menu.h:1305
    {
      lcd.setCursor(0, 0);
    4150:	60 e0       	ldi	r22, 0x00	; 0
    4152:	80 e0       	ldi	r24, 0x00	; 0
    4154:	0e 94 67 06 	call	0xcce	; 0xcce <LiquidCrystal::setCursor(unsigned char, unsigned char) [clone .constprop.27]>
C:\Users\Ryan\Documents\GitHub\sport_main_code_2023/sport_menu.h:1306
      lcd.print("APDS Front: ");
    4158:	84 e4       	ldi	r24, 0x44	; 68
    415a:	95 e0       	ldi	r25, 0x05	; 5
    415c:	0e 94 ff 09 	call	0x13fe	; 0x13fe <Print::print(char const*) [clone .constprop.9]>
C:\Users\Ryan\Documents\GitHub\sport_main_code_2023/sport_menu.h:1307
      lcd.setCursor(0, 1);
    4160:	61 e0       	ldi	r22, 0x01	; 1
    4162:	80 e0       	ldi	r24, 0x00	; 0
    4164:	0e 94 67 06 	call	0xcce	; 0xcce <LiquidCrystal::setCursor(unsigned char, unsigned char) [clone .constprop.27]>
C:\Users\Ryan\Documents\GitHub\sport_main_code_2023/sport_menu.h:1308
      lcd.print("  RED  GRN  BLU ");
    4168:	83 e7       	ldi	r24, 0x73	; 115
    416a:	94 e0       	ldi	r25, 0x04	; 4
    416c:	0e 94 ff 09 	call	0x13fe	; 0x13fe <Print::print(char const*) [clone .constprop.9]>
C:\Users\Ryan\Documents\GitHub\sport_main_code_2023/sport_menu.h:1310

      lcd.setCursor(0, 2);
    4170:	62 e0       	ldi	r22, 0x02	; 2
    4172:	80 e0       	ldi	r24, 0x00	; 0
    4174:	0e 94 67 06 	call	0xcce	; 0xcce <LiquidCrystal::setCursor(unsigned char, unsigned char) [clone .constprop.27]>
C:\Users\Ryan\Documents\GitHub\sport_main_code_2023/sport_menu.h:1311
      lcd.printf(" %4d %4d %4d %4d", red, green, blue, clear);
    4178:	80 91 c6 08 	lds	r24, 0x08C6	; 0x8008c6 <clear+0x1>
    417c:	8f 93       	push	r24
    417e:	80 91 c5 08 	lds	r24, 0x08C5	; 0x8008c5 <clear>
    4182:	8f 93       	push	r24
    4184:	80 91 c8 08 	lds	r24, 0x08C8	; 0x8008c8 <blue+0x1>
    4188:	8f 93       	push	r24
    418a:	80 91 c7 08 	lds	r24, 0x08C7	; 0x8008c7 <blue>
    418e:	8f 93       	push	r24
    4190:	80 91 ca 08 	lds	r24, 0x08CA	; 0x8008ca <green+0x1>
    4194:	8f 93       	push	r24
    4196:	80 91 c9 08 	lds	r24, 0x08C9	; 0x8008c9 <green>
    419a:	8f 93       	push	r24
    419c:	80 91 cc 08 	lds	r24, 0x08CC	; 0x8008cc <red+0x1>
    41a0:	8f 93       	push	r24
    41a2:	80 91 cb 08 	lds	r24, 0x08CB	; 0x8008cb <red>
    41a6:	8f 93       	push	r24
    41a8:	9f 92       	push	r9
    41aa:	8f 92       	push	r8
    41ac:	df 93       	push	r29
    41ae:	cf 93       	push	r28
    41b0:	0e 94 19 09 	call	0x1232	; 0x1232 <Print::printf(char const*, ...) [clone .constprop.28]>
C:\Users\Ryan\Documents\GitHub\sport_main_code_2023/sport_menu.h:1313

      lcd.setCursor(12, 0);
    41b4:	60 e0       	ldi	r22, 0x00	; 0
    41b6:	8c e0       	ldi	r24, 0x0C	; 12
    41b8:	0e 94 67 06 	call	0xcce	; 0xcce <LiquidCrystal::setCursor(unsigned char, unsigned char) [clone .constprop.27]>
C:\Users\Ryan\Documents\GitHub\sport_main_code_2023/sport_menu.h:1314
      if (color_F == RED) {
    41bc:	83 e0       	ldi	r24, 0x03	; 3
    41be:	0e 94 32 0a 	call	0x1464	; 0x1464 <color(char)>
    41c2:	2d b7       	in	r18, 0x3d	; 61
    41c4:	3e b7       	in	r19, 0x3e	; 62
    41c6:	24 5f       	subi	r18, 0xF4	; 244
    41c8:	3f 4f       	sbci	r19, 0xFF	; 255
    41ca:	0f b6       	in	r0, 0x3f	; 63
    41cc:	f8 94       	cli
    41ce:	3e bf       	out	0x3e, r19	; 62
    41d0:	0f be       	out	0x3f, r0	; 63
    41d2:	2d bf       	out	0x3d, r18	; 61
    41d4:	81 11       	cpse	r24, r1
    41d6:	3a c0       	rjmp	.+116    	; 0x424c <menu_color()+0xbca>
C:\Users\Ryan\Documents\GitHub\sport_main_code_2023/sport_menu.h:1315
        lcd.setCursor(12, 0);
    41d8:	60 e0       	ldi	r22, 0x00	; 0
    41da:	8c e0       	ldi	r24, 0x0C	; 12
    41dc:	0e 94 67 06 	call	0xcce	; 0xcce <LiquidCrystal::setCursor(unsigned char, unsigned char) [clone .constprop.27]>
C:\Users\Ryan\Documents\GitHub\sport_main_code_2023/sport_menu.h:1316
        lcd.print("RED ");
    41e0:	84 e8       	ldi	r24, 0x84	; 132
    41e2:	94 e0       	ldi	r25, 0x04	; 4
    41e4:	0e 94 ff 09 	call	0x13fe	; 0x13fe <Print::print(char const*) [clone .constprop.9]>
C:\Users\Ryan\Documents\GitHub\sport_main_code_2023/sport_menu.h:1317
        lcd.setCursor(0, 3);
    41e8:	63 e0       	ldi	r22, 0x03	; 3
    41ea:	80 e0       	ldi	r24, 0x00	; 0
    41ec:	0e 94 67 06 	call	0xcce	; 0xcce <LiquidCrystal::setCursor(unsigned char, unsigned char) [clone .constprop.27]>
C:\Users\Ryan\Documents\GitHub\sport_main_code_2023/sport_menu.h:1318
        lcd.printf("M%4d %4d %4d %4d ", EEPROM_read_int(red_front_r), EEPROM_read_int(red_front_g), EEPROM_read_int(red_front_b), EEPROM_read_int(red_front_c));
    41f0:	8a e6       	ldi	r24, 0x6A	; 106
    41f2:	90 e0       	ldi	r25, 0x00	; 0
    41f4:	0e 94 1c 0a 	call	0x1438	; 0x1438 <EEPROM_read_int(int)>
    41f8:	38 2e       	mov	r3, r24
    41fa:	29 2e       	mov	r2, r25
    41fc:	88 e6       	ldi	r24, 0x68	; 104
    41fe:	90 e0       	ldi	r25, 0x00	; 0
    4200:	0e 94 1c 0a 	call	0x1438	; 0x1438 <EEPROM_read_int(int)>
    4204:	58 2e       	mov	r5, r24
    4206:	49 2e       	mov	r4, r25
    4208:	86 e6       	ldi	r24, 0x66	; 102
    420a:	90 e0       	ldi	r25, 0x00	; 0
    420c:	0e 94 1c 0a 	call	0x1438	; 0x1438 <EEPROM_read_int(int)>
    4210:	78 2e       	mov	r7, r24
    4212:	69 2e       	mov	r6, r25
    4214:	84 e6       	ldi	r24, 0x64	; 100
    4216:	90 e0       	ldi	r25, 0x00	; 0
    4218:	0e 94 1c 0a 	call	0x1438	; 0x1438 <EEPROM_read_int(int)>
    421c:	2f 92       	push	r2
    421e:	3f 92       	push	r3
    4220:	4f 92       	push	r4
    4222:	5f 92       	push	r5
    4224:	6f 92       	push	r6
    4226:	7f 92       	push	r7
    4228:	9f 93       	push	r25
    422a:	8f 93       	push	r24
    422c:	ff 92       	push	r15
    422e:	ef 92       	push	r14
    4230:	df 93       	push	r29
    4232:	cf 93       	push	r28
    4234:	0e 94 19 09 	call	0x1232	; 0x1232 <Print::printf(char const*, ...) [clone .constprop.28]>
    4238:	2d b7       	in	r18, 0x3d	; 61
    423a:	3e b7       	in	r19, 0x3e	; 62
    423c:	24 5f       	subi	r18, 0xF4	; 244
    423e:	3f 4f       	sbci	r19, 0xFF	; 255
    4240:	0f b6       	in	r0, 0x3f	; 63
    4242:	f8 94       	cli
    4244:	3e bf       	out	0x3e, r19	; 62
    4246:	0f be       	out	0x3f, r0	; 63
    4248:	2d bf       	out	0x3d, r18	; 61
    424a:	31 ca       	rjmp	.-2974   	; 0x36ae <menu_color()+0x2c>
C:\Users\Ryan\Documents\GitHub\sport_main_code_2023/sport_menu.h:1319
      } else if (color_F == GREEN) {
    424c:	83 e0       	ldi	r24, 0x03	; 3
    424e:	0e 94 32 0a 	call	0x1464	; 0x1464 <color(char)>
    4252:	81 30       	cpi	r24, 0x01	; 1
    4254:	d1 f5       	brne	.+116    	; 0x42ca <menu_color()+0xc48>
C:\Users\Ryan\Documents\GitHub\sport_main_code_2023/sport_menu.h:1320
        lcd.setCursor(12, 0);
    4256:	60 e0       	ldi	r22, 0x00	; 0
    4258:	8c e0       	ldi	r24, 0x0C	; 12
    425a:	0e 94 67 06 	call	0xcce	; 0xcce <LiquidCrystal::setCursor(unsigned char, unsigned char) [clone .constprop.27]>
C:\Users\Ryan\Documents\GitHub\sport_main_code_2023/sport_menu.h:1321
        lcd.print("GRN ");
    425e:	8b e9       	ldi	r24, 0x9B	; 155
    4260:	94 e0       	ldi	r25, 0x04	; 4
    4262:	0e 94 ff 09 	call	0x13fe	; 0x13fe <Print::print(char const*) [clone .constprop.9]>
C:\Users\Ryan\Documents\GitHub\sport_main_code_2023/sport_menu.h:1322
        lcd.setCursor(0, 3);
    4266:	63 e0       	ldi	r22, 0x03	; 3
    4268:	80 e0       	ldi	r24, 0x00	; 0
    426a:	0e 94 67 06 	call	0xcce	; 0xcce <LiquidCrystal::setCursor(unsigned char, unsigned char) [clone .constprop.27]>
C:\Users\Ryan\Documents\GitHub\sport_main_code_2023/sport_menu.h:1323
        lcd.printf("M%4d %4d %4d %4d ", EEPROM_read_int(green_front_r), EEPROM_read_int(green_front_g), EEPROM_read_int(green_front_b), EEPROM_read_int(green_front_c));
    426e:	82 e7       	ldi	r24, 0x72	; 114
    4270:	90 e0       	ldi	r25, 0x00	; 0
    4272:	0e 94 1c 0a 	call	0x1438	; 0x1438 <EEPROM_read_int(int)>
    4276:	38 2e       	mov	r3, r24
    4278:	29 2e       	mov	r2, r25
    427a:	80 e7       	ldi	r24, 0x70	; 112
    427c:	90 e0       	ldi	r25, 0x00	; 0
    427e:	0e 94 1c 0a 	call	0x1438	; 0x1438 <EEPROM_read_int(int)>
    4282:	58 2e       	mov	r5, r24
    4284:	49 2e       	mov	r4, r25
    4286:	8e e6       	ldi	r24, 0x6E	; 110
    4288:	90 e0       	ldi	r25, 0x00	; 0
    428a:	0e 94 1c 0a 	call	0x1438	; 0x1438 <EEPROM_read_int(int)>
    428e:	78 2e       	mov	r7, r24
    4290:	69 2e       	mov	r6, r25
    4292:	8c e6       	ldi	r24, 0x6C	; 108
    4294:	90 e0       	ldi	r25, 0x00	; 0
    4296:	0e 94 1c 0a 	call	0x1438	; 0x1438 <EEPROM_read_int(int)>
    429a:	2f 92       	push	r2
    429c:	3f 92       	push	r3
    429e:	4f 92       	push	r4
    42a0:	5f 92       	push	r5
    42a2:	6f 92       	push	r6
    42a4:	7f 92       	push	r7
    42a6:	9f 93       	push	r25
    42a8:	8f 93       	push	r24
    42aa:	ff 92       	push	r15
    42ac:	ef 92       	push	r14
    42ae:	df 93       	push	r29
    42b0:	cf 93       	push	r28
    42b2:	0e 94 19 09 	call	0x1232	; 0x1232 <Print::printf(char const*, ...) [clone .constprop.28]>
    42b6:	2d b7       	in	r18, 0x3d	; 61
    42b8:	3e b7       	in	r19, 0x3e	; 62
    42ba:	24 5f       	subi	r18, 0xF4	; 244
    42bc:	3f 4f       	sbci	r19, 0xFF	; 255
    42be:	0f b6       	in	r0, 0x3f	; 63
    42c0:	f8 94       	cli
    42c2:	3e bf       	out	0x3e, r19	; 62
    42c4:	0f be       	out	0x3f, r0	; 63
    42c6:	2d bf       	out	0x3d, r18	; 61
    42c8:	f2 c9       	rjmp	.-3100   	; 0x36ae <menu_color()+0x2c>
C:\Users\Ryan\Documents\GitHub\sport_main_code_2023/sport_menu.h:1324
      } else if (color_F == WHITE) {
    42ca:	83 e0       	ldi	r24, 0x03	; 3
    42cc:	50 cd       	rjmp	.-1376   	; 0x3d6e <menu_color()+0x6ec>

000042ce <global constructors keyed to 65535_0_sport_main_code_2023.ino.cpp.o.2354>:
_GLOBAL__I_65535_0_sport_main_code_2023.ino.cpp.o.2354():
    42ce:	e9 e7       	ldi	r30, 0x79	; 121
    42d0:	f9 e0       	ldi	r31, 0x09	; 9
    42d2:	13 82       	std	Z+3, r1	; 0x03
    42d4:	12 82       	std	Z+2, r1	; 0x02
    42d6:	88 ee       	ldi	r24, 0xE8	; 232
    42d8:	93 e0       	ldi	r25, 0x03	; 3
    42da:	a0 e0       	ldi	r26, 0x00	; 0
    42dc:	b0 e0       	ldi	r27, 0x00	; 0
    42de:	84 83       	std	Z+4, r24	; 0x04
    42e0:	95 83       	std	Z+5, r25	; 0x05
    42e2:	a6 83       	std	Z+6, r26	; 0x06
    42e4:	b7 83       	std	Z+7, r27	; 0x07
    42e6:	2e e0       	ldi	r18, 0x0E	; 14
    42e8:	33 e0       	ldi	r19, 0x03	; 3
    42ea:	31 83       	std	Z+1, r19	; 0x01
    42ec:	20 83       	st	Z, r18
    42ee:	48 e9       	ldi	r20, 0x98	; 152
    42f0:	50 e0       	ldi	r21, 0x00	; 0
    42f2:	55 87       	std	Z+13, r21	; 0x0d
    42f4:	44 87       	std	Z+12, r20	; 0x0c
    42f6:	49 e9       	ldi	r20, 0x99	; 153
    42f8:	50 e0       	ldi	r21, 0x00	; 0
    42fa:	57 87       	std	Z+15, r21	; 0x0f
    42fc:	46 87       	std	Z+14, r20	; 0x0e
    42fe:	4b e9       	ldi	r20, 0x9B	; 155
    4300:	50 e0       	ldi	r21, 0x00	; 0
    4302:	51 8b       	std	Z+17, r21	; 0x11
    4304:	40 8b       	std	Z+16, r20	; 0x10
    4306:	4a e9       	ldi	r20, 0x9A	; 154
    4308:	50 e0       	ldi	r21, 0x00	; 0
    430a:	53 8b       	std	Z+19, r21	; 0x13
    430c:	42 8b       	std	Z+18, r20	; 0x12
    430e:	4d e9       	ldi	r20, 0x9D	; 157
    4310:	50 e0       	ldi	r21, 0x00	; 0
    4312:	55 8b       	std	Z+21, r21	; 0x15
    4314:	44 8b       	std	Z+20, r20	; 0x14
    4316:	4c e9       	ldi	r20, 0x9C	; 156
    4318:	50 e0       	ldi	r21, 0x00	; 0
    431a:	57 8b       	std	Z+23, r21	; 0x17
    431c:	46 8b       	std	Z+22, r20	; 0x16
    431e:	11 8e       	std	Z+25, r1	; 0x19
    4320:	12 8e       	std	Z+26, r1	; 0x1a
    4322:	13 8e       	std	Z+27, r1	; 0x1b
    4324:	14 8e       	std	Z+28, r1	; 0x1c
    4326:	e6 e1       	ldi	r30, 0x16	; 22
    4328:	fa e0       	ldi	r31, 0x0A	; 10
    432a:	13 82       	std	Z+3, r1	; 0x03
    432c:	12 82       	std	Z+2, r1	; 0x02
    432e:	84 83       	std	Z+4, r24	; 0x04
    4330:	95 83       	std	Z+5, r25	; 0x05
    4332:	a6 83       	std	Z+6, r26	; 0x06
    4334:	b7 83       	std	Z+7, r27	; 0x07
    4336:	31 83       	std	Z+1, r19	; 0x01
    4338:	20 83       	st	Z, r18
    433a:	20 e9       	ldi	r18, 0x90	; 144
    433c:	30 e0       	ldi	r19, 0x00	; 0
    433e:	35 87       	std	Z+13, r19	; 0x0d
    4340:	24 87       	std	Z+12, r18	; 0x0c
    4342:	29 e2       	ldi	r18, 0x29	; 41
    4344:	30 e0       	ldi	r19, 0x00	; 0
    4346:	37 87       	std	Z+15, r19	; 0x0f
    4348:	26 87       	std	Z+14, r18	; 0x0e
    434a:	2b e2       	ldi	r18, 0x2B	; 43
    434c:	30 e0       	ldi	r19, 0x00	; 0
    434e:	31 8b       	std	Z+17, r19	; 0x11
    4350:	20 8b       	std	Z+16, r18	; 0x10
    4352:	2a e2       	ldi	r18, 0x2A	; 42
    4354:	30 e0       	ldi	r19, 0x00	; 0
    4356:	33 8b       	std	Z+19, r19	; 0x13
    4358:	22 8b       	std	Z+18, r18	; 0x12
    435a:	25 e9       	ldi	r18, 0x95	; 149
    435c:	30 e0       	ldi	r19, 0x00	; 0
    435e:	35 8b       	std	Z+21, r19	; 0x15
    4360:	24 8b       	std	Z+20, r18	; 0x14
    4362:	2c e2       	ldi	r18, 0x2C	; 44
    4364:	30 e0       	ldi	r19, 0x00	; 0
    4366:	37 8b       	std	Z+23, r19	; 0x17
    4368:	26 8b       	std	Z+22, r18	; 0x16
    436a:	11 8e       	std	Z+25, r1	; 0x19
    436c:	12 8e       	std	Z+26, r1	; 0x1a
    436e:	13 8e       	std	Z+27, r1	; 0x1b
    4370:	14 8e       	std	Z+28, r1	; 0x1c
    4372:	e3 eb       	ldi	r30, 0xB3	; 179
    4374:	fa e0       	ldi	r31, 0x0A	; 10
    4376:	13 82       	std	Z+3, r1	; 0x03
    4378:	12 82       	std	Z+2, r1	; 0x02
    437a:	84 83       	std	Z+4, r24	; 0x04
    437c:	95 83       	std	Z+5, r25	; 0x05
    437e:	a6 83       	std	Z+6, r26	; 0x06
    4380:	b7 83       	std	Z+7, r27	; 0x07
    4382:	80 e2       	ldi	r24, 0x20	; 32
    4384:	93 e0       	ldi	r25, 0x03	; 3
    4386:	91 83       	std	Z+1, r25	; 0x01
    4388:	80 83       	st	Z, r24
    438a:	ef eb       	ldi	r30, 0xBF	; 191
    438c:	fa e0       	ldi	r31, 0x0A	; 10
    438e:	13 82       	std	Z+3, r1	; 0x03
    4390:	12 82       	std	Z+2, r1	; 0x02
    4392:	82 e3       	ldi	r24, 0x32	; 50
    4394:	93 e0       	ldi	r25, 0x03	; 3
    4396:	91 83       	std	Z+1, r25	; 0x01
    4398:	80 83       	st	Z, r24
    439a:	8c e1       	ldi	r24, 0x1C	; 28
    439c:	84 83       	std	Z+4, r24	; 0x04
    439e:	8f ef       	ldi	r24, 0xFF	; 255
    43a0:	85 83       	std	Z+5, r24	; 0x05
    43a2:	8e e1       	ldi	r24, 0x1E	; 30
    43a4:	86 83       	std	Z+6, r24	; 0x06
    43a6:	8f e1       	ldi	r24, 0x1F	; 31
    43a8:	87 83       	std	Z+7, r24	; 0x07
    43aa:	80 e2       	ldi	r24, 0x20	; 32
    43ac:	80 87       	std	Z+8, r24	; 0x08
    43ae:	81 e2       	ldi	r24, 0x21	; 33
    43b0:	81 87       	std	Z+9, r24	; 0x09
    43b2:	82 e2       	ldi	r24, 0x22	; 34
    43b4:	82 87       	std	Z+10, r24	; 0x0a
    43b6:	13 86       	std	Z+11, r1	; 0x0b
    43b8:	14 86       	std	Z+12, r1	; 0x0c
    43ba:	15 86       	std	Z+13, r1	; 0x0d
    43bc:	16 86       	std	Z+14, r1	; 0x0e
    43be:	17 86       	std	Z+15, r1	; 0x0f
    43c0:	61 e0       	ldi	r22, 0x01	; 1
    43c2:	80 e1       	ldi	r24, 0x10	; 16
    43c4:	0c 94 c6 05 	jmp	0xb8c	; 0xb8c <LiquidCrystal::begin(unsigned char, unsigned char, unsigned char) [clone .constprop.36]>

000043c8 <main>:
init():
C:\Users\Ryan\AppData\Local\Arduino15\packages\MegaCore\hardware\avr\3.0.3\cores\MCUdude_corefiles/wiring.c:945

void init()
{
  // this needs to be called before setup() or some functions won't
  // work there
  sei();
    43c8:	78 94       	sei
C:\Users\Ryan\AppData\Local\Arduino15\packages\MegaCore\hardware\avr\3.0.3\cores\MCUdude_corefiles/wiring.c:963
#endif

  // Set timer 0 prescale factor to 64
#if defined(__AVR_ATmega64__) || defined(__AVR_ATmega128__)
  // CPU specific: different values for the ATmega64/128
  TCCR0 |= _BV(WGM01) | _BV(WGM00) | _BV(CS02);
    43ca:	83 b7       	in	r24, 0x33	; 51
    43cc:	8c 64       	ori	r24, 0x4C	; 76
    43ce:	83 bf       	out	0x33, r24	; 51
C:\Users\Ryan\AppData\Local\Arduino15\packages\MegaCore\hardware\avr\3.0.3\cores\MCUdude_corefiles/wiring.c:982
  #error Timer 0 prescale factor 64 not set correctly
#endif

// Enable timer 0 overflow interrupt
#if defined(TIMSK) && defined(TOIE0)
  TIMSK |= _BV(TOIE0);
    43d0:	87 b7       	in	r24, 0x37	; 55
    43d2:	81 60       	ori	r24, 0x01	; 1
    43d4:	87 bf       	out	0x37, r24	; 55
C:\Users\Ryan\AppData\Local\Arduino15\packages\MegaCore\hardware\avr\3.0.3\cores\MCUdude_corefiles/wiring.c:995
// this is better for motors as it ensures an even waveform
// note, however, that fast pwm mode can achieve a frequency of up
// 8 MHz (with a 16 MHz clock) at 50% duty cycle

#if defined(TCCR1B) && defined(CS11) && defined(CS10)
  TCCR1B = _BV(CS11); // Set timer 1 prescale factor to 64
    43d6:	c2 e0       	ldi	r28, 0x02	; 2
    43d8:	ce bd       	out	0x2e, r28	; 46
C:\Users\Ryan\AppData\Local\Arduino15\packages\MegaCore\hardware\avr\3.0.3\cores\MCUdude_corefiles/wiring.c:997
#if F_CPU >= 8000000L
  TCCR1B |= _BV(CS10);
    43da:	8e b5       	in	r24, 0x2e	; 46
    43dc:	81 60       	ori	r24, 0x01	; 1
    43de:	8e bd       	out	0x2e, r24	; 46
C:\Users\Ryan\AppData\Local\Arduino15\packages\MegaCore\hardware\avr\3.0.3\cores\MCUdude_corefiles/wiring.c:1006
#if F_CPU >= 8000000L
  TCCR1 |= _BV(CS10);
#endif
#endif
#if defined(TCCR1A) && defined(WGM10)
  TCCR1A |= _BV(WGM10); // Put timer 1 in 8-bit phase correct pwm mode
    43e0:	8f b5       	in	r24, 0x2f	; 47
    43e2:	81 60       	ori	r24, 0x01	; 1
    43e4:	8f bd       	out	0x2f, r24	; 47
C:\Users\Ryan\AppData\Local\Arduino15\packages\MegaCore\hardware\avr\3.0.3\cores\MCUdude_corefiles/wiring.c:1011
#endif

// Set timer 2 prescale factor to 64
#if defined(TCCR2) && defined(CS22)
  TCCR2 |= _BV(CS22);
    43e6:	85 b5       	in	r24, 0x25	; 37
    43e8:	84 60       	ori	r24, 0x04	; 4
    43ea:	85 bd       	out	0x25, r24	; 37
C:\Users\Ryan\AppData\Local\Arduino15\packages\MegaCore\hardware\avr\3.0.3\cores\MCUdude_corefiles/wiring.c:1020
  TCCR2A |= _BV(CS22);
#endif

// Configure timer 2 for phase correct pwm (8-bit)
#if defined(TCCR2) && defined(WGM20)
  TCCR2 |= _BV(WGM20);
    43ec:	85 b5       	in	r24, 0x25	; 37
    43ee:	80 64       	ori	r24, 0x40	; 64
    43f0:	85 bd       	out	0x25, r24	; 37
C:\Users\Ryan\AppData\Local\Arduino15\packages\MegaCore\hardware\avr\3.0.3\cores\MCUdude_corefiles/wiring.c:1028
//#else
  // Timer 2 not finished (may not be present on this CPU)
#endif

#if defined(TCCR3B) && defined(CS31) && defined(WGM30)
  TCCR3B |= _BV(CS31) | _BV(CS30); // Set timer 3 prescale factor to 64
    43f2:	80 91 8a 00 	lds	r24, 0x008A	; 0x80008a <__TEXT_REGION_LENGTH__+0x7e008a>
    43f6:	83 60       	ori	r24, 0x03	; 3
    43f8:	80 93 8a 00 	sts	0x008A, r24	; 0x80008a <__TEXT_REGION_LENGTH__+0x7e008a>
C:\Users\Ryan\AppData\Local\Arduino15\packages\MegaCore\hardware\avr\3.0.3\cores\MCUdude_corefiles/wiring.c:1029
  TCCR3A |= _BV(WGM30);            // Put timer 3 in 8-bit phase correct pwm mode
    43fc:	80 91 8b 00 	lds	r24, 0x008B	; 0x80008b <__TEXT_REGION_LENGTH__+0x7e008b>
    4400:	81 60       	ori	r24, 0x01	; 1
    4402:	80 93 8b 00 	sts	0x008B, r24	; 0x80008b <__TEXT_REGION_LENGTH__+0x7e008b>
C:\Users\Ryan\AppData\Local\Arduino15\packages\MegaCore\hardware\avr\3.0.3\cores\MCUdude_corefiles/wiring.c:1050
#endif

#if defined(ADCSRA)
  // set a2d prescaler so we are inside the desired 50-200 KHz range.
  #if F_CPU >= 16000000 // 16 MHz / 128 = 125 KHz
    ADCSRA = _BV(ADPS2) | _BV(ADPS1) | _BV(ADPS0) | _BV(ADEN);
    4406:	87 e8       	ldi	r24, 0x87	; 135
    4408:	86 b9       	out	0x06, r24	; 6
C:\Users\Ryan\AppData\Local\Arduino15\packages\MegaCore\hardware\avr\3.0.3\cores\MCUdude_corefiles/wiring.c:1070
  // here so they can be used as normal digital i/o; they will be
  // reconnected in Serial.begin()
#if defined(UCSRB)
  UCSRB = 0;
#elif defined(UCSR0B)
  UCSR0B = 0;
    440a:	1a b8       	out	0x0a, r1	; 10
robot_setup():
C:\Users\Ryan\Documents\GitHub\sport_main_code_2023/sport_menu.h:1453
    }
  }
}

void robot_setup() {
  TCCR1A = 0;  // Clear the register
    440c:	1f bc       	out	0x2f, r1	; 47
C:\Users\Ryan\Documents\GitHub\sport_main_code_2023/sport_menu.h:1455
  // Set the Timer/Counter 1 Mode to "Normal" mode
  TCCR1A |= (0 << WGM10) | (0 << WGM11);
    440e:	8f b5       	in	r24, 0x2f	; 47
    4410:	8f bd       	out	0x2f, r24	; 47
C:\Users\Ryan\Documents\GitHub\sport_main_code_2023/sport_menu.h:1456
  TCCR1B |= (0 << WGM12) | (0 << WGM13);
    4412:	8e b5       	in	r24, 0x2e	; 46
    4414:	8e bd       	out	0x2e, r24	; 46
C:\Users\Ryan\Documents\GitHub\sport_main_code_2023/sport_menu.h:1458
  // Set the Timer/Counter 1 clock source to "External Crystal Oscillator"
  TCCR1B |= (1 << CS12) | (0 << CS11) | (0 << CS10);
    4416:	8e b5       	in	r24, 0x2e	; 46
    4418:	84 60       	ori	r24, 0x04	; 4
    441a:	8e bd       	out	0x2e, r24	; 46
C:\Users\Ryan\Documents\GitHub\sport_main_code_2023/sport_menu.h:1459
  pinMode(13, OUTPUT);
    441c:	61 e0       	ldi	r22, 0x01	; 1
    441e:	8d e0       	ldi	r24, 0x0D	; 13
    4420:	0e 94 3a 02 	call	0x474	; 0x474 <pinMode>
C:\Users\Ryan\Documents\GitHub\sport_main_code_2023/sport_menu.h:1460
  pinMode(12, OUTPUT);
    4424:	61 e0       	ldi	r22, 0x01	; 1
    4426:	8c e0       	ldi	r24, 0x0C	; 12
    4428:	0e 94 3a 02 	call	0x474	; 0x474 <pinMode>
C:\Users\Ryan\Documents\GitHub\sport_main_code_2023/sport_menu.h:1461
  pinMode(6, INPUT_PULLUP);
    442c:	62 e0       	ldi	r22, 0x02	; 2
    442e:	86 e0       	ldi	r24, 0x06	; 6
    4430:	0e 94 3a 02 	call	0x474	; 0x474 <pinMode>
C:\Users\Ryan\Documents\GitHub\sport_main_code_2023/sport_menu.h:1462
  pinMode(35, OUTPUT);
    4434:	61 e0       	ldi	r22, 0x01	; 1
    4436:	83 e2       	ldi	r24, 0x23	; 35
    4438:	0e 94 3a 02 	call	0x474	; 0x474 <pinMode>
C:\Users\Ryan\Documents\GitHub\sport_main_code_2023/sport_menu.h:1463
  pinMode(37, INPUT_PULLUP);  // sbl
    443c:	62 e0       	ldi	r22, 0x02	; 2
    443e:	85 e2       	ldi	r24, 0x25	; 37
    4440:	0e 94 3a 02 	call	0x474	; 0x474 <pinMode>
C:\Users\Ryan\Documents\GitHub\sport_main_code_2023/sport_menu.h:1464
  pinMode(38, INPUT_PULLUP);  // sbr
    4444:	62 e0       	ldi	r22, 0x02	; 2
    4446:	86 e2       	ldi	r24, 0x26	; 38
    4448:	0e 94 3a 02 	call	0x474	; 0x474 <pinMode>
C:\Users\Ryan\Documents\GitHub\sport_main_code_2023/sport_menu.h:1465
  pinMode(start_pin, INPUT_PULLUP);
    444c:	62 e0       	ldi	r22, 0x02	; 2
    444e:	86 e0       	ldi	r24, 0x06	; 6
    4450:	0e 94 3a 02 	call	0x474	; 0x474 <pinMode>
C:\Users\Ryan\Documents\GitHub\sport_main_code_2023/sport_menu.h:1466
  pinMode(next_page_pin, INPUT_PULLUP);
    4454:	62 e0       	ldi	r22, 0x02	; 2
    4456:	88 e0       	ldi	r24, 0x08	; 8
    4458:	0e 94 3a 02 	call	0x474	; 0x474 <pinMode>
C:\Users\Ryan\Documents\GitHub\sport_main_code_2023/sport_menu.h:1467
  pinMode(previuse_page_pin, INPUT_PULLUP);
    445c:	62 e0       	ldi	r22, 0x02	; 2
    445e:	89 e0       	ldi	r24, 0x09	; 9
    4460:	0e 94 3a 02 	call	0x474	; 0x474 <pinMode>
C:\Users\Ryan\Documents\GitHub\sport_main_code_2023/sport_menu.h:1468
  pinMode(increase_pin, INPUT_PULLUP);
    4464:	62 e0       	ldi	r22, 0x02	; 2
    4466:	8a e0       	ldi	r24, 0x0A	; 10
    4468:	0e 94 3a 02 	call	0x474	; 0x474 <pinMode>
C:\Users\Ryan\Documents\GitHub\sport_main_code_2023/sport_menu.h:1469
  pinMode(decrease_pin, INPUT_PULLUP);
    446c:	62 e0       	ldi	r22, 0x02	; 2
    446e:	8b e0       	ldi	r24, 0x0B	; 11
    4470:	0e 94 3a 02 	call	0x474	; 0x474 <pinMode>
C:\Users\Ryan\Documents\GitHub\sport_main_code_2023/sport_menu.h:1470
  pinMode(MUX_A, OUTPUT);
    4474:	61 e0       	ldi	r22, 0x01	; 1
    4476:	8c e2       	ldi	r24, 0x2C	; 44
    4478:	0e 94 3a 02 	call	0x474	; 0x474 <pinMode>
C:\Users\Ryan\Documents\GitHub\sport_main_code_2023/sport_menu.h:1471
  pinMode(MUX_B, OUTPUT);
    447c:	61 e0       	ldi	r22, 0x01	; 1
    447e:	8b e2       	ldi	r24, 0x2B	; 43
    4480:	0e 94 3a 02 	call	0x474	; 0x474 <pinMode>
C:\Users\Ryan\Documents\GitHub\sport_main_code_2023/sport_menu.h:1472
  pinMode(MUX_C, OUTPUT);
    4484:	61 e0       	ldi	r22, 0x01	; 1
    4486:	8a e2       	ldi	r24, 0x2A	; 42
    4488:	0e 94 3a 02 	call	0x474	; 0x474 <pinMode>
begin():
C:\Users\Ryan\AppData\Local\Arduino15\packages\MegaCore\hardware\avr\3.0.3\libraries\Wire\src\TwoWire/TwoWire.cpp:63

// Public Methods //////////////////////////////////////////////////////////////

void TwoWire::begin(void)
{
  rxBufferIndex = 0;
    448c:	10 92 3c 09 	sts	0x093C, r1	; 0x80093c <TwoWire::rxBufferIndex>
C:\Users\Ryan\AppData\Local\Arduino15\packages\MegaCore\hardware\avr\3.0.3\libraries\Wire\src\TwoWire/TwoWire.cpp:64
  rxBufferLength = 0;
    4490:	10 92 3b 09 	sts	0x093B, r1	; 0x80093b <TwoWire::rxBufferLength>
C:\Users\Ryan\AppData\Local\Arduino15\packages\MegaCore\hardware\avr\3.0.3\libraries\Wire\src\TwoWire/TwoWire.cpp:66

  txBufferIndex = 0;
    4494:	10 92 f8 08 	sts	0x08F8, r1	; 0x8008f8 <TwoWire::txBufferIndex>
C:\Users\Ryan\AppData\Local\Arduino15\packages\MegaCore\hardware\avr\3.0.3\libraries\Wire\src\TwoWire/TwoWire.cpp:67
  txBufferLength = 0;
    4498:	10 92 1a 09 	sts	0x091A, r1	; 0x80091a <TwoWire::txBufferLength>
twi_init():
C:\Users\Ryan\AppData\Local\Arduino15\packages\MegaCore\hardware\avr\3.0.3\libraries\Wire\src\TwoWire\utility/twi.c:79
 * Output   none
 */
void twi_init(void)
{
  // initialize state
  twi_state = TWI_READY;
    449c:	10 92 f6 08 	sts	0x08F6, r1	; 0x8008f6 <twi_state>
C:\Users\Ryan\AppData\Local\Arduino15\packages\MegaCore\hardware\avr\3.0.3\libraries\Wire\src\TwoWire\utility/twi.c:80
  twi_sendStop = true; // default value
    44a0:	81 e0       	ldi	r24, 0x01	; 1
    44a2:	80 93 f5 08 	sts	0x08F5, r24	; 0x8008f5 <twi_sendStop>
C:\Users\Ryan\AppData\Local\Arduino15\packages\MegaCore\hardware\avr\3.0.3\libraries\Wire\src\TwoWire\utility/twi.c:81
  twi_inRepStart = false;
    44a6:	10 92 ee 08 	sts	0x08EE, r1	; 0x8008ee <twi_inRepStart>
C:\Users\Ryan\AppData\Local\Arduino15\packages\MegaCore\hardware\avr\3.0.3\libraries\Wire\src\TwoWire\utility/twi.c:84

  // activate internal pullups for twi.
  digitalWrite(SDA, 1);
    44aa:	61 e0       	ldi	r22, 0x01	; 1
    44ac:	83 e1       	ldi	r24, 0x13	; 19
    44ae:	0e 94 0c 02 	call	0x418	; 0x418 <digitalWrite>
C:\Users\Ryan\AppData\Local\Arduino15\packages\MegaCore\hardware\avr\3.0.3\libraries\Wire\src\TwoWire\utility/twi.c:85
  digitalWrite(SCL, 1);
    44b2:	61 e0       	ldi	r22, 0x01	; 1
    44b4:	82 e1       	ldi	r24, 0x12	; 18
    44b6:	0e 94 0c 02 	call	0x418	; 0x418 <digitalWrite>
C:\Users\Ryan\AppData\Local\Arduino15\packages\MegaCore\hardware\avr\3.0.3\libraries\Wire\src\TwoWire\utility/twi.c:88

  // initialize twi prescaler and bit rate
  TWSR &= ~(_BV(TWPS0) | _BV(TWPS1));
    44ba:	80 91 71 00 	lds	r24, 0x0071	; 0x800071 <__TEXT_REGION_LENGTH__+0x7e0071>
    44be:	8c 7f       	andi	r24, 0xFC	; 252
    44c0:	80 93 71 00 	sts	0x0071, r24	; 0x800071 <__TEXT_REGION_LENGTH__+0x7e0071>
C:\Users\Ryan\AppData\Local\Arduino15\packages\MegaCore\hardware\avr\3.0.3\libraries\Wire\src\TwoWire\utility/twi.c:89
  TWBR = ((F_CPU / TWI_FREQ) - 16) / 2;
    44c4:	88 e4       	ldi	r24, 0x48	; 72
    44c6:	80 93 70 00 	sts	0x0070, r24	; 0x800070 <__TEXT_REGION_LENGTH__+0x7e0070>
C:\Users\Ryan\AppData\Local\Arduino15\packages\MegaCore\hardware\avr\3.0.3\libraries\Wire\src\TwoWire\utility/twi.c:97
  SCL Frequency = CPU Clock Frequency / (16 + (2 * TWBR))
  note: TWBR should be 10 or higher for master mode
  It is 72 for a 16mhz Wiring board with 100kHz TWI */

  // enable twi module, acks, and twi interrupt
  TWCR = _BV(TWEN) | _BV(TWIE) | _BV(TWEA);
    44ca:	85 e4       	ldi	r24, 0x45	; 69
    44cc:	80 93 74 00 	sts	0x0074, r24	; 0x800074 <__TEXT_REGION_LENGTH__+0x7e0074>
twi_attachSlaveTxEvent():
C:\Users\Ryan\AppData\Local\Arduino15\packages\MegaCore\hardware\avr\3.0.3\libraries\Wire\src\TwoWire\utility/twi.c:402
 * Input    function: callback function to use
 * Output   none
 */
void twi_attachSlaveTxEvent( void (*function)(void) )
{
  twi_onSlaveTransmit = function;
    44d0:	86 e5       	ldi	r24, 0x56	; 86
    44d2:	93 e0       	ldi	r25, 0x03	; 3
    44d4:	90 93 c4 08 	sts	0x08C4, r25	; 0x8008c4 <twi_onSlaveTransmit+0x1>
    44d8:	80 93 c3 08 	sts	0x08C3, r24	; 0x8008c3 <twi_onSlaveTransmit>
twi_attachSlaveRxEvent():
C:\Users\Ryan\AppData\Local\Arduino15\packages\MegaCore\hardware\avr\3.0.3\libraries\Wire\src\TwoWire\utility/twi.c:391
 * Input    function: callback function to use
 * Output   none
 */
void twi_attachSlaveRxEvent( void (*function)(uint8_t*, int) )
{
  twi_onSlaveReceive = function;
    44dc:	87 e5       	ldi	r24, 0x57	; 87
    44de:	93 e0       	ldi	r25, 0x03	; 3
    44e0:	90 93 c2 08 	sts	0x08C2, r25	; 0x8008c2 <twi_onSlaveReceive+0x1>
    44e4:	80 93 c1 08 	sts	0x08C1, r24	; 0x8008c1 <twi_onSlaveReceive>
begin():
C:\Users\Ryan\AppData\Local\Arduino15\packages\MegaCore\hardware\avr\3.0.3\cores\MCUdude_corefiles/HardwareSerial.cpp:121

void HardwareSerial::begin(unsigned long baud, byte config)
{
  // Try u2x mode first
  uint16_t baud_setting = (F_CPU / 4 / baud - 1) / 2;
  *_ucsra = 1 << U2X0;
    44e8:	e0 91 26 0a 	lds	r30, 0x0A26	; 0x800a26 <Serial+0x10>
    44ec:	f0 91 27 0a 	lds	r31, 0x0A27	; 0x800a27 <Serial+0x11>
    44f0:	c0 83       	st	Z, r28
C:\Users\Ryan\AppData\Local\Arduino15\packages\MegaCore\hardware\avr\3.0.3\cores\MCUdude_corefiles/HardwareSerial.cpp:135
    *_ucsra = 0;
    baud_setting = (F_CPU / 8 / baud - 1) / 2;
  }

  // assign the baud_setting, a.k.a. ubrr (USART Baud Rate Register)
  *_ubrrh = baud_setting >> 8;
    44f2:	e0 91 22 0a 	lds	r30, 0x0A22	; 0x800a22 <Serial+0xc>
    44f6:	f0 91 23 0a 	lds	r31, 0x0A23	; 0x800a23 <Serial+0xd>
    44fa:	10 82       	st	Z, r1
C:\Users\Ryan\AppData\Local\Arduino15\packages\MegaCore\hardware\avr\3.0.3\cores\MCUdude_corefiles/HardwareSerial.cpp:136
  *_ubrrl = baud_setting;
    44fc:	e0 91 24 0a 	lds	r30, 0x0A24	; 0x800a24 <Serial+0xe>
    4500:	f0 91 25 0a 	lds	r31, 0x0A25	; 0x800a25 <Serial+0xf>
    4504:	10 e1       	ldi	r17, 0x10	; 16
    4506:	10 83       	st	Z, r17
C:\Users\Ryan\AppData\Local\Arduino15\packages\MegaCore\hardware\avr\3.0.3\cores\MCUdude_corefiles/HardwareSerial.cpp:138

  _written = false;
    4508:	10 92 2e 0a 	sts	0x0A2E, r1	; 0x800a2e <Serial+0x18>
C:\Users\Ryan\AppData\Local\Arduino15\packages\MegaCore\hardware\avr\3.0.3\cores\MCUdude_corefiles/HardwareSerial.cpp:146
#if defined(__AVR_ATmega8__) || defined(__AVR_ATmega8515__) || defined(__AVR_ATmega162__) \
|| defined(__AVR_ATmega8535__) || defined(__AVR_ATmega16__)|| defined(__AVR_ATmega32__)   \
|| defined(__AVR_ATmega162__)
  config |= 0x80; // select UCSRC register (shared with UBRRH)
#endif
  *_ucsrc = config;
    450c:	e0 91 2a 0a 	lds	r30, 0x0A2A	; 0x800a2a <Serial+0x14>
    4510:	f0 91 2b 0a 	lds	r31, 0x0A2B	; 0x800a2b <Serial+0x15>
    4514:	d6 e0       	ldi	r29, 0x06	; 6
    4516:	d0 83       	st	Z, r29
C:\Users\Ryan\AppData\Local\Arduino15\packages\MegaCore\hardware\avr\3.0.3\cores\MCUdude_corefiles/HardwareSerial.cpp:148
  
  *_ucsrb |= _BV(RXEN0) | _BV(TXEN0) | _BV(RXCIE0);
    4518:	e0 91 28 0a 	lds	r30, 0x0A28	; 0x800a28 <Serial+0x12>
    451c:	f0 91 29 0a 	lds	r31, 0x0A29	; 0x800a29 <Serial+0x13>
    4520:	80 81       	ld	r24, Z
    4522:	88 69       	ori	r24, 0x98	; 152
    4524:	80 83       	st	Z, r24
C:\Users\Ryan\AppData\Local\Arduino15\packages\MegaCore\hardware\avr\3.0.3\cores\MCUdude_corefiles/HardwareSerial.cpp:149
  *_ucsrb &= ~_BV(UDRIE0);
    4526:	e0 91 28 0a 	lds	r30, 0x0A28	; 0x800a28 <Serial+0x12>
    452a:	f0 91 29 0a 	lds	r31, 0x0A29	; 0x800a29 <Serial+0x13>
    452e:	80 81       	ld	r24, Z
    4530:	8f 7d       	andi	r24, 0xDF	; 223
    4532:	80 83       	st	Z, r24
dxl_init():
C:\Users\Ryan\Documents\GitHub\sport_main_code_2023/sport_DXL2023.h:253
    delay(10);
}

void dxl_init(long int baudRate)
{
    pinMode(M_TX_PIN, OUTPUT);
    4534:	61 e0       	ldi	r22, 0x01	; 1
    4536:	85 e1       	ldi	r24, 0x15	; 21
    4538:	0e 94 3a 02 	call	0x474	; 0x474 <pinMode>
C:\Users\Ryan\Documents\GitHub\sport_main_code_2023/sport_DXL2023.h:254
    pinMode(M_DIR_PIN, OUTPUT);
    453c:	61 e0       	ldi	r22, 0x01	; 1
    453e:	86 e1       	ldi	r24, 0x16	; 22
    4540:	0e 94 3a 02 	call	0x474	; 0x474 <pinMode>
begin():
C:\Users\Ryan\AppData\Local\Arduino15\packages\MegaCore\hardware\avr\3.0.3\cores\MCUdude_corefiles/HardwareSerial.cpp:121

void HardwareSerial::begin(unsigned long baud, byte config)
{
  // Try u2x mode first
  uint16_t baud_setting = (F_CPU / 4 / baud - 1) / 2;
  *_ucsra = 1 << U2X0;
    4544:	e0 91 89 09 	lds	r30, 0x0989	; 0x800989 <Serial1+0x10>
    4548:	f0 91 8a 09 	lds	r31, 0x098A	; 0x80098a <Serial1+0x11>
    454c:	c0 83       	st	Z, r28
C:\Users\Ryan\AppData\Local\Arduino15\packages\MegaCore\hardware\avr\3.0.3\cores\MCUdude_corefiles/HardwareSerial.cpp:135
    *_ucsra = 0;
    baud_setting = (F_CPU / 8 / baud - 1) / 2;
  }

  // assign the baud_setting, a.k.a. ubrr (USART Baud Rate Register)
  *_ubrrh = baud_setting >> 8;
    454e:	e0 91 85 09 	lds	r30, 0x0985	; 0x800985 <Serial1+0xc>
    4552:	f0 91 86 09 	lds	r31, 0x0986	; 0x800986 <Serial1+0xd>
    4556:	10 82       	st	Z, r1
C:\Users\Ryan\AppData\Local\Arduino15\packages\MegaCore\hardware\avr\3.0.3\cores\MCUdude_corefiles/HardwareSerial.cpp:136
  *_ubrrl = baud_setting;
    4558:	e0 91 87 09 	lds	r30, 0x0987	; 0x800987 <Serial1+0xe>
    455c:	f0 91 88 09 	lds	r31, 0x0988	; 0x800988 <Serial1+0xf>
    4560:	10 83       	st	Z, r17
C:\Users\Ryan\AppData\Local\Arduino15\packages\MegaCore\hardware\avr\3.0.3\cores\MCUdude_corefiles/HardwareSerial.cpp:138

  _written = false;
    4562:	10 92 91 09 	sts	0x0991, r1	; 0x800991 <Serial1+0x18>
C:\Users\Ryan\AppData\Local\Arduino15\packages\MegaCore\hardware\avr\3.0.3\cores\MCUdude_corefiles/HardwareSerial.cpp:146
#if defined(__AVR_ATmega8__) || defined(__AVR_ATmega8515__) || defined(__AVR_ATmega162__) \
|| defined(__AVR_ATmega8535__) || defined(__AVR_ATmega16__)|| defined(__AVR_ATmega32__)   \
|| defined(__AVR_ATmega162__)
  config |= 0x80; // select UCSRC register (shared with UBRRH)
#endif
  *_ucsrc = config;
    4566:	e0 91 8d 09 	lds	r30, 0x098D	; 0x80098d <Serial1+0x14>
    456a:	f0 91 8e 09 	lds	r31, 0x098E	; 0x80098e <Serial1+0x15>
    456e:	d0 83       	st	Z, r29
C:\Users\Ryan\AppData\Local\Arduino15\packages\MegaCore\hardware\avr\3.0.3\cores\MCUdude_corefiles/HardwareSerial.cpp:148
  
  *_ucsrb |= _BV(RXEN0) | _BV(TXEN0) | _BV(RXCIE0);
    4570:	e0 91 8b 09 	lds	r30, 0x098B	; 0x80098b <Serial1+0x12>
    4574:	f0 91 8c 09 	lds	r31, 0x098C	; 0x80098c <Serial1+0x13>
    4578:	80 81       	ld	r24, Z
    457a:	88 69       	ori	r24, 0x98	; 152
    457c:	80 83       	st	Z, r24
C:\Users\Ryan\AppData\Local\Arduino15\packages\MegaCore\hardware\avr\3.0.3\cores\MCUdude_corefiles/HardwareSerial.cpp:149
  *_ucsrb &= ~_BV(UDRIE0);
    457e:	e0 91 8b 09 	lds	r30, 0x098B	; 0x80098b <Serial1+0x12>
    4582:	f0 91 8c 09 	lds	r31, 0x098C	; 0x80098c <Serial1+0x13>
    4586:	80 81       	ld	r24, Z
    4588:	8f 7d       	andi	r24, 0xDF	; 223
    458a:	80 83       	st	Z, r24
robot_setup():
C:\Users\Ryan\Documents\GitHub\sport_main_code_2023/sport_menu.h:1477

  Wire.begin();
  Serial.begin(115200);
  dxl_init(115200);
  lcd.begin(20, 4);
    458c:	64 e0       	ldi	r22, 0x04	; 4
    458e:	84 e1       	ldi	r24, 0x14	; 20
    4590:	0e 94 c6 05 	call	0xb8c	; 0xb8c <LiquidCrystal::begin(unsigned char, unsigned char, unsigned char) [clone .constprop.36]>
C:\Users\Ryan\Documents\GitHub\sport_main_code_2023/sport_menu.h:1478
  delay(800);
    4594:	60 e2       	ldi	r22, 0x20	; 32
    4596:	73 e0       	ldi	r23, 0x03	; 3
    4598:	80 e0       	ldi	r24, 0x00	; 0
    459a:	90 e0       	ldi	r25, 0x00	; 0
    459c:	0e 94 24 03 	call	0x648	; 0x648 <delay>
setup():
C:\Users\Ryan\Documents\GitHub\sport_main_code_2023/sport_main_code_2023.ino:13
{

  robot_setup();

  //eeprom set in code
  T90=136;spd=255;range_value=20;
    45a0:	88 e8       	ldi	r24, 0x88	; 136
    45a2:	90 e0       	ldi	r25, 0x00	; 0
    45a4:	90 93 e4 08 	sts	0x08E4, r25	; 0x8008e4 <T90+0x1>
    45a8:	80 93 e3 08 	sts	0x08E3, r24	; 0x8008e3 <T90>
    45ac:	8f ef       	ldi	r24, 0xFF	; 255
    45ae:	90 e0       	ldi	r25, 0x00	; 0
    45b0:	90 93 e2 08 	sts	0x08E2, r25	; 0x8008e2 <spd+0x1>
    45b4:	80 93 e1 08 	sts	0x08E1, r24	; 0x8008e1 <spd>
    45b8:	84 e1       	ldi	r24, 0x14	; 20
    45ba:	90 e0       	ldi	r25, 0x00	; 0
    45bc:	90 93 e0 08 	sts	0x08E0, r25	; 0x8008e0 <range_value+0x1>
    45c0:	80 93 df 08 	sts	0x08DF, r24	; 0x8008df <range_value>
C:\Users\Ryan\Documents\GitHub\sport_main_code_2023/sport_main_code_2023.ino:14
  EEPROM_write_int(T90_address, T90);
    45c4:	68 e8       	ldi	r22, 0x88	; 136
    45c6:	70 e0       	ldi	r23, 0x00	; 0
    45c8:	88 e9       	ldi	r24, 0x98	; 152
    45ca:	90 e0       	ldi	r25, 0x00	; 0
    45cc:	0e 94 0c 0a 	call	0x1418	; 0x1418 <EEPROM_write_int(int, int)>
C:\Users\Ryan\Documents\GitHub\sport_main_code_2023/sport_main_code_2023.ino:15
  EEPROM_write_int(spd_address, spd);
    45d0:	60 91 e1 08 	lds	r22, 0x08E1	; 0x8008e1 <spd>
    45d4:	70 91 e2 08 	lds	r23, 0x08E2	; 0x8008e2 <spd+0x1>
    45d8:	86 e9       	ldi	r24, 0x96	; 150
    45da:	90 e0       	ldi	r25, 0x00	; 0
    45dc:	0e 94 0c 0a 	call	0x1418	; 0x1418 <EEPROM_write_int(int, int)>
C:\Users\Ryan\Documents\GitHub\sport_main_code_2023/sport_main_code_2023.ino:16
  EEPROM_write_int(range_address, range_value);
    45e0:	60 91 df 08 	lds	r22, 0x08DF	; 0x8008df <range_value>
    45e4:	70 91 e0 08 	lds	r23, 0x08E0	; 0x8008e0 <range_value+0x1>
    45e8:	8a e9       	ldi	r24, 0x9A	; 154
    45ea:	90 e0       	ldi	r25, 0x00	; 0
    45ec:	0e 94 0c 0a 	call	0x1418	; 0x1418 <EEPROM_write_int(int, int)>
C:\Users\Ryan\Documents\GitHub\sport_main_code_2023/sport_main_code_2023.ino:19
  
  //compass eeprom
  DN=96,DE=188,DS=277;
    45f0:	80 e6       	ldi	r24, 0x60	; 96
    45f2:	90 e0       	ldi	r25, 0x00	; 0
    45f4:	90 93 de 08 	sts	0x08DE, r25	; 0x8008de <DN+0x1>
    45f8:	80 93 dd 08 	sts	0x08DD, r24	; 0x8008dd <DN>
    45fc:	8c eb       	ldi	r24, 0xBC	; 188
    45fe:	90 e0       	ldi	r25, 0x00	; 0
    4600:	90 93 dc 08 	sts	0x08DC, r25	; 0x8008dc <DE+0x1>
    4604:	80 93 db 08 	sts	0x08DB, r24	; 0x8008db <DE>
    4608:	85 e1       	ldi	r24, 0x15	; 21
    460a:	91 e0       	ldi	r25, 0x01	; 1
    460c:	90 93 da 08 	sts	0x08DA, r25	; 0x8008da <DS+0x1>
    4610:	80 93 d9 08 	sts	0x08D9, r24	; 0x8008d9 <DS>
C:\Users\Ryan\Documents\GitHub\sport_main_code_2023/sport_main_code_2023.ino:20
  EEPROM_write_int(DN_address, DN);
    4614:	60 e6       	ldi	r22, 0x60	; 96
    4616:	70 e0       	ldi	r23, 0x00	; 0
    4618:	8c e9       	ldi	r24, 0x9C	; 156
    461a:	90 e0       	ldi	r25, 0x00	; 0
    461c:	0e 94 0c 0a 	call	0x1418	; 0x1418 <EEPROM_write_int(int, int)>
C:\Users\Ryan\Documents\GitHub\sport_main_code_2023/sport_main_code_2023.ino:21
  EEPROM_write_int(DE_address, DE);
    4620:	60 91 db 08 	lds	r22, 0x08DB	; 0x8008db <DE>
    4624:	70 91 dc 08 	lds	r23, 0x08DC	; 0x8008dc <DE+0x1>
    4628:	8e e9       	ldi	r24, 0x9E	; 158
    462a:	90 e0       	ldi	r25, 0x00	; 0
    462c:	0e 94 0c 0a 	call	0x1418	; 0x1418 <EEPROM_write_int(int, int)>
C:\Users\Ryan\Documents\GitHub\sport_main_code_2023/sport_main_code_2023.ino:22
  EEPROM_write_int(DS_address, DS);
    4630:	60 91 d9 08 	lds	r22, 0x08D9	; 0x8008d9 <DS>
    4634:	70 91 da 08 	lds	r23, 0x08DA	; 0x8008da <DS+0x1>
    4638:	80 ea       	ldi	r24, 0xA0	; 160
    463a:	90 e0       	ldi	r25, 0x00	; 0
    463c:	0e 94 0c 0a 	call	0x1418	; 0x1418 <EEPROM_write_int(int, int)>
C:\Users\Ryan\Documents\GitHub\sport_main_code_2023/sport_main_code_2023.ino:25

  // servo positions
  basket_up=275,basket_normal=500,arm_normal=660,arm_down=190,arm_dropping=800,gripper_close=900,gripper_open=590;
    4640:	84 ef       	ldi	r24, 0xF4	; 244
    4642:	91 e0       	ldi	r25, 0x01	; 1
    4644:	90 93 d8 08 	sts	0x08D8, r25	; 0x8008d8 <basket_normal+0x1>
    4648:	80 93 d7 08 	sts	0x08D7, r24	; 0x8008d7 <basket_normal>
    464c:	84 e9       	ldi	r24, 0x94	; 148
    464e:	92 e0       	ldi	r25, 0x02	; 2
    4650:	90 93 d6 08 	sts	0x08D6, r25	; 0x8008d6 <arm_normal+0x1>
    4654:	80 93 d5 08 	sts	0x08D5, r24	; 0x8008d5 <arm_normal>
    4658:	8e eb       	ldi	r24, 0xBE	; 190
    465a:	90 e0       	ldi	r25, 0x00	; 0
    465c:	90 93 d4 08 	sts	0x08D4, r25	; 0x8008d4 <arm_down+0x1>
    4660:	80 93 d3 08 	sts	0x08D3, r24	; 0x8008d3 <arm_down>
    4664:	80 e2       	ldi	r24, 0x20	; 32
    4666:	93 e0       	ldi	r25, 0x03	; 3
    4668:	90 93 d2 08 	sts	0x08D2, r25	; 0x8008d2 <arm_dropping+0x1>
    466c:	80 93 d1 08 	sts	0x08D1, r24	; 0x8008d1 <arm_dropping>
    4670:	84 e8       	ldi	r24, 0x84	; 132
    4672:	93 e0       	ldi	r25, 0x03	; 3
    4674:	90 93 d0 08 	sts	0x08D0, r25	; 0x8008d0 <gripper_close+0x1>
    4678:	80 93 cf 08 	sts	0x08CF, r24	; 0x8008cf <gripper_close>
    467c:	8e e4       	ldi	r24, 0x4E	; 78
    467e:	92 e0       	ldi	r25, 0x02	; 2
    4680:	90 93 ce 08 	sts	0x08CE, r25	; 0x8008ce <gripper_open+0x1>
    4684:	80 93 cd 08 	sts	0x08CD, r24	; 0x8008cd <gripper_open>
C:\Users\Ryan\Documents\GitHub\sport_main_code_2023/sport_main_code_2023.ino:26
  EEPROM_write_int(basket_up_address, basket_up);
    4688:	63 e1       	ldi	r22, 0x13	; 19
    468a:	71 e0       	ldi	r23, 0x01	; 1
    468c:	84 ea       	ldi	r24, 0xA4	; 164
    468e:	90 e0       	ldi	r25, 0x00	; 0
    4690:	0e 94 0c 0a 	call	0x1418	; 0x1418 <EEPROM_write_int(int, int)>
C:\Users\Ryan\Documents\GitHub\sport_main_code_2023/sport_main_code_2023.ino:27
  EEPROM_write_int(basket_normal_address, basket_normal);
    4694:	60 91 d7 08 	lds	r22, 0x08D7	; 0x8008d7 <basket_normal>
    4698:	70 91 d8 08 	lds	r23, 0x08D8	; 0x8008d8 <basket_normal+0x1>
    469c:	86 ea       	ldi	r24, 0xA6	; 166
    469e:	90 e0       	ldi	r25, 0x00	; 0
    46a0:	0e 94 0c 0a 	call	0x1418	; 0x1418 <EEPROM_write_int(int, int)>
C:\Users\Ryan\Documents\GitHub\sport_main_code_2023/sport_main_code_2023.ino:28
  EEPROM_write_int(arm_normal_address, arm_normal);
    46a4:	60 91 d5 08 	lds	r22, 0x08D5	; 0x8008d5 <arm_normal>
    46a8:	70 91 d6 08 	lds	r23, 0x08D6	; 0x8008d6 <arm_normal+0x1>
    46ac:	88 ea       	ldi	r24, 0xA8	; 168
    46ae:	90 e0       	ldi	r25, 0x00	; 0
    46b0:	0e 94 0c 0a 	call	0x1418	; 0x1418 <EEPROM_write_int(int, int)>
C:\Users\Ryan\Documents\GitHub\sport_main_code_2023/sport_main_code_2023.ino:29
  EEPROM_write_int(arm_down_address, arm_down);
    46b4:	60 91 d3 08 	lds	r22, 0x08D3	; 0x8008d3 <arm_down>
    46b8:	70 91 d4 08 	lds	r23, 0x08D4	; 0x8008d4 <arm_down+0x1>
    46bc:	8a ea       	ldi	r24, 0xAA	; 170
    46be:	90 e0       	ldi	r25, 0x00	; 0
    46c0:	0e 94 0c 0a 	call	0x1418	; 0x1418 <EEPROM_write_int(int, int)>
C:\Users\Ryan\Documents\GitHub\sport_main_code_2023/sport_main_code_2023.ino:30
  EEPROM_write_int(arm_dropping_address, arm_dropping);
    46c4:	60 91 d1 08 	lds	r22, 0x08D1	; 0x8008d1 <arm_dropping>
    46c8:	70 91 d2 08 	lds	r23, 0x08D2	; 0x8008d2 <arm_dropping+0x1>
    46cc:	8c ea       	ldi	r24, 0xAC	; 172
    46ce:	90 e0       	ldi	r25, 0x00	; 0
    46d0:	0e 94 0c 0a 	call	0x1418	; 0x1418 <EEPROM_write_int(int, int)>
C:\Users\Ryan\Documents\GitHub\sport_main_code_2023/sport_main_code_2023.ino:31
  EEPROM_write_int(gripper_close_address, gripper_close);
    46d4:	60 91 cf 08 	lds	r22, 0x08CF	; 0x8008cf <gripper_close>
    46d8:	70 91 d0 08 	lds	r23, 0x08D0	; 0x8008d0 <gripper_close+0x1>
    46dc:	8e ea       	ldi	r24, 0xAE	; 174
    46de:	90 e0       	ldi	r25, 0x00	; 0
    46e0:	0e 94 0c 0a 	call	0x1418	; 0x1418 <EEPROM_write_int(int, int)>
C:\Users\Ryan\Documents\GitHub\sport_main_code_2023/sport_main_code_2023.ino:32
  EEPROM_write_int(gripper_open_address, gripper_open);
    46e4:	60 91 cd 08 	lds	r22, 0x08CD	; 0x8008cd <gripper_open>
    46e8:	70 91 ce 08 	lds	r23, 0x08CE	; 0x8008ce <gripper_open+0x1>
    46ec:	80 eb       	ldi	r24, 0xB0	; 176
    46ee:	90 e0       	ldi	r25, 0x00	; 0
    46f0:	0e 94 0c 0a 	call	0x1418	; 0x1418 <EEPROM_write_int(int, int)>
menu():
C:\Users\Ryan\Documents\GitHub\sport_main_code_2023/sport_menu.h:1337
}

void menu(void) {
  static unsigned char page = 1, last_page = 6;
  int battery;
  lcd.clear();
    46f4:	0e 94 bf 05 	call	0xb7e	; 0xb7e <LiquidCrystal::clear() [clone .constprop.38]>
C:\Users\Ryan\Documents\GitHub\sport_main_code_2023/sport_menu.h:1338
  lcd.print("Error: check switch");
    46f8:	81 e5       	ldi	r24, 0x51	; 81
    46fa:	95 e0       	ldi	r25, 0x05	; 5
    46fc:	0e 94 ff 09 	call	0x13fe	; 0x13fe <Print::print(char const*) [clone .constprop.9]>
C:\Users\Ryan\Documents\GitHub\sport_main_code_2023/sport_menu.h:1340

  lcd.setCursor(0, 1);
    4700:	61 e0       	ldi	r22, 0x01	; 1
    4702:	80 e0       	ldi	r24, 0x00	; 0
    4704:	0e 94 67 06 	call	0xcce	; 0xcce <LiquidCrystal::setCursor(unsigned char, unsigned char) [clone .constprop.27]>
C:\Users\Ryan\Documents\GitHub\sport_main_code_2023/sport_menu.h:1341
  lcd.printf("SBL=%d   SBR=%d", SBL, SBR);
    4708:	86 e2       	ldi	r24, 0x26	; 38
    470a:	0e 94 e3 01 	call	0x3c6	; 0x3c6 <digitalRead>
    470e:	ec 01       	movw	r28, r24
    4710:	85 e2       	ldi	r24, 0x25	; 37
    4712:	0e 94 e3 01 	call	0x3c6	; 0x3c6 <digitalRead>
    4716:	df 93       	push	r29
    4718:	cf 93       	push	r28
    471a:	9f 93       	push	r25
    471c:	8f 93       	push	r24
    471e:	85 e6       	ldi	r24, 0x65	; 101
    4720:	95 e0       	ldi	r25, 0x05	; 5
    4722:	9f 93       	push	r25
    4724:	8f 93       	push	r24
    4726:	cf eb       	ldi	r28, 0xBF	; 191
    4728:	da e0       	ldi	r29, 0x0A	; 10
    472a:	df 93       	push	r29
    472c:	cf 93       	push	r28
    472e:	0e 94 19 09 	call	0x1232	; 0x1232 <Print::printf(char const*, ...) [clone .constprop.28]>
C:\Users\Ryan\Documents\GitHub\sport_main_code_2023/sport_menu.h:1343

  lcd.setCursor(0, 3);
    4732:	63 e0       	ldi	r22, 0x03	; 3
    4734:	80 e0       	ldi	r24, 0x00	; 0
    4736:	0e 94 67 06 	call	0xcce	; 0xcce <LiquidCrystal::setCursor(unsigned char, unsigned char) [clone .constprop.27]>
C:\Users\Ryan\Documents\GitHub\sport_main_code_2023/sport_menu.h:1344
  lcd.printf("p_p=%d next_p=%d Ent=%d", previuse_page, next_page, start);
    473a:	86 e0       	ldi	r24, 0x06	; 6
    473c:	0e 94 e3 01 	call	0x3c6	; 0x3c6 <digitalRead>
    4740:	f8 2e       	mov	r15, r24
    4742:	e9 2e       	mov	r14, r25
    4744:	88 e0       	ldi	r24, 0x08	; 8
    4746:	0e 94 e3 01 	call	0x3c6	; 0x3c6 <digitalRead>
    474a:	18 2f       	mov	r17, r24
    474c:	09 2f       	mov	r16, r25
    474e:	89 e0       	ldi	r24, 0x09	; 9
    4750:	0e 94 e3 01 	call	0x3c6	; 0x3c6 <digitalRead>
    4754:	ef 92       	push	r14
    4756:	ff 92       	push	r15
    4758:	0f 93       	push	r16
    475a:	1f 93       	push	r17
    475c:	9f 93       	push	r25
    475e:	8f 93       	push	r24
    4760:	85 e7       	ldi	r24, 0x75	; 117
    4762:	95 e0       	ldi	r25, 0x05	; 5
    4764:	9f 93       	push	r25
    4766:	8f 93       	push	r24
    4768:	df 93       	push	r29
    476a:	cf 93       	push	r28
    476c:	0e 94 19 09 	call	0x1232	; 0x1232 <Print::printf(char const*, ...) [clone .constprop.28]>
C:\Users\Ryan\Documents\GitHub\sport_main_code_2023/sport_menu.h:1346

  if (start == 0 || next_page == 0 || previuse_page == 0 || SBL == 0 || SBR == 0)
    4770:	86 e0       	ldi	r24, 0x06	; 6
    4772:	0e 94 e3 01 	call	0x3c6	; 0x3c6 <digitalRead>
    4776:	ed b7       	in	r30, 0x3d	; 61
    4778:	fe b7       	in	r31, 0x3e	; 62
    477a:	72 96       	adiw	r30, 0x12	; 18
    477c:	0f b6       	in	r0, 0x3f	; 63
    477e:	f8 94       	cli
    4780:	fe bf       	out	0x3e, r31	; 62
    4782:	0f be       	out	0x3f, r0	; 63
    4784:	ed bf       	out	0x3d, r30	; 61
    4786:	89 2b       	or	r24, r25
    4788:	09 f0       	breq	.+2      	; 0x478c <main+0x3c4>
    478a:	fd c1       	rjmp	.+1018   	; 0x4b86 <main+0x7be>
C:\Users\Ryan\Documents\GitHub\sport_main_code_2023/sport_menu.h:1347
    beep(10);
    478c:	8a e0       	ldi	r24, 0x0A	; 10
    478e:	90 e0       	ldi	r25, 0x00	; 0
    4790:	0e 94 2e 08 	call	0x105c	; 0x105c <beep(int)>
C:\Users\Ryan\Documents\GitHub\sport_main_code_2023/sport_menu.h:1348
  lcd.clear();
    4794:	0e 94 bf 05 	call	0xb7e	; 0xb7e <LiquidCrystal::clear() [clone .constprop.38]>
C:\Users\Ryan\Documents\GitHub\sport_main_code_2023/sport_menu.h:1356
      while (next_page == 0)
        ;
      delay(50);
      page++;
      if (page > last_page)
        page = 1;
    4798:	dd 24       	eor	r13, r13
    479a:	d3 94       	inc	r13
C:\Users\Ryan\Documents\GitHub\sport_main_code_2023/sport_menu.h:1365
      while (previuse_page == 0)
        ;
      delay(50);
      page--;
      if (page < 1)
        page = last_page;
    479c:	66 e0       	ldi	r22, 0x06	; 6
    479e:	c6 2e       	mov	r12, r22
C:\Users\Ryan\Documents\GitHub\sport_main_code_2023/sport_menu.h:1400
        lcd.print("Rescue Team");
        beep(1);
        break;
      }
      battery = analogRead(A7);
      battery = (battery * 5 / 102.3) * 3.1;
    47a0:	75 e0       	ldi	r23, 0x05	; 5
    47a2:	b7 2e       	mov	r11, r23
C:\Users\Ryan\Documents\GitHub\sport_main_code_2023/sport_menu.h:1402
      lcd.setCursor(8, 0);
      lcd.printf("bat=%3d ", battery);
    47a4:	c8 ee       	ldi	r28, 0xE8	; 232
    47a6:	d5 e0       	ldi	r29, 0x05	; 5
    47a8:	0f eb       	ldi	r16, 0xBF	; 191
    47aa:	1a e0       	ldi	r17, 0x0A	; 10
C:\Users\Ryan\Documents\GitHub\sport_main_code_2023/sport_menu.h:1350

  if (start == 0 || next_page == 0 || previuse_page == 0 || SBL == 0 || SBR == 0)
    beep(10);
  lcd.clear();
  while (1) {
    if (next_page == 0) {
    47ac:	88 e0       	ldi	r24, 0x08	; 8
    47ae:	0e 94 e3 01 	call	0x3c6	; 0x3c6 <digitalRead>
    47b2:	89 2b       	or	r24, r25
    47b4:	a9 f4       	brne	.+42     	; 0x47e0 <main+0x418>
C:\Users\Ryan\Documents\GitHub\sport_main_code_2023/sport_menu.h:1351
      while (next_page == 0)
    47b6:	88 e0       	ldi	r24, 0x08	; 8
    47b8:	0e 94 e3 01 	call	0x3c6	; 0x3c6 <digitalRead>
    47bc:	89 2b       	or	r24, r25
    47be:	d9 f3       	breq	.-10     	; 0x47b6 <main+0x3ee>
C:\Users\Ryan\Documents\GitHub\sport_main_code_2023/sport_menu.h:1353
        ;
      delay(50);
    47c0:	62 e3       	ldi	r22, 0x32	; 50
    47c2:	70 e0       	ldi	r23, 0x00	; 0
    47c4:	80 e0       	ldi	r24, 0x00	; 0
    47c6:	90 e0       	ldi	r25, 0x00	; 0
    47c8:	0e 94 24 03 	call	0x648	; 0x648 <delay>
C:\Users\Ryan\Documents\GitHub\sport_main_code_2023/sport_menu.h:1354
      page++;
    47cc:	80 91 05 01 	lds	r24, 0x0105	; 0x800105 <menu()::page>
    47d0:	8f 5f       	subi	r24, 0xFF	; 255
C:\Users\Ryan\Documents\GitHub\sport_main_code_2023/sport_menu.h:1355
      if (page > last_page)
    47d2:	87 30       	cpi	r24, 0x07	; 7
    47d4:	08 f0       	brcs	.+2      	; 0x47d8 <main+0x410>
    47d6:	f0 c1       	rjmp	.+992    	; 0x4bb8 <main+0x7f0>
C:\Users\Ryan\Documents\GitHub\sport_main_code_2023/sport_menu.h:1354
  while (1) {
    if (next_page == 0) {
      while (next_page == 0)
        ;
      delay(50);
      page++;
    47d8:	80 93 05 01 	sts	0x0105, r24	; 0x800105 <menu()::page>
C:\Users\Ryan\Documents\GitHub\sport_main_code_2023/sport_menu.h:1357
      if (page > last_page)
        page = 1;
      lcd.clear();
    47dc:	0e 94 bf 05 	call	0xb7e	; 0xb7e <LiquidCrystal::clear() [clone .constprop.38]>
C:\Users\Ryan\Documents\GitHub\sport_main_code_2023/sport_menu.h:1359
    }
    if (previuse_page == 0) {
    47e0:	89 e0       	ldi	r24, 0x09	; 9
    47e2:	0e 94 e3 01 	call	0x3c6	; 0x3c6 <digitalRead>
    47e6:	89 2b       	or	r24, r25
    47e8:	a1 f4       	brne	.+40     	; 0x4812 <main+0x44a>
C:\Users\Ryan\Documents\GitHub\sport_main_code_2023/sport_menu.h:1360
      while (previuse_page == 0)
    47ea:	89 e0       	ldi	r24, 0x09	; 9
    47ec:	0e 94 e3 01 	call	0x3c6	; 0x3c6 <digitalRead>
    47f0:	89 2b       	or	r24, r25
    47f2:	d9 f3       	breq	.-10     	; 0x47ea <main+0x422>
C:\Users\Ryan\Documents\GitHub\sport_main_code_2023/sport_menu.h:1362
        ;
      delay(50);
    47f4:	62 e3       	ldi	r22, 0x32	; 50
    47f6:	70 e0       	ldi	r23, 0x00	; 0
    47f8:	80 e0       	ldi	r24, 0x00	; 0
    47fa:	90 e0       	ldi	r25, 0x00	; 0
    47fc:	0e 94 24 03 	call	0x648	; 0x648 <delay>
C:\Users\Ryan\Documents\GitHub\sport_main_code_2023/sport_menu.h:1363
      page--;
    4800:	80 91 05 01 	lds	r24, 0x0105	; 0x800105 <menu()::page>
    4804:	81 50       	subi	r24, 0x01	; 1
C:\Users\Ryan\Documents\GitHub\sport_main_code_2023/sport_menu.h:1364
      if (page < 1)
    4806:	09 f4       	brne	.+2      	; 0x480a <main+0x442>
    4808:	da c1       	rjmp	.+948    	; 0x4bbe <main+0x7f6>
C:\Users\Ryan\Documents\GitHub\sport_main_code_2023/sport_menu.h:1363
    }
    if (previuse_page == 0) {
      while (previuse_page == 0)
        ;
      delay(50);
      page--;
    480a:	80 93 05 01 	sts	0x0105, r24	; 0x800105 <menu()::page>
C:\Users\Ryan\Documents\GitHub\sport_main_code_2023/sport_menu.h:1366
      if (page < 1)
        page = last_page;
      lcd.clear();
    480e:	0e 94 bf 05 	call	0xb7e	; 0xb7e <LiquidCrystal::clear() [clone .constprop.38]>
C:\Users\Ryan\Documents\GitHub\sport_main_code_2023/sport_menu.h:1368
    }
    if (page <= 4) {
    4812:	80 91 05 01 	lds	r24, 0x0105	; 0x800105 <menu()::page>
C:\Users\Ryan\Documents\GitHub\sport_main_code_2023/sport_menu.h:1369
      lcd.setCursor(2, 0);
    4816:	60 e0       	ldi	r22, 0x00	; 0
C:\Users\Ryan\Documents\GitHub\sport_main_code_2023/sport_menu.h:1368
      page--;
      if (page < 1)
        page = last_page;
      lcd.clear();
    }
    if (page <= 4) {
    4818:	85 30       	cpi	r24, 0x05	; 5
    481a:	08 f0       	brcs	.+2      	; 0x481e <main+0x456>
    481c:	d3 c1       	rjmp	.+934    	; 0x4bc4 <main+0x7fc>
C:\Users\Ryan\Documents\GitHub\sport_main_code_2023/sport_menu.h:1369
      lcd.setCursor(2, 0);
    481e:	82 e0       	ldi	r24, 0x02	; 2
    4820:	0e 94 67 06 	call	0xcce	; 0xcce <LiquidCrystal::setCursor(unsigned char, unsigned char) [clone .constprop.27]>
C:\Users\Ryan\Documents\GitHub\sport_main_code_2023/sport_menu.h:1370
      lcd.print("Start ");
    4824:	8d e8       	ldi	r24, 0x8D	; 141
    4826:	95 e0       	ldi	r25, 0x05	; 5
    4828:	0e 94 ff 09 	call	0x13fe	; 0x13fe <Print::print(char const*) [clone .constprop.9]>
C:\Users\Ryan\Documents\GitHub\sport_main_code_2023/sport_menu.h:1371
      lcd.setCursor(2, 1);
    482c:	61 e0       	ldi	r22, 0x01	; 1
    482e:	82 e0       	ldi	r24, 0x02	; 2
    4830:	0e 94 67 06 	call	0xcce	; 0xcce <LiquidCrystal::setCursor(unsigned char, unsigned char) [clone .constprop.27]>
C:\Users\Ryan\Documents\GitHub\sport_main_code_2023/sport_menu.h:1372
      lcd.print("Test Sensor   ");
    4834:	84 e9       	ldi	r24, 0x94	; 148
    4836:	95 e0       	ldi	r25, 0x05	; 5
    4838:	0e 94 ff 09 	call	0x13fe	; 0x13fe <Print::print(char const*) [clone .constprop.9]>
C:\Users\Ryan\Documents\GitHub\sport_main_code_2023/sport_menu.h:1373
      lcd.setCursor(2, 2);
    483c:	62 e0       	ldi	r22, 0x02	; 2
    483e:	82 e0       	ldi	r24, 0x02	; 2
    4840:	0e 94 67 06 	call	0xcce	; 0xcce <LiquidCrystal::setCursor(unsigned char, unsigned char) [clone .constprop.27]>
C:\Users\Ryan\Documents\GitHub\sport_main_code_2023/sport_menu.h:1374
      lcd.print("Setup         ");
    4844:	83 ea       	ldi	r24, 0xA3	; 163
    4846:	95 e0       	ldi	r25, 0x05	; 5
    4848:	0e 94 ff 09 	call	0x13fe	; 0x13fe <Print::print(char const*) [clone .constprop.9]>
C:\Users\Ryan\Documents\GitHub\sport_main_code_2023/sport_menu.h:1375
      lcd.setCursor(2, 3);
    484c:	63 e0       	ldi	r22, 0x03	; 3
    484e:	82 e0       	ldi	r24, 0x02	; 2
    4850:	0e 94 67 06 	call	0xcce	; 0xcce <LiquidCrystal::setCursor(unsigned char, unsigned char) [clone .constprop.27]>
C:\Users\Ryan\Documents\GitHub\sport_main_code_2023/sport_menu.h:1376
      lcd.print("Test Color    ");
    4854:	82 eb       	ldi	r24, 0xB2	; 178
    4856:	95 e0       	ldi	r25, 0x05	; 5
    4858:	0e 94 ff 09 	call	0x13fe	; 0x13fe <Print::print(char const*) [clone .constprop.9]>
C:\Users\Ryan\Documents\GitHub\sport_main_code_2023/sport_menu.h:1377
      lcd.setCursor(0, page - 1);
    485c:	60 91 05 01 	lds	r22, 0x0105	; 0x800105 <menu()::page>
    4860:	61 50       	subi	r22, 0x01	; 1
C:\Users\Ryan\Documents\GitHub\sport_main_code_2023/sport_menu.h:1384
    } else if (page > 4) {
      lcd.setCursor(2, 0);
      lcd.print("Test Motor   ");
      lcd.setCursor(2, 1);
      lcd.print("color calib ");
      lcd.setCursor(0, page - 5);
    4862:	80 e0       	ldi	r24, 0x00	; 0
    4864:	0e 94 67 06 	call	0xcce	; 0xcce <LiquidCrystal::setCursor(unsigned char, unsigned char) [clone .constprop.27]>
C:\Users\Ryan\Documents\GitHub\sport_main_code_2023/sport_menu.h:1385
      lcd.print("> ");
    4868:	8b ec       	ldi	r24, 0xCB	; 203
    486a:	97 e0       	ldi	r25, 0x07	; 7
    486c:	0e 94 ff 09 	call	0x13fe	; 0x13fe <Print::print(char const*) [clone .constprop.9]>
C:\Users\Ryan\Documents\GitHub\sport_main_code_2023/sport_menu.h:1388
    }

    if (page == 1)  // start
    4870:	80 91 05 01 	lds	r24, 0x0105	; 0x800105 <menu()::page>
    4874:	81 30       	cpi	r24, 0x01	; 1
    4876:	09 f0       	breq	.+2      	; 0x487a <main+0x4b2>
    4878:	04 c2       	rjmp	.+1032   	; 0x4c82 <main+0x8ba>
C:\Users\Ryan\Documents\GitHub\sport_main_code_2023/sport_menu.h:1390
    {
      if (start == 0) {
    487a:	86 e0       	ldi	r24, 0x06	; 6
    487c:	0e 94 e3 01 	call	0x3c6	; 0x3c6 <digitalRead>
    4880:	89 2b       	or	r24, r25
    4882:	09 f0       	breq	.+2      	; 0x4886 <main+0x4be>
    4884:	b2 c1       	rjmp	.+868    	; 0x4bea <main+0x822>
C:\Users\Ryan\Documents\GitHub\sport_main_code_2023/sport_menu.h:1391
        while (start == 0)
    4886:	86 e0       	ldi	r24, 0x06	; 6
    4888:	0e 94 e3 01 	call	0x3c6	; 0x3c6 <digitalRead>
    488c:	89 2b       	or	r24, r25
    488e:	d9 f3       	breq	.-10     	; 0x4886 <main+0x4be>
C:\Users\Ryan\Documents\GitHub\sport_main_code_2023/sport_menu.h:1393
          ;
        lcd.clear();
    4890:	0e 94 bf 05 	call	0xb7e	; 0xb7e <LiquidCrystal::clear() [clone .constprop.38]>
C:\Users\Ryan\Documents\GitHub\sport_main_code_2023/sport_menu.h:1395

        lcd.print("Rescue Team");
    4894:	8c ed       	ldi	r24, 0xDC	; 220
    4896:	95 e0       	ldi	r25, 0x05	; 5
    4898:	0e 94 ff 09 	call	0x13fe	; 0x13fe <Print::print(char const*) [clone .constprop.9]>
C:\Users\Ryan\Documents\GitHub\sport_main_code_2023/sport_menu.h:1396
        beep(1);
    489c:	81 e0       	ldi	r24, 0x01	; 1
    489e:	90 e0       	ldi	r25, 0x00	; 0
    48a0:	0e 94 2e 08 	call	0x105c	; 0x105c <beep(int)>
setup():
C:\Users\Ryan\Documents\GitHub\sport_main_code_2023/sport_main_code_2023.ino:39
  //ev zone setup
  barband[0]=0;barband[1]=0;barband[2]=0;barband[3]=0;
  
  menu();
  //move_arm(arm_normal,500);move_gripper(gripper_open,500);delay(1500);
  go(60,60);
    48a4:	6c e3       	ldi	r22, 0x3C	; 60
    48a6:	70 e0       	ldi	r23, 0x00	; 0
    48a8:	8c e3       	ldi	r24, 0x3C	; 60
    48aa:	90 e0       	ldi	r25, 0x00	; 0
    48ac:	0e 94 d0 06 	call	0xda0	; 0xda0 <go(int, int)>
C:\Users\Ryan\Documents\GitHub\sport_main_code_2023/sport_main_code_2023.ino:40
  while ((SM + SL1 + SL2 + SL3 + SL4 + SL5 + SL6 + SR1 + SR2 + SR3 + SR4 + SR5 + SR6) > 5);
    48b0:	40 e0       	ldi	r20, 0x00	; 0
    48b2:	60 e0       	ldi	r22, 0x00	; 0
    48b4:	80 e0       	ldi	r24, 0x00	; 0
    48b6:	0e 94 83 06 	call	0xd06	; 0xd06 <read_sensor(char, char, char)>
    48ba:	ec 01       	movw	r28, r24
    48bc:	40 e0       	ldi	r20, 0x00	; 0
    48be:	60 e0       	ldi	r22, 0x00	; 0
    48c0:	81 e0       	ldi	r24, 0x01	; 1
    48c2:	0e 94 83 06 	call	0xd06	; 0xd06 <read_sensor(char, char, char)>
    48c6:	c8 0f       	add	r28, r24
    48c8:	d9 1f       	adc	r29, r25
    48ca:	40 e0       	ldi	r20, 0x00	; 0
    48cc:	60 e0       	ldi	r22, 0x00	; 0
    48ce:	82 e0       	ldi	r24, 0x02	; 2
    48d0:	0e 94 83 06 	call	0xd06	; 0xd06 <read_sensor(char, char, char)>
    48d4:	c8 0f       	add	r28, r24
    48d6:	d9 1f       	adc	r29, r25
    48d8:	40 e0       	ldi	r20, 0x00	; 0
    48da:	60 e0       	ldi	r22, 0x00	; 0
    48dc:	83 e0       	ldi	r24, 0x03	; 3
    48de:	0e 94 83 06 	call	0xd06	; 0xd06 <read_sensor(char, char, char)>
    48e2:	c8 0f       	add	r28, r24
    48e4:	d9 1f       	adc	r29, r25
    48e6:	40 e0       	ldi	r20, 0x00	; 0
    48e8:	60 e0       	ldi	r22, 0x00	; 0
    48ea:	84 e0       	ldi	r24, 0x04	; 4
    48ec:	0e 94 83 06 	call	0xd06	; 0xd06 <read_sensor(char, char, char)>
    48f0:	c8 0f       	add	r28, r24
    48f2:	d9 1f       	adc	r29, r25
    48f4:	40 e0       	ldi	r20, 0x00	; 0
    48f6:	60 e0       	ldi	r22, 0x00	; 0
    48f8:	85 e0       	ldi	r24, 0x05	; 5
    48fa:	0e 94 83 06 	call	0xd06	; 0xd06 <read_sensor(char, char, char)>
    48fe:	c8 0f       	add	r28, r24
    4900:	d9 1f       	adc	r29, r25
    4902:	40 e0       	ldi	r20, 0x00	; 0
    4904:	60 e0       	ldi	r22, 0x00	; 0
    4906:	86 e0       	ldi	r24, 0x06	; 6
    4908:	0e 94 83 06 	call	0xd06	; 0xd06 <read_sensor(char, char, char)>
    490c:	c8 0f       	add	r28, r24
    490e:	d9 1f       	adc	r29, r25
    4910:	40 e0       	ldi	r20, 0x00	; 0
    4912:	61 e0       	ldi	r22, 0x01	; 1
    4914:	81 e0       	ldi	r24, 0x01	; 1
    4916:	0e 94 83 06 	call	0xd06	; 0xd06 <read_sensor(char, char, char)>
    491a:	c8 0f       	add	r28, r24
    491c:	d9 1f       	adc	r29, r25
    491e:	40 e0       	ldi	r20, 0x00	; 0
    4920:	61 e0       	ldi	r22, 0x01	; 1
    4922:	82 e0       	ldi	r24, 0x02	; 2
    4924:	0e 94 83 06 	call	0xd06	; 0xd06 <read_sensor(char, char, char)>
    4928:	c8 0f       	add	r28, r24
    492a:	d9 1f       	adc	r29, r25
    492c:	40 e0       	ldi	r20, 0x00	; 0
    492e:	61 e0       	ldi	r22, 0x01	; 1
    4930:	83 e0       	ldi	r24, 0x03	; 3
    4932:	0e 94 83 06 	call	0xd06	; 0xd06 <read_sensor(char, char, char)>
    4936:	c8 0f       	add	r28, r24
    4938:	d9 1f       	adc	r29, r25
    493a:	40 e0       	ldi	r20, 0x00	; 0
    493c:	61 e0       	ldi	r22, 0x01	; 1
    493e:	84 e0       	ldi	r24, 0x04	; 4
    4940:	0e 94 83 06 	call	0xd06	; 0xd06 <read_sensor(char, char, char)>
    4944:	c8 0f       	add	r28, r24
    4946:	d9 1f       	adc	r29, r25
    4948:	40 e0       	ldi	r20, 0x00	; 0
    494a:	61 e0       	ldi	r22, 0x01	; 1
    494c:	85 e0       	ldi	r24, 0x05	; 5
    494e:	0e 94 83 06 	call	0xd06	; 0xd06 <read_sensor(char, char, char)>
    4952:	c8 0f       	add	r28, r24
    4954:	d9 1f       	adc	r29, r25
    4956:	40 e0       	ldi	r20, 0x00	; 0
    4958:	61 e0       	ldi	r22, 0x01	; 1
    495a:	86 e0       	ldi	r24, 0x06	; 6
    495c:	0e 94 83 06 	call	0xd06	; 0xd06 <read_sensor(char, char, char)>
    4960:	8c 0f       	add	r24, r28
    4962:	9d 1f       	adc	r25, r29
    4964:	06 97       	sbiw	r24, 0x06	; 6
    4966:	0c f0       	brlt	.+2      	; 0x496a <main+0x5a2>
    4968:	a3 cf       	rjmp	.-186    	; 0x48b0 <main+0x4e8>
C:\Users\Ryan\Documents\GitHub\sport_main_code_2023/sport_main_code_2023.ino:41
  move(forward,T90/2);
    496a:	60 91 e3 08 	lds	r22, 0x08E3	; 0x8008e3 <T90>
    496e:	70 91 e4 08 	lds	r23, 0x08E4	; 0x8008e4 <T90+0x1>
    4972:	77 ff       	sbrs	r23, 7
    4974:	02 c0       	rjmp	.+4      	; 0x497a <main+0x5b2>
    4976:	6f 5f       	subi	r22, 0xFF	; 255
    4978:	7f 4f       	sbci	r23, 0xFF	; 255
    497a:	75 95       	asr	r23
    497c:	67 95       	ror	r22
    497e:	44 eb       	ldi	r20, 0xB4	; 180
    4980:	50 e0       	ldi	r21, 0x00	; 0
    4982:	8a e0       	ldi	r24, 0x0A	; 10
    4984:	90 e0       	ldi	r25, 0x00	; 0
    4986:	0e 94 35 07 	call	0xe6a	; 0xe6a <move(int, int, int)>
color_detection():
C:\Users\Ryan\Documents\GitHub\sport_main_code_2023/sport_menu.h:2029
    if (right_card == YELLOW) {
      go(0, 0);
      if (color_R == YELLOW) {
        lcd.clear();
        lcd.print("archery");
        move(forward,T90/3,100);
    498a:	03 e0       	ldi	r16, 0x03	; 3
    498c:	10 e0       	ldi	r17, 0x00	; 0
loop():
C:\Users\Ryan\Documents\GitHub\sport_main_code_2023/sport_main_code_2023.ino:48




void loop(){
  linefollow();
    498e:	0e 94 a4 07 	call	0xf48	; 0xf48 <linefollow()>
color_detection():
C:\Users\Ryan\Documents\GitHub\sport_main_code_2023/sport_menu.h:1924
    go(0,0); delay(2000);
  }
}
*/
void color_detection() {
  int T90 = EEPROM_read_int(T90_address);
    4992:	88 e9       	ldi	r24, 0x98	; 152
    4994:	90 e0       	ldi	r25, 0x00	; 0
    4996:	0e 94 1c 0a 	call	0x1438	; 0x1438 <EEPROM_read_int(int)>
    499a:	ec 01       	movw	r28, r24
C:\Users\Ryan\Documents\GitHub\sport_main_code_2023/sport_menu.h:1927
  int inter_detected = false;
  int deadend_detected = false;
  left_card = color_L;
    499c:	81 e0       	ldi	r24, 0x01	; 1
    499e:	0e 94 32 0a 	call	0x1464	; 0x1464 <color(char)>
    49a2:	e8 2e       	mov	r14, r24
    49a4:	88 0f       	add	r24, r24
    49a6:	ff 08       	sbc	r15, r15
    49a8:	f0 92 09 01 	sts	0x0109, r15	; 0x800109 <left_card+0x1>
    49ac:	e0 92 08 01 	sts	0x0108, r14	; 0x800108 <left_card>
C:\Users\Ryan\Documents\GitHub\sport_main_code_2023/sport_menu.h:1928
  right_card = color_R;
    49b0:	82 e0       	ldi	r24, 0x02	; 2
    49b2:	0e 94 32 0a 	call	0x1464	; 0x1464 <color(char)>
    49b6:	08 2e       	mov	r0, r24
    49b8:	00 0c       	add	r0, r0
    49ba:	99 0b       	sbc	r25, r25
    49bc:	90 93 07 01 	sts	0x0107, r25	; 0x800107 <right_card+0x1>
    49c0:	80 93 06 01 	sts	0x0106, r24	; 0x800106 <right_card>
C:\Users\Ryan\Documents\GitHub\sport_main_code_2023/sport_menu.h:1929
  if (left_card != WHITE) {
    49c4:	f7 e0       	ldi	r31, 0x07	; 7
    49c6:	ef 16       	cp	r14, r31
    49c8:	f1 04       	cpc	r15, r1
    49ca:	11 f4       	brne	.+4      	; 0x49d0 <main+0x608>
    49cc:	0c 94 55 30 	jmp	0x60aa	; 0x60aa <main+0x1ce2>
C:\Users\Ryan\Documents\GitHub\sport_main_code_2023/sport_menu.h:1930
    if (left_card == GREEN) {
    49d0:	ea 94       	dec	r14
    49d2:	ef 28       	or	r14, r15
    49d4:	49 f5       	brne	.+82     	; 0x4a28 <main+0x660>
C:\Users\Ryan\Documents\GitHub\sport_main_code_2023/sport_menu.h:1931
        go(0, 0);
    49d6:	70 e0       	ldi	r23, 0x00	; 0
    49d8:	60 e0       	ldi	r22, 0x00	; 0
    49da:	90 e0       	ldi	r25, 0x00	; 0
    49dc:	80 e0       	ldi	r24, 0x00	; 0
    49de:	0e 94 d0 06 	call	0xda0	; 0xda0 <go(int, int)>
C:\Users\Ryan\Documents\GitHub\sport_main_code_2023/sport_menu.h:1932
        beep(1);
    49e2:	81 e0       	ldi	r24, 0x01	; 1
    49e4:	90 e0       	ldi	r25, 0x00	; 0
    49e6:	0e 94 2e 08 	call	0x105c	; 0x105c <beep(int)>
C:\Users\Ryan\Documents\GitHub\sport_main_code_2023/sport_menu.h:1933
      if (color_L == GREEN) {
    49ea:	81 e0       	ldi	r24, 0x01	; 1
    49ec:	0e 94 32 0a 	call	0x1464	; 0x1464 <color(char)>
    49f0:	81 30       	cpi	r24, 0x01	; 1
    49f2:	09 f0       	breq	.+2      	; 0x49f6 <main+0x62e>
    49f4:	44 c0       	rjmp	.+136    	; 0x4a7e <main+0x6b6>
C:\Users\Ryan\Documents\GitHub\sport_main_code_2023/sport_menu.h:1934
        lcd.clear();
    49f6:	0e 94 bf 05 	call	0xb7e	; 0xb7e <LiquidCrystal::clear() [clone .constprop.38]>
C:\Users\Ryan\Documents\GitHub\sport_main_code_2023/sport_menu.h:1935
        lcd.print("Football");
    49fa:	86 e3       	ldi	r24, 0x36	; 54
    49fc:	98 e0       	ldi	r25, 0x08	; 8
    49fe:	0e 94 ff 09 	call	0x13fe	; 0x13fe <Print::print(char const*) [clone .constprop.9]>
C:\Users\Ryan\Documents\GitHub\sport_main_code_2023/sport_menu.h:1936
        move(forward,T90/3,100);
    4a02:	ce 01       	movw	r24, r28
    4a04:	b8 01       	movw	r22, r16
    4a06:	0e 94 d0 35 	call	0x6ba0	; 0x6ba0 <__divmodhi4>
    4a0a:	44 e6       	ldi	r20, 0x64	; 100
    4a0c:	50 e0       	ldi	r21, 0x00	; 0
    4a0e:	8a e0       	ldi	r24, 0x0A	; 10
    4a10:	90 e0       	ldi	r25, 0x00	; 0
    4a12:	0e 94 35 07 	call	0xe6a	; 0xe6a <move(int, int, int)>
C:\Users\Ryan\Documents\GitHub\sport_main_code_2023/sport_menu.h:1937
        move(Left,T90,150);
    4a16:	46 e9       	ldi	r20, 0x96	; 150
    4a18:	50 e0       	ldi	r21, 0x00	; 0
    4a1a:	be 01       	movw	r22, r28
    4a1c:	8b e0       	ldi	r24, 0x0B	; 11
    4a1e:	90 e0       	ldi	r25, 0x00	; 0
    4a20:	0e 94 35 07 	call	0xe6a	; 0xe6a <move(int, int, int)>
C:\Users\Ryan\Documents\GitHub\sport_main_code_2023/sport_menu.h:1938
        football();
    4a24:	0e 94 57 12 	call	0x24ae	; 0x24ae <football()>
C:\Users\Ryan\Documents\GitHub\sport_main_code_2023/sport_menu.h:1941
      }
    }
    if (left_card == SILVER) {
    4a28:	80 91 08 01 	lds	r24, 0x0108	; 0x800108 <left_card>
    4a2c:	90 91 09 01 	lds	r25, 0x0109	; 0x800109 <left_card+0x1>
    4a30:	05 97       	sbiw	r24, 0x05	; 5
    4a32:	29 f5       	brne	.+74     	; 0x4a7e <main+0x6b6>
C:\Users\Ryan\Documents\GitHub\sport_main_code_2023/sport_menu.h:1942
      go(0, 0);
    4a34:	70 e0       	ldi	r23, 0x00	; 0
    4a36:	60 e0       	ldi	r22, 0x00	; 0
    4a38:	90 e0       	ldi	r25, 0x00	; 0
    4a3a:	80 e0       	ldi	r24, 0x00	; 0
    4a3c:	0e 94 d0 06 	call	0xda0	; 0xda0 <go(int, int)>
C:\Users\Ryan\Documents\GitHub\sport_main_code_2023/sport_menu.h:1943
      if (color_L == SILVER) {
    4a40:	81 e0       	ldi	r24, 0x01	; 1
    4a42:	0e 94 32 0a 	call	0x1464	; 0x1464 <color(char)>
    4a46:	85 30       	cpi	r24, 0x05	; 5
    4a48:	09 f0       	breq	.+2      	; 0x4a4c <main+0x684>
    4a4a:	44 c0       	rjmp	.+136    	; 0x4ad4 <main+0x70c>
C:\Users\Ryan\Documents\GitHub\sport_main_code_2023/sport_menu.h:1944
        lcd.clear();
    4a4c:	0e 94 bf 05 	call	0xb7e	; 0xb7e <LiquidCrystal::clear() [clone .constprop.38]>
C:\Users\Ryan\Documents\GitHub\sport_main_code_2023/sport_menu.h:1945
        lcd.print("Obstacle");
    4a50:	8f e3       	ldi	r24, 0x3F	; 63
    4a52:	98 e0       	ldi	r25, 0x08	; 8
    4a54:	0e 94 ff 09 	call	0x13fe	; 0x13fe <Print::print(char const*) [clone .constprop.9]>
C:\Users\Ryan\Documents\GitHub\sport_main_code_2023/sport_menu.h:1946
        move(forward,T90/3,100);
    4a58:	ce 01       	movw	r24, r28
    4a5a:	b8 01       	movw	r22, r16
    4a5c:	0e 94 d0 35 	call	0x6ba0	; 0x6ba0 <__divmodhi4>
    4a60:	44 e6       	ldi	r20, 0x64	; 100
    4a62:	50 e0       	ldi	r21, 0x00	; 0
    4a64:	8a e0       	ldi	r24, 0x0A	; 10
    4a66:	90 e0       	ldi	r25, 0x00	; 0
    4a68:	0e 94 35 07 	call	0xe6a	; 0xe6a <move(int, int, int)>
C:\Users\Ryan\Documents\GitHub\sport_main_code_2023/sport_menu.h:1947
        move(Left,T90,150);
    4a6c:	46 e9       	ldi	r20, 0x96	; 150
    4a6e:	50 e0       	ldi	r21, 0x00	; 0
    4a70:	be 01       	movw	r22, r28
    4a72:	8b e0       	ldi	r24, 0x0B	; 11
    4a74:	90 e0       	ldi	r25, 0x00	; 0
    4a76:	0e 94 35 07 	call	0xe6a	; 0xe6a <move(int, int, int)>
C:\Users\Ryan\Documents\GitHub\sport_main_code_2023/sport_menu.h:1948
        obstacle();
    4a7a:	0e 94 90 10 	call	0x2120	; 0x2120 <obstacle()>
C:\Users\Ryan\Documents\GitHub\sport_main_code_2023/sport_menu.h:1951
      }
    }
    if (left_card == BLUE) {
    4a7e:	80 91 08 01 	lds	r24, 0x0108	; 0x800108 <left_card>
    4a82:	90 91 09 01 	lds	r25, 0x0109	; 0x800109 <left_card+0x1>
    4a86:	02 97       	sbiw	r24, 0x02	; 2
    4a88:	29 f5       	brne	.+74     	; 0x4ad4 <main+0x70c>
C:\Users\Ryan\Documents\GitHub\sport_main_code_2023/sport_menu.h:1952
      go(0, 0);
    4a8a:	70 e0       	ldi	r23, 0x00	; 0
    4a8c:	60 e0       	ldi	r22, 0x00	; 0
    4a8e:	90 e0       	ldi	r25, 0x00	; 0
    4a90:	80 e0       	ldi	r24, 0x00	; 0
    4a92:	0e 94 d0 06 	call	0xda0	; 0xda0 <go(int, int)>
C:\Users\Ryan\Documents\GitHub\sport_main_code_2023/sport_menu.h:1953
      if (color_L == BLUE) {
    4a96:	81 e0       	ldi	r24, 0x01	; 1
    4a98:	0e 94 32 0a 	call	0x1464	; 0x1464 <color(char)>
    4a9c:	82 30       	cpi	r24, 0x02	; 2
    4a9e:	09 f0       	breq	.+2      	; 0x4aa2 <main+0x6da>
    4aa0:	45 c0       	rjmp	.+138    	; 0x4b2c <main+0x764>
C:\Users\Ryan\Documents\GitHub\sport_main_code_2023/sport_menu.h:1954
        lcd.clear();
    4aa2:	0e 94 bf 05 	call	0xb7e	; 0xb7e <LiquidCrystal::clear() [clone .constprop.38]>
C:\Users\Ryan\Documents\GitHub\sport_main_code_2023/sport_menu.h:1955
        lcd.print("weight lift");
    4aa6:	88 e4       	ldi	r24, 0x48	; 72
    4aa8:	98 e0       	ldi	r25, 0x08	; 8
    4aaa:	0e 94 ff 09 	call	0x13fe	; 0x13fe <Print::print(char const*) [clone .constprop.9]>
C:\Users\Ryan\Documents\GitHub\sport_main_code_2023/sport_menu.h:1956
        move(forward,T90/3,100);
    4aae:	ce 01       	movw	r24, r28
    4ab0:	b8 01       	movw	r22, r16
    4ab2:	0e 94 d0 35 	call	0x6ba0	; 0x6ba0 <__divmodhi4>
    4ab6:	44 e6       	ldi	r20, 0x64	; 100
    4ab8:	50 e0       	ldi	r21, 0x00	; 0
    4aba:	8a e0       	ldi	r24, 0x0A	; 10
    4abc:	90 e0       	ldi	r25, 0x00	; 0
    4abe:	0e 94 35 07 	call	0xe6a	; 0xe6a <move(int, int, int)>
C:\Users\Ryan\Documents\GitHub\sport_main_code_2023/sport_menu.h:1957
        move(Left,T90,150);
    4ac2:	46 e9       	ldi	r20, 0x96	; 150
    4ac4:	50 e0       	ldi	r21, 0x00	; 0
    4ac6:	be 01       	movw	r22, r28
    4ac8:	8b e0       	ldi	r24, 0x0B	; 11
    4aca:	90 e0       	ldi	r25, 0x00	; 0
    4acc:	0e 94 35 07 	call	0xe6a	; 0xe6a <move(int, int, int)>
C:\Users\Ryan\Documents\GitHub\sport_main_code_2023/sport_menu.h:1958
        wlift();
    4ad0:	0e 94 0b 13 	call	0x2616	; 0x2616 <wlift()>
C:\Users\Ryan\Documents\GitHub\sport_main_code_2023/sport_menu.h:1961
      }
    }
    if (left_card == RED) {
    4ad4:	80 91 08 01 	lds	r24, 0x0108	; 0x800108 <left_card>
    4ad8:	90 91 09 01 	lds	r25, 0x0109	; 0x800109 <left_card+0x1>
    4adc:	89 2b       	or	r24, r25
    4ade:	31 f5       	brne	.+76     	; 0x4b2c <main+0x764>
C:\Users\Ryan\Documents\GitHub\sport_main_code_2023/sport_menu.h:1962
      go(0, 0);
    4ae0:	70 e0       	ldi	r23, 0x00	; 0
    4ae2:	60 e0       	ldi	r22, 0x00	; 0
    4ae4:	90 e0       	ldi	r25, 0x00	; 0
    4ae6:	80 e0       	ldi	r24, 0x00	; 0
    4ae8:	0e 94 d0 06 	call	0xda0	; 0xda0 <go(int, int)>
C:\Users\Ryan\Documents\GitHub\sport_main_code_2023/sport_menu.h:1963
      if (color_L == RED) {
    4aec:	81 e0       	ldi	r24, 0x01	; 1
    4aee:	0e 94 32 0a 	call	0x1464	; 0x1464 <color(char)>
    4af2:	81 11       	cpse	r24, r1
    4af4:	45 c0       	rjmp	.+138    	; 0x4b80 <main+0x7b8>
C:\Users\Ryan\Documents\GitHub\sport_main_code_2023/sport_menu.h:1964
        lcd.clear();
    4af6:	0e 94 bf 05 	call	0xb7e	; 0xb7e <LiquidCrystal::clear() [clone .constprop.38]>
C:\Users\Ryan\Documents\GitHub\sport_main_code_2023/sport_menu.h:1965
        lcd.print("Trck");
    4afa:	84 e5       	ldi	r24, 0x54	; 84
    4afc:	98 e0       	ldi	r25, 0x08	; 8
    4afe:	0e 94 ff 09 	call	0x13fe	; 0x13fe <Print::print(char const*) [clone .constprop.9]>
C:\Users\Ryan\Documents\GitHub\sport_main_code_2023/sport_menu.h:1966
        move(forward,T90/3,100);
    4b02:	ce 01       	movw	r24, r28
    4b04:	b8 01       	movw	r22, r16
    4b06:	0e 94 d0 35 	call	0x6ba0	; 0x6ba0 <__divmodhi4>
    4b0a:	44 e6       	ldi	r20, 0x64	; 100
    4b0c:	50 e0       	ldi	r21, 0x00	; 0
    4b0e:	8a e0       	ldi	r24, 0x0A	; 10
    4b10:	90 e0       	ldi	r25, 0x00	; 0
    4b12:	0e 94 35 07 	call	0xe6a	; 0xe6a <move(int, int, int)>
C:\Users\Ryan\Documents\GitHub\sport_main_code_2023/sport_menu.h:1967
        move(Left,T90,150);
    4b16:	46 e9       	ldi	r20, 0x96	; 150
    4b18:	50 e0       	ldi	r21, 0x00	; 0
    4b1a:	be 01       	movw	r22, r28
    4b1c:	8b e0       	ldi	r24, 0x0B	; 11
    4b1e:	90 e0       	ldi	r25, 0x00	; 0
    4b20:	0e 94 35 07 	call	0xe6a	; 0xe6a <move(int, int, int)>
C:\Users\Ryan\Documents\GitHub\sport_main_code_2023/sport_menu.h:1968
        track(4,Left);
    4b24:	8b e0       	ldi	r24, 0x0B	; 11
    4b26:	90 e0       	ldi	r25, 0x00	; 0
    4b28:	0e 94 33 0f 	call	0x1e66	; 0x1e66 <track(int, int) [clone .constprop.3]>
C:\Users\Ryan\Documents\GitHub\sport_main_code_2023/sport_menu.h:1971
      }
    }
    if (left_card == YELLOW) {
    4b2c:	80 91 08 01 	lds	r24, 0x0108	; 0x800108 <left_card>
    4b30:	90 91 09 01 	lds	r25, 0x0109	; 0x800109 <left_card+0x1>
    4b34:	04 97       	sbiw	r24, 0x04	; 4
    4b36:	21 f5       	brne	.+72     	; 0x4b80 <main+0x7b8>
C:\Users\Ryan\Documents\GitHub\sport_main_code_2023/sport_menu.h:1972
      go(0, 0);
    4b38:	70 e0       	ldi	r23, 0x00	; 0
    4b3a:	60 e0       	ldi	r22, 0x00	; 0
    4b3c:	90 e0       	ldi	r25, 0x00	; 0
    4b3e:	80 e0       	ldi	r24, 0x00	; 0
    4b40:	0e 94 d0 06 	call	0xda0	; 0xda0 <go(int, int)>
C:\Users\Ryan\Documents\GitHub\sport_main_code_2023/sport_menu.h:1973
      if (color_L == YELLOW) {
    4b44:	81 e0       	ldi	r24, 0x01	; 1
    4b46:	0e 94 32 0a 	call	0x1464	; 0x1464 <color(char)>
    4b4a:	84 30       	cpi	r24, 0x04	; 4
    4b4c:	c9 f4       	brne	.+50     	; 0x4b80 <main+0x7b8>
C:\Users\Ryan\Documents\GitHub\sport_main_code_2023/sport_menu.h:1974
        lcd.clear();
    4b4e:	0e 94 bf 05 	call	0xb7e	; 0xb7e <LiquidCrystal::clear() [clone .constprop.38]>
C:\Users\Ryan\Documents\GitHub\sport_main_code_2023/sport_menu.h:1975
        lcd.print("archery");
    4b52:	89 e5       	ldi	r24, 0x59	; 89
    4b54:	98 e0       	ldi	r25, 0x08	; 8
    4b56:	0e 94 ff 09 	call	0x13fe	; 0x13fe <Print::print(char const*) [clone .constprop.9]>
C:\Users\Ryan\Documents\GitHub\sport_main_code_2023/sport_menu.h:1976
        move(forward,T90/3,100);
    4b5a:	ce 01       	movw	r24, r28
    4b5c:	b8 01       	movw	r22, r16
    4b5e:	0e 94 d0 35 	call	0x6ba0	; 0x6ba0 <__divmodhi4>
    4b62:	44 e6       	ldi	r20, 0x64	; 100
    4b64:	50 e0       	ldi	r21, 0x00	; 0
    4b66:	8a e0       	ldi	r24, 0x0A	; 10
    4b68:	90 e0       	ldi	r25, 0x00	; 0
    4b6a:	0e 94 35 07 	call	0xe6a	; 0xe6a <move(int, int, int)>
C:\Users\Ryan\Documents\GitHub\sport_main_code_2023/sport_menu.h:1977
        move(Left,T90,150);
    4b6e:	46 e9       	ldi	r20, 0x96	; 150
    4b70:	50 e0       	ldi	r21, 0x00	; 0
    4b72:	be 01       	movw	r22, r28
    4b74:	8b e0       	ldi	r24, 0x0B	; 11
    4b76:	90 e0       	ldi	r25, 0x00	; 0
C:\Users\Ryan\Documents\GitHub\sport_main_code_2023/sport_menu.h:2030
      go(0, 0);
      if (color_R == YELLOW) {
        lcd.clear();
        lcd.print("archery");
        move(forward,T90/3,100);
        move(Right,T90,150);
    4b78:	0e 94 35 07 	call	0xe6a	; 0xe6a <move(int, int, int)>
C:\Users\Ryan\Documents\GitHub\sport_main_code_2023/sport_menu.h:2031
        archery();
    4b7c:	0e 94 d0 11 	call	0x23a0	; 0x23a0 <archery()>
main():
C:\Users\Ryan\AppData\Local\Arduino15\packages\MegaCore\hardware\avr\3.0.3\cores\MCUdude_corefiles/main.cpp:47
  
  setup();
    
  for (;;) {
    loop();
    if (serialEventRun) serialEventRun();
    4b80:	0e 94 65 04 	call	0x8ca	; 0x8ca <serialEventRun()>
    4b84:	04 cf       	rjmp	.-504    	; 0x498e <main+0x5c6>
menu():
C:\Users\Ryan\Documents\GitHub\sport_main_code_2023/sport_menu.h:1346
  lcd.printf("SBL=%d   SBR=%d", SBL, SBR);

  lcd.setCursor(0, 3);
  lcd.printf("p_p=%d next_p=%d Ent=%d", previuse_page, next_page, start);

  if (start == 0 || next_page == 0 || previuse_page == 0 || SBL == 0 || SBR == 0)
    4b86:	88 e0       	ldi	r24, 0x08	; 8
    4b88:	0e 94 e3 01 	call	0x3c6	; 0x3c6 <digitalRead>
    4b8c:	89 2b       	or	r24, r25
    4b8e:	09 f4       	brne	.+2      	; 0x4b92 <main+0x7ca>
    4b90:	fd cd       	rjmp	.-1030   	; 0x478c <main+0x3c4>
    4b92:	89 e0       	ldi	r24, 0x09	; 9
    4b94:	0e 94 e3 01 	call	0x3c6	; 0x3c6 <digitalRead>
    4b98:	89 2b       	or	r24, r25
    4b9a:	09 f4       	brne	.+2      	; 0x4b9e <main+0x7d6>
    4b9c:	f7 cd       	rjmp	.-1042   	; 0x478c <main+0x3c4>
    4b9e:	85 e2       	ldi	r24, 0x25	; 37
    4ba0:	0e 94 e3 01 	call	0x3c6	; 0x3c6 <digitalRead>
    4ba4:	89 2b       	or	r24, r25
    4ba6:	09 f4       	brne	.+2      	; 0x4baa <main+0x7e2>
    4ba8:	f1 cd       	rjmp	.-1054   	; 0x478c <main+0x3c4>
    4baa:	86 e2       	ldi	r24, 0x26	; 38
    4bac:	0e 94 e3 01 	call	0x3c6	; 0x3c6 <digitalRead>
    4bb0:	89 2b       	or	r24, r25
    4bb2:	09 f4       	brne	.+2      	; 0x4bb6 <main+0x7ee>
    4bb4:	eb cd       	rjmp	.-1066   	; 0x478c <main+0x3c4>
    4bb6:	ee cd       	rjmp	.-1060   	; 0x4794 <main+0x3cc>
C:\Users\Ryan\Documents\GitHub\sport_main_code_2023/sport_menu.h:1356
      while (next_page == 0)
        ;
      delay(50);
      page++;
      if (page > last_page)
        page = 1;
    4bb8:	d0 92 05 01 	sts	0x0105, r13	; 0x800105 <menu()::page>
    4bbc:	0f ce       	rjmp	.-994    	; 0x47dc <main+0x414>
C:\Users\Ryan\Documents\GitHub\sport_main_code_2023/sport_menu.h:1365
      while (previuse_page == 0)
        ;
      delay(50);
      page--;
      if (page < 1)
        page = last_page;
    4bbe:	c0 92 05 01 	sts	0x0105, r12	; 0x800105 <menu()::page>
    4bc2:	25 ce       	rjmp	.-950    	; 0x480e <main+0x446>
C:\Users\Ryan\Documents\GitHub\sport_main_code_2023/sport_menu.h:1380
      lcd.setCursor(2, 3);
      lcd.print("Test Color    ");
      lcd.setCursor(0, page - 1);
      lcd.print("> ");
    } else if (page > 4) {
      lcd.setCursor(2, 0);
    4bc4:	82 e0       	ldi	r24, 0x02	; 2
    4bc6:	0e 94 67 06 	call	0xcce	; 0xcce <LiquidCrystal::setCursor(unsigned char, unsigned char) [clone .constprop.27]>
C:\Users\Ryan\Documents\GitHub\sport_main_code_2023/sport_menu.h:1381
      lcd.print("Test Motor   ");
    4bca:	81 ec       	ldi	r24, 0xC1	; 193
    4bcc:	95 e0       	ldi	r25, 0x05	; 5
    4bce:	0e 94 ff 09 	call	0x13fe	; 0x13fe <Print::print(char const*) [clone .constprop.9]>
C:\Users\Ryan\Documents\GitHub\sport_main_code_2023/sport_menu.h:1382
      lcd.setCursor(2, 1);
    4bd2:	61 e0       	ldi	r22, 0x01	; 1
    4bd4:	82 e0       	ldi	r24, 0x02	; 2
    4bd6:	0e 94 67 06 	call	0xcce	; 0xcce <LiquidCrystal::setCursor(unsigned char, unsigned char) [clone .constprop.27]>
C:\Users\Ryan\Documents\GitHub\sport_main_code_2023/sport_menu.h:1383
      lcd.print("color calib ");
    4bda:	8f ec       	ldi	r24, 0xCF	; 207
    4bdc:	95 e0       	ldi	r25, 0x05	; 5
    4bde:	0e 94 ff 09 	call	0x13fe	; 0x13fe <Print::print(char const*) [clone .constprop.9]>
C:\Users\Ryan\Documents\GitHub\sport_main_code_2023/sport_menu.h:1384
      lcd.setCursor(0, page - 5);
    4be2:	60 91 05 01 	lds	r22, 0x0105	; 0x800105 <menu()::page>
    4be6:	65 50       	subi	r22, 0x05	; 5
    4be8:	3c ce       	rjmp	.-904    	; 0x4862 <main+0x49a>
C:\Users\Ryan\Documents\GitHub\sport_main_code_2023/sport_menu.h:1399

        lcd.print("Rescue Team");
        beep(1);
        break;
      }
      battery = analogRead(A7);
    4bea:	84 e3       	ldi	r24, 0x34	; 52
    4bec:	0e 94 ea 02 	call	0x5d4	; 0x5d4 <analogRead>
C:\Users\Ryan\Documents\GitHub\sport_main_code_2023/sport_menu.h:1400
      battery = (battery * 5 / 102.3) * 3.1;
    4bf0:	b8 9e       	mul	r11, r24
    4bf2:	b0 01       	movw	r22, r0
    4bf4:	b9 9e       	mul	r11, r25
    4bf6:	70 0d       	add	r23, r0
    4bf8:	11 24       	eor	r1, r1
    4bfa:	07 2e       	mov	r0, r23
    4bfc:	00 0c       	add	r0, r0
    4bfe:	88 0b       	sbc	r24, r24
    4c00:	99 0b       	sbc	r25, r25
    4c02:	0e 94 9f 34 	call	0x693e	; 0x693e <__floatsisf>
    4c06:	2a e9       	ldi	r18, 0x9A	; 154
    4c08:	39 e9       	ldi	r19, 0x99	; 153
    4c0a:	4c ec       	ldi	r20, 0xCC	; 204
    4c0c:	52 e4       	ldi	r21, 0x42	; 66
    4c0e:	0e 94 f5 33 	call	0x67ea	; 0x67ea <__divsf3>
    4c12:	26 e6       	ldi	r18, 0x66	; 102
    4c14:	36 e6       	ldi	r19, 0x66	; 102
    4c16:	46 e4       	ldi	r20, 0x46	; 70
    4c18:	50 e4       	ldi	r21, 0x40	; 64
    4c1a:	0e 94 4f 35 	call	0x6a9e	; 0x6a9e <__mulsf3>
    4c1e:	0e 94 67 34 	call	0x68ce	; 0x68ce <__fixsfsi>
    4c22:	a6 2e       	mov	r10, r22
    4c24:	97 2e       	mov	r9, r23
    4c26:	e6 2e       	mov	r14, r22
    4c28:	f7 2e       	mov	r15, r23
C:\Users\Ryan\Documents\GitHub\sport_main_code_2023/sport_menu.h:1401
      lcd.setCursor(8, 0);
    4c2a:	60 e0       	ldi	r22, 0x00	; 0
    4c2c:	88 e0       	ldi	r24, 0x08	; 8
    4c2e:	0e 94 67 06 	call	0xcce	; 0xcce <LiquidCrystal::setCursor(unsigned char, unsigned char) [clone .constprop.27]>
C:\Users\Ryan\Documents\GitHub\sport_main_code_2023/sport_menu.h:1402
      lcd.printf("bat=%3d ", battery);
    4c32:	9f 92       	push	r9
    4c34:	af 92       	push	r10
    4c36:	df 93       	push	r29
    4c38:	cf 93       	push	r28
    4c3a:	1f 93       	push	r17
    4c3c:	0f 93       	push	r16
    4c3e:	0e 94 19 09 	call	0x1232	; 0x1232 <Print::printf(char const*, ...) [clone .constprop.28]>
C:\Users\Ryan\Documents\GitHub\sport_main_code_2023/sport_menu.h:1404

      if (battery < 105) {
    4c42:	0f 90       	pop	r0
    4c44:	0f 90       	pop	r0
    4c46:	0f 90       	pop	r0
    4c48:	0f 90       	pop	r0
    4c4a:	0f 90       	pop	r0
    4c4c:	0f 90       	pop	r0
    4c4e:	39 e6       	ldi	r19, 0x69	; 105
    4c50:	e3 16       	cp	r14, r19
    4c52:	f1 04       	cpc	r15, r1
    4c54:	0c f0       	brlt	.+2      	; 0x4c58 <main+0x890>
    4c56:	aa cd       	rjmp	.-1196   	; 0x47ac <main+0x3e4>
C:\Users\Ryan\Documents\GitHub\sport_main_code_2023/sport_menu.h:1405
        LED_on;
    4c58:	61 e0       	ldi	r22, 0x01	; 1
    4c5a:	8d e0       	ldi	r24, 0x0D	; 13
    4c5c:	0e 94 0c 02 	call	0x418	; 0x418 <digitalWrite>
C:\Users\Ryan\Documents\GitHub\sport_main_code_2023/sport_menu.h:1406
        delay(50);
    4c60:	62 e3       	ldi	r22, 0x32	; 50
    4c62:	70 e0       	ldi	r23, 0x00	; 0
    4c64:	80 e0       	ldi	r24, 0x00	; 0
    4c66:	90 e0       	ldi	r25, 0x00	; 0
    4c68:	0e 94 24 03 	call	0x648	; 0x648 <delay>
C:\Users\Ryan\Documents\GitHub\sport_main_code_2023/sport_menu.h:1407
        LED_off;
    4c6c:	60 e0       	ldi	r22, 0x00	; 0
    4c6e:	8d e0       	ldi	r24, 0x0D	; 13
    4c70:	0e 94 0c 02 	call	0x418	; 0x418 <digitalWrite>
C:\Users\Ryan\Documents\GitHub\sport_main_code_2023/sport_menu.h:1408
        delay(50);
    4c74:	62 e3       	ldi	r22, 0x32	; 50
    4c76:	70 e0       	ldi	r23, 0x00	; 0
    4c78:	80 e0       	ldi	r24, 0x00	; 0
    4c7a:	90 e0       	ldi	r25, 0x00	; 0
    4c7c:	0e 94 24 03 	call	0x648	; 0x648 <delay>
    4c80:	95 cd       	rjmp	.-1238   	; 0x47ac <main+0x3e4>
C:\Users\Ryan\Documents\GitHub\sport_main_code_2023/sport_menu.h:1410
      }
    } else if (page == 2)  // Test Sensor
    4c82:	82 30       	cpi	r24, 0x02	; 2
    4c84:	09 f0       	breq	.+2      	; 0x4c88 <main+0x8c0>
    4c86:	55 c4       	rjmp	.+2218   	; 0x5532 <main+0x116a>
C:\Users\Ryan\Documents\GitHub\sport_main_code_2023/sport_menu.h:1412
    {
      if (start == 0) {
    4c88:	86 e0       	ldi	r24, 0x06	; 6
    4c8a:	0e 94 e3 01 	call	0x3c6	; 0x3c6 <digitalRead>
    4c8e:	89 2b       	or	r24, r25
    4c90:	09 f0       	breq	.+2      	; 0x4c94 <main+0x8cc>
    4c92:	8c cd       	rjmp	.-1256   	; 0x47ac <main+0x3e4>
C:\Users\Ryan\Documents\GitHub\sport_main_code_2023/sport_menu.h:1413
        while (start == 0)
    4c94:	86 e0       	ldi	r24, 0x06	; 6
    4c96:	0e 94 e3 01 	call	0x3c6	; 0x3c6 <digitalRead>
    4c9a:	89 2b       	or	r24, r25
    4c9c:	d9 f3       	breq	.-10     	; 0x4c94 <main+0x8cc>
menu_sensor():
C:\Users\Ryan\Documents\GitHub\sport_main_code_2023/sport_menu.h:808
long microsecondsToMillimeters(long microseconds) {
  return microseconds * 10 / 29 / 2;
}
void menu_sensor(void) {
  static char page = 1, last_page = 6;
  lcd.clear();
    4c9e:	0e 94 bf 05 	call	0xb7e	; 0xb7e <LiquidCrystal::clear() [clone .constprop.38]>
C:\Users\Ryan\Documents\GitHub\sport_main_code_2023/sport_menu.h:938
      delay(200);
      lcd.clear();
    } else if (page == 6)  // compass
    {
      lcd.setCursor(0, 0);
      lcd.printf("deg: %d pi: %d ro: %d", deg, pitch, role);
    4ca2:	cf eb       	ldi	r28, 0xBF	; 191
    4ca4:	da e0       	ldi	r29, 0x0A	; 10
microsecondsToMillimeters():
C:\Users\Ryan\Documents\GitHub\sport_main_code_2023/sport_menu.h:804
      }
    }
  }
}
long microsecondsToMillimeters(long microseconds) {
  return microseconds * 10 / 29 / 2;
    4ca6:	5a e3       	ldi	r21, 0x3A	; 58
    4ca8:	c5 2e       	mov	r12, r21
    4caa:	d1 2c       	mov	r13, r1
    4cac:	e1 2c       	mov	r14, r1
    4cae:	f1 2c       	mov	r15, r1
menu_sensor():
C:\Users\Ryan\Documents\GitHub\sport_main_code_2023/sport_menu.h:810
}
void menu_sensor(void) {
  static char page = 1, last_page = 6;
  lcd.clear();
  while (1) {
    if (next_page == 0) {
    4cb0:	88 e0       	ldi	r24, 0x08	; 8
    4cb2:	0e 94 e3 01 	call	0x3c6	; 0x3c6 <digitalRead>
    4cb6:	89 2b       	or	r24, r25
    4cb8:	a9 f4       	brne	.+42     	; 0x4ce4 <main+0x91c>
C:\Users\Ryan\Documents\GitHub\sport_main_code_2023/sport_menu.h:811
      while (next_page == 0)
    4cba:	88 e0       	ldi	r24, 0x08	; 8
    4cbc:	0e 94 e3 01 	call	0x3c6	; 0x3c6 <digitalRead>
    4cc0:	89 2b       	or	r24, r25
    4cc2:	d9 f3       	breq	.-10     	; 0x4cba <main+0x8f2>
C:\Users\Ryan\Documents\GitHub\sport_main_code_2023/sport_menu.h:813
        ;
      delay(50);
    4cc4:	62 e3       	ldi	r22, 0x32	; 50
    4cc6:	70 e0       	ldi	r23, 0x00	; 0
    4cc8:	80 e0       	ldi	r24, 0x00	; 0
    4cca:	90 e0       	ldi	r25, 0x00	; 0
    4ccc:	0e 94 24 03 	call	0x648	; 0x648 <delay>
C:\Users\Ryan\Documents\GitHub\sport_main_code_2023/sport_menu.h:814
      page++;
    4cd0:	80 91 02 01 	lds	r24, 0x0102	; 0x800102 <menu_sensor()::page>
    4cd4:	8f 5f       	subi	r24, 0xFF	; 255
C:\Users\Ryan\Documents\GitHub\sport_main_code_2023/sport_menu.h:815
      if (page > last_page)
    4cd6:	87 30       	cpi	r24, 0x07	; 7
    4cd8:	0c f0       	brlt	.+2      	; 0x4cdc <main+0x914>
    4cda:	5b c1       	rjmp	.+694    	; 0x4f92 <main+0xbca>
C:\Users\Ryan\Documents\GitHub\sport_main_code_2023/sport_menu.h:816
        page = 1;
    4cdc:	80 93 02 01 	sts	0x0102, r24	; 0x800102 <menu_sensor()::page>
C:\Users\Ryan\Documents\GitHub\sport_main_code_2023/sport_menu.h:817
      lcd.clear();
    4ce0:	0e 94 bf 05 	call	0xb7e	; 0xb7e <LiquidCrystal::clear() [clone .constprop.38]>
C:\Users\Ryan\Documents\GitHub\sport_main_code_2023/sport_menu.h:819
    }
    if (previuse_page == 0) {
    4ce4:	89 e0       	ldi	r24, 0x09	; 9
    4ce6:	0e 94 e3 01 	call	0x3c6	; 0x3c6 <digitalRead>
    4cea:	89 2b       	or	r24, r25
    4cec:	a9 f4       	brne	.+42     	; 0x4d18 <main+0x950>
C:\Users\Ryan\Documents\GitHub\sport_main_code_2023/sport_menu.h:820
      while (previuse_page == 0)
    4cee:	89 e0       	ldi	r24, 0x09	; 9
    4cf0:	0e 94 e3 01 	call	0x3c6	; 0x3c6 <digitalRead>
    4cf4:	89 2b       	or	r24, r25
    4cf6:	d9 f3       	breq	.-10     	; 0x4cee <main+0x926>
C:\Users\Ryan\Documents\GitHub\sport_main_code_2023/sport_menu.h:822
        ;
      delay(50);
    4cf8:	62 e3       	ldi	r22, 0x32	; 50
    4cfa:	70 e0       	ldi	r23, 0x00	; 0
    4cfc:	80 e0       	ldi	r24, 0x00	; 0
    4cfe:	90 e0       	ldi	r25, 0x00	; 0
    4d00:	0e 94 24 03 	call	0x648	; 0x648 <delay>
C:\Users\Ryan\Documents\GitHub\sport_main_code_2023/sport_menu.h:823
      page--;
    4d04:	80 91 02 01 	lds	r24, 0x0102	; 0x800102 <menu_sensor()::page>
    4d08:	81 50       	subi	r24, 0x01	; 1
C:\Users\Ryan\Documents\GitHub\sport_main_code_2023/sport_menu.h:824
      if (page < 1)
    4d0a:	18 16       	cp	r1, r24
    4d0c:	0c f0       	brlt	.+2      	; 0x4d10 <main+0x948>
    4d0e:	43 c1       	rjmp	.+646    	; 0x4f96 <main+0xbce>
C:\Users\Ryan\Documents\GitHub\sport_main_code_2023/sport_menu.h:825
        page = last_page;
    4d10:	80 93 02 01 	sts	0x0102, r24	; 0x800102 <menu_sensor()::page>
C:\Users\Ryan\Documents\GitHub\sport_main_code_2023/sport_menu.h:826
      lcd.clear();
    4d14:	0e 94 bf 05 	call	0xb7e	; 0xb7e <LiquidCrystal::clear() [clone .constprop.38]>
C:\Users\Ryan\Documents\GitHub\sport_main_code_2023/sport_menu.h:828
    }
    if (increase == 0)
    4d18:	8a e0       	ldi	r24, 0x0A	; 10
    4d1a:	0e 94 e3 01 	call	0x3c6	; 0x3c6 <digitalRead>
    4d1e:	89 2b       	or	r24, r25
    4d20:	09 f0       	breq	.+2      	; 0x4d24 <main+0x95c>
    4d22:	3b c1       	rjmp	.+630    	; 0x4f9a <main+0xbd2>
C:\Users\Ryan\Documents\GitHub\sport_main_code_2023/sport_menu.h:829
      go(40, 40);
    4d24:	68 e2       	ldi	r22, 0x28	; 40
    4d26:	70 e0       	ldi	r23, 0x00	; 0
    4d28:	88 e2       	ldi	r24, 0x28	; 40
    4d2a:	90 e0       	ldi	r25, 0x00	; 0
C:\Users\Ryan\Documents\GitHub\sport_main_code_2023/sport_menu.h:833
    else if (decrease == 0)
      go(-40, -40);
    else
      go(0, 0);
    4d2c:	0e 94 d0 06 	call	0xda0	; 0xda0 <go(int, int)>
C:\Users\Ryan\Documents\GitHub\sport_main_code_2023/sport_menu.h:837

    ///////////////

    if (page == 1) {
    4d30:	80 91 02 01 	lds	r24, 0x0102	; 0x800102 <menu_sensor()::page>
    4d34:	81 30       	cpi	r24, 0x01	; 1
    4d36:	09 f0       	breq	.+2      	; 0x4d3a <main+0x972>
    4d38:	93 c1       	rjmp	.+806    	; 0x5060 <main+0xc98>
C:\Users\Ryan\Documents\GitHub\sport_main_code_2023/sport_menu.h:838
      lcd.setCursor(0, 0);
    4d3a:	60 e0       	ldi	r22, 0x00	; 0
    4d3c:	80 e0       	ldi	r24, 0x00	; 0
    4d3e:	0e 94 67 06 	call	0xcce	; 0xcce <LiquidCrystal::setCursor(unsigned char, unsigned char) [clone .constprop.27]>
C:\Users\Ryan\Documents\GitHub\sport_main_code_2023/sport_menu.h:839
      lcd.printf("%d       %d      %d", SL10, SM, SR10);
    4d42:	40 e0       	ldi	r20, 0x00	; 0
    4d44:	63 e0       	ldi	r22, 0x03	; 3
    4d46:	82 e0       	ldi	r24, 0x02	; 2
    4d48:	0e 94 83 06 	call	0xd06	; 0xd06 <read_sensor(char, char, char)>
    4d4c:	b8 2e       	mov	r11, r24
    4d4e:	a9 2e       	mov	r10, r25
    4d50:	40 e0       	ldi	r20, 0x00	; 0
    4d52:	60 e0       	ldi	r22, 0x00	; 0
    4d54:	80 e0       	ldi	r24, 0x00	; 0
    4d56:	0e 94 83 06 	call	0xd06	; 0xd06 <read_sensor(char, char, char)>
    4d5a:	18 2f       	mov	r17, r24
    4d5c:	09 2f       	mov	r16, r25
    4d5e:	40 e0       	ldi	r20, 0x00	; 0
    4d60:	62 e0       	ldi	r22, 0x02	; 2
    4d62:	82 e0       	ldi	r24, 0x02	; 2
    4d64:	0e 94 83 06 	call	0xd06	; 0xd06 <read_sensor(char, char, char)>
    4d68:	af 92       	push	r10
    4d6a:	bf 92       	push	r11
    4d6c:	0f 93       	push	r16
    4d6e:	1f 93       	push	r17
    4d70:	9f 93       	push	r25
    4d72:	8f 93       	push	r24
    4d74:	81 ef       	ldi	r24, 0xF1	; 241
    4d76:	95 e0       	ldi	r25, 0x05	; 5
    4d78:	9f 93       	push	r25
    4d7a:	8f 93       	push	r24
    4d7c:	df 93       	push	r29
    4d7e:	cf 93       	push	r28
    4d80:	0e 94 19 09 	call	0x1232	; 0x1232 <Print::printf(char const*, ...) [clone .constprop.28]>
C:\Users\Ryan\Documents\GitHub\sport_main_code_2023/sport_menu.h:841

      lcd.setCursor(0, 1);
    4d84:	61 e0       	ldi	r22, 0x01	; 1
    4d86:	80 e0       	ldi	r24, 0x00	; 0
    4d88:	0e 94 67 06 	call	0xcce	; 0xcce <LiquidCrystal::setCursor(unsigned char, unsigned char) [clone .constprop.27]>
C:\Users\Ryan\Documents\GitHub\sport_main_code_2023/sport_menu.h:842
      lcd.printf("   %d%d%d    %d%d%d   ", SL3, SL2, SL1, SR1, SR2, SR3);
    4d8c:	40 e0       	ldi	r20, 0x00	; 0
    4d8e:	61 e0       	ldi	r22, 0x01	; 1
    4d90:	83 e0       	ldi	r24, 0x03	; 3
    4d92:	0e 94 83 06 	call	0xd06	; 0xd06 <read_sensor(char, char, char)>
    4d96:	58 2e       	mov	r5, r24
    4d98:	49 2e       	mov	r4, r25
    4d9a:	40 e0       	ldi	r20, 0x00	; 0
    4d9c:	61 e0       	ldi	r22, 0x01	; 1
    4d9e:	82 e0       	ldi	r24, 0x02	; 2
    4da0:	0e 94 83 06 	call	0xd06	; 0xd06 <read_sensor(char, char, char)>
    4da4:	78 2e       	mov	r7, r24
    4da6:	69 2e       	mov	r6, r25
    4da8:	40 e0       	ldi	r20, 0x00	; 0
    4daa:	61 e0       	ldi	r22, 0x01	; 1
    4dac:	81 e0       	ldi	r24, 0x01	; 1
    4dae:	0e 94 83 06 	call	0xd06	; 0xd06 <read_sensor(char, char, char)>
    4db2:	98 2e       	mov	r9, r24
    4db4:	89 2e       	mov	r8, r25
    4db6:	40 e0       	ldi	r20, 0x00	; 0
    4db8:	60 e0       	ldi	r22, 0x00	; 0
    4dba:	81 e0       	ldi	r24, 0x01	; 1
    4dbc:	0e 94 83 06 	call	0xd06	; 0xd06 <read_sensor(char, char, char)>
    4dc0:	b8 2e       	mov	r11, r24
    4dc2:	a9 2e       	mov	r10, r25
    4dc4:	40 e0       	ldi	r20, 0x00	; 0
    4dc6:	60 e0       	ldi	r22, 0x00	; 0
    4dc8:	82 e0       	ldi	r24, 0x02	; 2
    4dca:	0e 94 83 06 	call	0xd06	; 0xd06 <read_sensor(char, char, char)>
    4dce:	18 2f       	mov	r17, r24
    4dd0:	09 2f       	mov	r16, r25
    4dd2:	40 e0       	ldi	r20, 0x00	; 0
    4dd4:	60 e0       	ldi	r22, 0x00	; 0
    4dd6:	83 e0       	ldi	r24, 0x03	; 3
    4dd8:	0e 94 83 06 	call	0xd06	; 0xd06 <read_sensor(char, char, char)>
    4ddc:	4f 92       	push	r4
    4dde:	5f 92       	push	r5
    4de0:	6f 92       	push	r6
    4de2:	7f 92       	push	r7
    4de4:	8f 92       	push	r8
    4de6:	9f 92       	push	r9
    4de8:	af 92       	push	r10
    4dea:	bf 92       	push	r11
    4dec:	0f 93       	push	r16
    4dee:	1f 93       	push	r17
    4df0:	9f 93       	push	r25
    4df2:	8f 93       	push	r24
    4df4:	85 e0       	ldi	r24, 0x05	; 5
    4df6:	96 e0       	ldi	r25, 0x06	; 6
    4df8:	9f 93       	push	r25
    4dfa:	8f 93       	push	r24
    4dfc:	df 93       	push	r29
    4dfe:	cf 93       	push	r28
    4e00:	0e 94 19 09 	call	0x1232	; 0x1232 <Print::printf(char const*, ...) [clone .constprop.28]>
C:\Users\Ryan\Documents\GitHub\sport_main_code_2023/sport_menu.h:844

      lcd.setCursor(0, 2);
    4e04:	62 e0       	ldi	r22, 0x02	; 2
    4e06:	80 e0       	ldi	r24, 0x00	; 0
    4e08:	0e 94 67 06 	call	0xcce	; 0xcce <LiquidCrystal::setCursor(unsigned char, unsigned char) [clone .constprop.27]>
C:\Users\Ryan\Documents\GitHub\sport_main_code_2023/sport_menu.h:845
      lcd.printf("%d%d%d  ENC=%3d %d%d%d", SL6, SL5, SL4, cnt / 100, SR4, SR5, SR6);
    4e0c:	40 e0       	ldi	r20, 0x00	; 0
    4e0e:	61 e0       	ldi	r22, 0x01	; 1
    4e10:	86 e0       	ldi	r24, 0x06	; 6
    4e12:	0e 94 83 06 	call	0xd06	; 0xd06 <read_sensor(char, char, char)>
    4e16:	38 2e       	mov	r3, r24
    4e18:	29 2e       	mov	r2, r25
    4e1a:	40 e0       	ldi	r20, 0x00	; 0
    4e1c:	61 e0       	ldi	r22, 0x01	; 1
    4e1e:	85 e0       	ldi	r24, 0x05	; 5
    4e20:	0e 94 83 06 	call	0xd06	; 0xd06 <read_sensor(char, char, char)>
    4e24:	58 2e       	mov	r5, r24
    4e26:	49 2e       	mov	r4, r25
    4e28:	40 e0       	ldi	r20, 0x00	; 0
    4e2a:	61 e0       	ldi	r22, 0x01	; 1
    4e2c:	84 e0       	ldi	r24, 0x04	; 4
    4e2e:	0e 94 83 06 	call	0xd06	; 0xd06 <read_sensor(char, char, char)>
    4e32:	78 2e       	mov	r7, r24
    4e34:	69 2e       	mov	r6, r25
    4e36:	ac b4       	in	r10, 0x2c	; 44
    4e38:	bd b4       	in	r11, 0x2d	; 45
    4e3a:	40 e0       	ldi	r20, 0x00	; 0
    4e3c:	60 e0       	ldi	r22, 0x00	; 0
    4e3e:	84 e0       	ldi	r24, 0x04	; 4
    4e40:	0e 94 83 06 	call	0xd06	; 0xd06 <read_sensor(char, char, char)>
    4e44:	98 2e       	mov	r9, r24
    4e46:	89 2e       	mov	r8, r25
    4e48:	40 e0       	ldi	r20, 0x00	; 0
    4e4a:	60 e0       	ldi	r22, 0x00	; 0
    4e4c:	85 e0       	ldi	r24, 0x05	; 5
    4e4e:	0e 94 83 06 	call	0xd06	; 0xd06 <read_sensor(char, char, char)>
    4e52:	18 2f       	mov	r17, r24
    4e54:	09 2f       	mov	r16, r25
    4e56:	40 e0       	ldi	r20, 0x00	; 0
    4e58:	60 e0       	ldi	r22, 0x00	; 0
    4e5a:	86 e0       	ldi	r24, 0x06	; 6
    4e5c:	0e 94 83 06 	call	0xd06	; 0xd06 <read_sensor(char, char, char)>
    4e60:	9c 01       	movw	r18, r24
    4e62:	2f 92       	push	r2
    4e64:	3f 92       	push	r3
    4e66:	4f 92       	push	r4
    4e68:	5f 92       	push	r5
    4e6a:	6f 92       	push	r6
    4e6c:	7f 92       	push	r7
    4e6e:	c5 01       	movw	r24, r10
    4e70:	64 e6       	ldi	r22, 0x64	; 100
    4e72:	70 e0       	ldi	r23, 0x00	; 0
    4e74:	0e 94 bc 35 	call	0x6b78	; 0x6b78 <__udivmodhi4>
    4e78:	7f 93       	push	r23
    4e7a:	6f 93       	push	r22
    4e7c:	8f 92       	push	r8
    4e7e:	9f 92       	push	r9
    4e80:	0f 93       	push	r16
    4e82:	1f 93       	push	r17
    4e84:	3f 93       	push	r19
    4e86:	2f 93       	push	r18
    4e88:	8c e1       	ldi	r24, 0x1C	; 28
    4e8a:	96 e0       	ldi	r25, 0x06	; 6
    4e8c:	9f 93       	push	r25
    4e8e:	8f 93       	push	r24
    4e90:	df 93       	push	r29
    4e92:	cf 93       	push	r28
    4e94:	0e 94 19 09 	call	0x1232	; 0x1232 <Print::printf(char const*, ...) [clone .constprop.28]>
C:\Users\Ryan\Documents\GitHub\sport_main_code_2023/sport_menu.h:847

      lcd.setCursor(0, 3);
    4e98:	8d b7       	in	r24, 0x3d	; 61
    4e9a:	9e b7       	in	r25, 0x3e	; 62
    4e9c:	8c 96       	adiw	r24, 0x2c	; 44
    4e9e:	0f b6       	in	r0, 0x3f	; 63
    4ea0:	f8 94       	cli
    4ea2:	9e bf       	out	0x3e, r25	; 62
    4ea4:	0f be       	out	0x3f, r0	; 63
    4ea6:	8d bf       	out	0x3d, r24	; 61
    4ea8:	63 e0       	ldi	r22, 0x03	; 3
    4eaa:	80 e0       	ldi	r24, 0x00	; 0
    4eac:	0e 94 67 06 	call	0xcce	; 0xcce <LiquidCrystal::setCursor(unsigned char, unsigned char) [clone .constprop.27]>
C:\Users\Ryan\Documents\GitHub\sport_main_code_2023/sport_menu.h:848
      lcd.printf("%d%d%d", SL9, SL8, SL7);
    4eb0:	40 e0       	ldi	r20, 0x00	; 0
    4eb2:	60 e0       	ldi	r22, 0x00	; 0
    4eb4:	87 e0       	ldi	r24, 0x07	; 7
    4eb6:	0e 94 83 06 	call	0xd06	; 0xd06 <read_sensor(char, char, char)>
    4eba:	b8 2e       	mov	r11, r24
    4ebc:	a9 2e       	mov	r10, r25
    4ebe:	40 e0       	ldi	r20, 0x00	; 0
    4ec0:	62 e0       	ldi	r22, 0x02	; 2
    4ec2:	80 e0       	ldi	r24, 0x00	; 0
    4ec4:	0e 94 83 06 	call	0xd06	; 0xd06 <read_sensor(char, char, char)>
    4ec8:	18 2f       	mov	r17, r24
    4eca:	09 2f       	mov	r16, r25
    4ecc:	40 e0       	ldi	r20, 0x00	; 0
    4ece:	62 e0       	ldi	r22, 0x02	; 2
    4ed0:	81 e0       	ldi	r24, 0x01	; 1
    4ed2:	0e 94 83 06 	call	0xd06	; 0xd06 <read_sensor(char, char, char)>
    4ed6:	af 92       	push	r10
    4ed8:	bf 92       	push	r11
    4eda:	0f 93       	push	r16
    4edc:	1f 93       	push	r17
    4ede:	9f 93       	push	r25
    4ee0:	8f 93       	push	r24
    4ee2:	0c e2       	ldi	r16, 0x2C	; 44
    4ee4:	16 e0       	ldi	r17, 0x06	; 6
    4ee6:	1f 93       	push	r17
    4ee8:	0f 93       	push	r16
    4eea:	df 93       	push	r29
    4eec:	cf 93       	push	r28
    4eee:	0e 94 19 09 	call	0x1232	; 0x1232 <Print::printf(char const*, ...) [clone .constprop.28]>
C:\Users\Ryan\Documents\GitHub\sport_main_code_2023/sport_menu.h:850

      lcd.setCursor(13, 3);
    4ef2:	63 e0       	ldi	r22, 0x03	; 3
    4ef4:	8d e0       	ldi	r24, 0x0D	; 13
    4ef6:	0e 94 67 06 	call	0xcce	; 0xcce <LiquidCrystal::setCursor(unsigned char, unsigned char) [clone .constprop.27]>
C:\Users\Ryan\Documents\GitHub\sport_main_code_2023/sport_menu.h:851
      lcd.printf("%d%d%d", SR7, SR8, SR9);
    4efa:	40 e0       	ldi	r20, 0x00	; 0
    4efc:	63 e0       	ldi	r22, 0x03	; 3
    4efe:	81 e0       	ldi	r24, 0x01	; 1
    4f00:	0e 94 83 06 	call	0xd06	; 0xd06 <read_sensor(char, char, char)>
    4f04:	98 2e       	mov	r9, r24
    4f06:	89 2e       	mov	r8, r25
    4f08:	40 e0       	ldi	r20, 0x00	; 0
    4f0a:	63 e0       	ldi	r22, 0x03	; 3
    4f0c:	80 e0       	ldi	r24, 0x00	; 0
    4f0e:	0e 94 83 06 	call	0xd06	; 0xd06 <read_sensor(char, char, char)>
    4f12:	b8 2e       	mov	r11, r24
    4f14:	a9 2e       	mov	r10, r25
    4f16:	40 e0       	ldi	r20, 0x00	; 0
    4f18:	61 e0       	ldi	r22, 0x01	; 1
    4f1a:	87 e0       	ldi	r24, 0x07	; 7
    4f1c:	0e 94 83 06 	call	0xd06	; 0xd06 <read_sensor(char, char, char)>
    4f20:	8f 92       	push	r8
    4f22:	9f 92       	push	r9
    4f24:	af 92       	push	r10
    4f26:	bf 92       	push	r11
    4f28:	9f 93       	push	r25
    4f2a:	8f 93       	push	r24
    4f2c:	1f 93       	push	r17
    4f2e:	0f 93       	push	r16
    4f30:	df 93       	push	r29
    4f32:	cf 93       	push	r28
    4f34:	0e 94 19 09 	call	0x1232	; 0x1232 <Print::printf(char const*, ...) [clone .constprop.28]>
C:\Users\Ryan\Documents\GitHub\sport_main_code_2023/sport_menu.h:853

      lcd.setCursor(4, 3);
    4f38:	63 e0       	ldi	r22, 0x03	; 3
    4f3a:	84 e0       	ldi	r24, 0x04	; 4
    4f3c:	0e 94 67 06 	call	0xcce	; 0xcce <LiquidCrystal::setCursor(unsigned char, unsigned char) [clone .constprop.27]>
C:\Users\Ryan\Documents\GitHub\sport_main_code_2023/sport_menu.h:854
      if (color_L == RED)
    4f40:	81 e0       	ldi	r24, 0x01	; 1
    4f42:	0e 94 32 0a 	call	0x1464	; 0x1464 <color(char)>
    4f46:	ed b7       	in	r30, 0x3d	; 61
    4f48:	fe b7       	in	r31, 0x3e	; 62
    4f4a:	74 96       	adiw	r30, 0x14	; 20
    4f4c:	0f b6       	in	r0, 0x3f	; 63
    4f4e:	f8 94       	cli
    4f50:	fe bf       	out	0x3e, r31	; 62
    4f52:	0f be       	out	0x3f, r0	; 63
    4f54:	ed bf       	out	0x3d, r30	; 61
    4f56:	81 11       	cpse	r24, r1
    4f58:	2f c0       	rjmp	.+94     	; 0x4fb8 <main+0xbf0>
C:\Users\Ryan\Documents\GitHub\sport_main_code_2023/sport_menu.h:855
        lcd.print("RED ");
    4f5a:	84 e8       	ldi	r24, 0x84	; 132
    4f5c:	94 e0       	ldi	r25, 0x04	; 4
C:\Users\Ryan\Documents\GitHub\sport_main_code_2023/sport_menu.h:865
      else if (color_L == YELLOW)
        lcd.print("YEL ");
      else if (color_L == SILVER)
        lcd.print("SIL ");
      else
        lcd.print("WHT ");
    4f5e:	0e 94 ff 09 	call	0x13fe	; 0x13fe <Print::print(char const*) [clone .constprop.9]>
C:\Users\Ryan\Documents\GitHub\sport_main_code_2023/sport_menu.h:867

      lcd.setCursor(9, 3);
    4f62:	63 e0       	ldi	r22, 0x03	; 3
    4f64:	89 e0       	ldi	r24, 0x09	; 9
    4f66:	0e 94 67 06 	call	0xcce	; 0xcce <LiquidCrystal::setCursor(unsigned char, unsigned char) [clone .constprop.27]>
C:\Users\Ryan\Documents\GitHub\sport_main_code_2023/sport_menu.h:868
      if (color_R == RED)
    4f6a:	82 e0       	ldi	r24, 0x02	; 2
    4f6c:	0e 94 32 0a 	call	0x1464	; 0x1464 <color(char)>
    4f70:	81 11       	cpse	r24, r1
    4f72:	45 c0       	rjmp	.+138    	; 0x4ffe <main+0xc36>
C:\Users\Ryan\Documents\GitHub\sport_main_code_2023/sport_menu.h:869
        lcd.print("RED");
    4f74:	88 e3       	ldi	r24, 0x38	; 56
    4f76:	96 e0       	ldi	r25, 0x06	; 6
C:\Users\Ryan\Documents\GitHub\sport_main_code_2023/sport_menu.h:879
      else if (color_R == YELLOW)
        lcd.print("YEL");
      else if (VSR6 < 0.9)
        lcd.print("SIL");
      else
        lcd.print("WHT");
    4f78:	0e 94 ff 09 	call	0x13fe	; 0x13fe <Print::print(char const*) [clone .constprop.9]>
C:\Users\Ryan\Documents\GitHub\sport_main_code_2023/sport_menu.h:881

      if (start == 0) {
    4f7c:	86 e0       	ldi	r24, 0x06	; 6
    4f7e:	0e 94 e3 01 	call	0x3c6	; 0x3c6 <digitalRead>
    4f82:	89 2b       	or	r24, r25
    4f84:	09 f0       	breq	.+2      	; 0x4f88 <main+0xbc0>
    4f86:	94 ce       	rjmp	.-728    	; 0x4cb0 <main+0x8e8>
C:\Users\Ryan\Documents\GitHub\sport_main_code_2023/sport_menu.h:882
        TCNT1 = 0;
    4f88:	1d bc       	out	0x2d, r1	; 45
    4f8a:	1c bc       	out	0x2c, r1	; 44
C:\Users\Ryan\Documents\GitHub\sport_main_code_2023/sport_menu.h:883
        cnt = 0;
    4f8c:	1d bc       	out	0x2d, r1	; 45
    4f8e:	1c bc       	out	0x2c, r1	; 44
    4f90:	8f ce       	rjmp	.-738    	; 0x4cb0 <main+0x8e8>
C:\Users\Ryan\Documents\GitHub\sport_main_code_2023/sport_menu.h:816
      while (next_page == 0)
        ;
      delay(50);
      page++;
      if (page > last_page)
        page = 1;
    4f92:	81 e0       	ldi	r24, 0x01	; 1
    4f94:	a3 ce       	rjmp	.-698    	; 0x4cdc <main+0x914>
C:\Users\Ryan\Documents\GitHub\sport_main_code_2023/sport_menu.h:825
      while (previuse_page == 0)
        ;
      delay(50);
      page--;
      if (page < 1)
        page = last_page;
    4f96:	86 e0       	ldi	r24, 0x06	; 6
    4f98:	bb ce       	rjmp	.-650    	; 0x4d10 <main+0x948>
C:\Users\Ryan\Documents\GitHub\sport_main_code_2023/sport_menu.h:830
      lcd.clear();
    }
    if (increase == 0)
      go(40, 40);
    else if (decrease == 0)
    4f9a:	8b e0       	ldi	r24, 0x0B	; 11
    4f9c:	0e 94 e3 01 	call	0x3c6	; 0x3c6 <digitalRead>
    4fa0:	89 2b       	or	r24, r25
    4fa2:	29 f4       	brne	.+10     	; 0x4fae <main+0xbe6>
C:\Users\Ryan\Documents\GitHub\sport_main_code_2023/sport_menu.h:831
      go(-40, -40);
    4fa4:	68 ed       	ldi	r22, 0xD8	; 216
    4fa6:	7f ef       	ldi	r23, 0xFF	; 255
    4fa8:	88 ed       	ldi	r24, 0xD8	; 216
    4faa:	9f ef       	ldi	r25, 0xFF	; 255
    4fac:	bf ce       	rjmp	.-642    	; 0x4d2c <main+0x964>
C:\Users\Ryan\Documents\GitHub\sport_main_code_2023/sport_menu.h:833
    else
      go(0, 0);
    4fae:	70 e0       	ldi	r23, 0x00	; 0
    4fb0:	60 e0       	ldi	r22, 0x00	; 0
    4fb2:	90 e0       	ldi	r25, 0x00	; 0
    4fb4:	80 e0       	ldi	r24, 0x00	; 0
    4fb6:	ba ce       	rjmp	.-652    	; 0x4d2c <main+0x964>
C:\Users\Ryan\Documents\GitHub\sport_main_code_2023/sport_menu.h:856
      lcd.printf("%d%d%d", SR7, SR8, SR9);

      lcd.setCursor(4, 3);
      if (color_L == RED)
        lcd.print("RED ");
      else if (color_L == GREEN)
    4fb8:	81 e0       	ldi	r24, 0x01	; 1
    4fba:	0e 94 32 0a 	call	0x1464	; 0x1464 <color(char)>
    4fbe:	81 30       	cpi	r24, 0x01	; 1
    4fc0:	19 f4       	brne	.+6      	; 0x4fc8 <main+0xc00>
C:\Users\Ryan\Documents\GitHub\sport_main_code_2023/sport_menu.h:857
        lcd.print("GRN ");
    4fc2:	8b e9       	ldi	r24, 0x9B	; 155
    4fc4:	94 e0       	ldi	r25, 0x04	; 4
    4fc6:	cb cf       	rjmp	.-106    	; 0x4f5e <main+0xb96>
C:\Users\Ryan\Documents\GitHub\sport_main_code_2023/sport_menu.h:858
      else if (color_L == BLUE)
    4fc8:	81 e0       	ldi	r24, 0x01	; 1
    4fca:	0e 94 32 0a 	call	0x1464	; 0x1464 <color(char)>
    4fce:	82 30       	cpi	r24, 0x02	; 2
    4fd0:	19 f4       	brne	.+6      	; 0x4fd8 <main+0xc10>
C:\Users\Ryan\Documents\GitHub\sport_main_code_2023/sport_menu.h:859
        lcd.print("BLU ");
    4fd2:	8f e7       	ldi	r24, 0x7F	; 127
    4fd4:	94 e0       	ldi	r25, 0x04	; 4
    4fd6:	c3 cf       	rjmp	.-122    	; 0x4f5e <main+0xb96>
C:\Users\Ryan\Documents\GitHub\sport_main_code_2023/sport_menu.h:860
      else if (color_L == YELLOW)
    4fd8:	81 e0       	ldi	r24, 0x01	; 1
    4fda:	0e 94 32 0a 	call	0x1464	; 0x1464 <color(char)>
    4fde:	84 30       	cpi	r24, 0x04	; 4
    4fe0:	19 f4       	brne	.+6      	; 0x4fe8 <main+0xc20>
C:\Users\Ryan\Documents\GitHub\sport_main_code_2023/sport_menu.h:861
        lcd.print("YEL ");
    4fe2:	83 e3       	ldi	r24, 0x33	; 51
    4fe4:	96 e0       	ldi	r25, 0x06	; 6
    4fe6:	bb cf       	rjmp	.-138    	; 0x4f5e <main+0xb96>
C:\Users\Ryan\Documents\GitHub\sport_main_code_2023/sport_menu.h:862
      else if (color_L == SILVER)
    4fe8:	81 e0       	ldi	r24, 0x01	; 1
    4fea:	0e 94 32 0a 	call	0x1464	; 0x1464 <color(char)>
    4fee:	85 30       	cpi	r24, 0x05	; 5
    4ff0:	19 f4       	brne	.+6      	; 0x4ff8 <main+0xc30>
C:\Users\Ryan\Documents\GitHub\sport_main_code_2023/sport_menu.h:863
        lcd.print("SIL ");
    4ff2:	83 eb       	ldi	r24, 0xB3	; 179
    4ff4:	94 e0       	ldi	r25, 0x04	; 4
    4ff6:	b3 cf       	rjmp	.-154    	; 0x4f5e <main+0xb96>
C:\Users\Ryan\Documents\GitHub\sport_main_code_2023/sport_menu.h:865
      else
        lcd.print("WHT ");
    4ff8:	88 eb       	ldi	r24, 0xB8	; 184
    4ffa:	94 e0       	ldi	r25, 0x04	; 4
    4ffc:	b0 cf       	rjmp	.-160    	; 0x4f5e <main+0xb96>
C:\Users\Ryan\Documents\GitHub\sport_main_code_2023/sport_menu.h:870

      lcd.setCursor(9, 3);
      if (color_R == RED)
        lcd.print("RED");
      else if (color_R == GREEN)
    4ffe:	82 e0       	ldi	r24, 0x02	; 2
    5000:	0e 94 32 0a 	call	0x1464	; 0x1464 <color(char)>
    5004:	81 30       	cpi	r24, 0x01	; 1
    5006:	19 f4       	brne	.+6      	; 0x500e <main+0xc46>
C:\Users\Ryan\Documents\GitHub\sport_main_code_2023/sport_menu.h:871
        lcd.print("GRN");
    5008:	8c e3       	ldi	r24, 0x3C	; 60
    500a:	96 e0       	ldi	r25, 0x06	; 6
    500c:	b5 cf       	rjmp	.-150    	; 0x4f78 <main+0xbb0>
C:\Users\Ryan\Documents\GitHub\sport_main_code_2023/sport_menu.h:872
      else if (color_R == BLUE)
    500e:	82 e0       	ldi	r24, 0x02	; 2
    5010:	0e 94 32 0a 	call	0x1464	; 0x1464 <color(char)>
    5014:	82 30       	cpi	r24, 0x02	; 2
    5016:	19 f4       	brne	.+6      	; 0x501e <main+0xc56>
C:\Users\Ryan\Documents\GitHub\sport_main_code_2023/sport_menu.h:873
        lcd.print("BLU");
    5018:	80 e4       	ldi	r24, 0x40	; 64
    501a:	96 e0       	ldi	r25, 0x06	; 6
    501c:	ad cf       	rjmp	.-166    	; 0x4f78 <main+0xbb0>
C:\Users\Ryan\Documents\GitHub\sport_main_code_2023/sport_menu.h:874
      else if (color_R == YELLOW)
    501e:	82 e0       	ldi	r24, 0x02	; 2
    5020:	0e 94 32 0a 	call	0x1464	; 0x1464 <color(char)>
    5024:	84 30       	cpi	r24, 0x04	; 4
    5026:	19 f4       	brne	.+6      	; 0x502e <main+0xc66>
C:\Users\Ryan\Documents\GitHub\sport_main_code_2023/sport_menu.h:875
        lcd.print("YEL");
    5028:	84 e4       	ldi	r24, 0x44	; 68
    502a:	96 e0       	ldi	r25, 0x06	; 6
    502c:	a5 cf       	rjmp	.-182    	; 0x4f78 <main+0xbb0>
C:\Users\Ryan\Documents\GitHub\sport_main_code_2023/sport_menu.h:876
      else if (VSR6 < 0.9)
    502e:	41 e0       	ldi	r20, 0x01	; 1
    5030:	61 e0       	ldi	r22, 0x01	; 1
    5032:	86 e0       	ldi	r24, 0x06	; 6
    5034:	0e 94 83 06 	call	0xd06	; 0xd06 <read_sensor(char, char, char)>
    5038:	bc 01       	movw	r22, r24
    503a:	99 0f       	add	r25, r25
    503c:	88 0b       	sbc	r24, r24
    503e:	99 0b       	sbc	r25, r25
    5040:	0e 94 9f 34 	call	0x693e	; 0x693e <__floatsisf>
    5044:	26 e6       	ldi	r18, 0x66	; 102
    5046:	36 e6       	ldi	r19, 0x66	; 102
    5048:	46 e6       	ldi	r20, 0x66	; 102
    504a:	5f e3       	ldi	r21, 0x3F	; 63
    504c:	0e 94 f0 33 	call	0x67e0	; 0x67e0 <__cmpsf2>
    5050:	87 ff       	sbrs	r24, 7
    5052:	03 c0       	rjmp	.+6      	; 0x505a <main+0xc92>
C:\Users\Ryan\Documents\GitHub\sport_main_code_2023/sport_menu.h:877
        lcd.print("SIL");
    5054:	88 e4       	ldi	r24, 0x48	; 72
    5056:	96 e0       	ldi	r25, 0x06	; 6
    5058:	8f cf       	rjmp	.-226    	; 0x4f78 <main+0xbb0>
C:\Users\Ryan\Documents\GitHub\sport_main_code_2023/sport_menu.h:879
      else
        lcd.print("WHT");
    505a:	8c e4       	ldi	r24, 0x4C	; 76
    505c:	96 e0       	ldi	r25, 0x06	; 6
    505e:	8c cf       	rjmp	.-232    	; 0x4f78 <main+0xbb0>
C:\Users\Ryan\Documents\GitHub\sport_main_code_2023/sport_menu.h:886
      if (start == 0) {
        TCNT1 = 0;
        cnt = 0;
        //puls_cnt = 0;
      }
    } else if (page == 2)  // V left
    5060:	82 30       	cpi	r24, 0x02	; 2
    5062:	09 f0       	breq	.+2      	; 0x5066 <main+0xc9e>
    5064:	92 c0       	rjmp	.+292    	; 0x518a <main+0xdc2>
C:\Users\Ryan\Documents\GitHub\sport_main_code_2023/sport_menu.h:888
    {
      lcd.setCursor(0, 0);
    5066:	60 e0       	ldi	r22, 0x00	; 0
    5068:	80 e0       	ldi	r24, 0x00	; 0
    506a:	0e 94 67 06 	call	0xcce	; 0xcce <LiquidCrystal::setCursor(unsigned char, unsigned char) [clone .constprop.27]>
C:\Users\Ryan\Documents\GitHub\sport_main_code_2023/sport_menu.h:889
      lcd.printf("L10=%02d        %02d", VSL10, VSM);
    506e:	41 e0       	ldi	r20, 0x01	; 1
    5070:	60 e0       	ldi	r22, 0x00	; 0
    5072:	80 e0       	ldi	r24, 0x00	; 0
    5074:	0e 94 83 06 	call	0xd06	; 0xd06 <read_sensor(char, char, char)>
    5078:	18 2f       	mov	r17, r24
    507a:	09 2f       	mov	r16, r25
    507c:	41 e0       	ldi	r20, 0x01	; 1
    507e:	62 e0       	ldi	r22, 0x02	; 2
    5080:	82 e0       	ldi	r24, 0x02	; 2
    5082:	0e 94 83 06 	call	0xd06	; 0xd06 <read_sensor(char, char, char)>
    5086:	0f 93       	push	r16
    5088:	1f 93       	push	r17
    508a:	9f 93       	push	r25
    508c:	8f 93       	push	r24
    508e:	80 e5       	ldi	r24, 0x50	; 80
    5090:	96 e0       	ldi	r25, 0x06	; 6
    5092:	9f 93       	push	r25
    5094:	8f 93       	push	r24
    5096:	df 93       	push	r29
    5098:	cf 93       	push	r28
    509a:	0e 94 19 09 	call	0x1232	; 0x1232 <Print::printf(char const*, ...) [clone .constprop.28]>
C:\Users\Ryan\Documents\GitHub\sport_main_code_2023/sport_menu.h:891

      lcd.setCursor(5, 1);
    509e:	61 e0       	ldi	r22, 0x01	; 1
    50a0:	85 e0       	ldi	r24, 0x05	; 5
    50a2:	0e 94 67 06 	call	0xcce	; 0xcce <LiquidCrystal::setCursor(unsigned char, unsigned char) [clone .constprop.27]>
C:\Users\Ryan\Documents\GitHub\sport_main_code_2023/sport_menu.h:892
      lcd.printf("%02d  %02d  %02d", VSL3, VSL2, VSL1);
    50a6:	41 e0       	ldi	r20, 0x01	; 1
    50a8:	60 e0       	ldi	r22, 0x00	; 0
    50aa:	81 e0       	ldi	r24, 0x01	; 1
    50ac:	0e 94 83 06 	call	0xd06	; 0xd06 <read_sensor(char, char, char)>
    50b0:	b8 2e       	mov	r11, r24
    50b2:	a9 2e       	mov	r10, r25
    50b4:	41 e0       	ldi	r20, 0x01	; 1
    50b6:	60 e0       	ldi	r22, 0x00	; 0
    50b8:	82 e0       	ldi	r24, 0x02	; 2
    50ba:	0e 94 83 06 	call	0xd06	; 0xd06 <read_sensor(char, char, char)>
    50be:	18 2f       	mov	r17, r24
    50c0:	09 2f       	mov	r16, r25
    50c2:	41 e0       	ldi	r20, 0x01	; 1
    50c4:	60 e0       	ldi	r22, 0x00	; 0
    50c6:	83 e0       	ldi	r24, 0x03	; 3
    50c8:	0e 94 83 06 	call	0xd06	; 0xd06 <read_sensor(char, char, char)>
    50cc:	af 92       	push	r10
    50ce:	bf 92       	push	r11
    50d0:	0f 93       	push	r16
    50d2:	1f 93       	push	r17
    50d4:	9f 93       	push	r25
    50d6:	8f 93       	push	r24
    50d8:	85 e6       	ldi	r24, 0x65	; 101
    50da:	96 e0       	ldi	r25, 0x06	; 6
    50dc:	9f 93       	push	r25
    50de:	8f 93       	push	r24
    50e0:	df 93       	push	r29
    50e2:	cf 93       	push	r28
    50e4:	0e 94 19 09 	call	0x1232	; 0x1232 <Print::printf(char const*, ...) [clone .constprop.28]>
C:\Users\Ryan\Documents\GitHub\sport_main_code_2023/sport_menu.h:894

      lcd.setCursor(2, 2);
    50e8:	62 e0       	ldi	r22, 0x02	; 2
    50ea:	82 e0       	ldi	r24, 0x02	; 2
    50ec:	0e 94 67 06 	call	0xcce	; 0xcce <LiquidCrystal::setCursor(unsigned char, unsigned char) [clone .constprop.27]>
C:\Users\Ryan\Documents\GitHub\sport_main_code_2023/sport_menu.h:895
      lcd.printf("%02d  %02d  %02d ", VSL6, VSL5, VSL4);
    50f0:	41 e0       	ldi	r20, 0x01	; 1
    50f2:	60 e0       	ldi	r22, 0x00	; 0
    50f4:	84 e0       	ldi	r24, 0x04	; 4
    50f6:	0e 94 83 06 	call	0xd06	; 0xd06 <read_sensor(char, char, char)>
    50fa:	b8 2e       	mov	r11, r24
    50fc:	a9 2e       	mov	r10, r25
    50fe:	41 e0       	ldi	r20, 0x01	; 1
    5100:	60 e0       	ldi	r22, 0x00	; 0
    5102:	85 e0       	ldi	r24, 0x05	; 5
    5104:	0e 94 83 06 	call	0xd06	; 0xd06 <read_sensor(char, char, char)>
    5108:	18 2f       	mov	r17, r24
    510a:	09 2f       	mov	r16, r25
    510c:	41 e0       	ldi	r20, 0x01	; 1
    510e:	60 e0       	ldi	r22, 0x00	; 0
    5110:	86 e0       	ldi	r24, 0x06	; 6
    5112:	0e 94 83 06 	call	0xd06	; 0xd06 <read_sensor(char, char, char)>
    5116:	af 92       	push	r10
    5118:	bf 92       	push	r11
    511a:	0f 93       	push	r16
    511c:	1f 93       	push	r17
    511e:	9f 93       	push	r25
    5120:	8f 93       	push	r24
    5122:	06 e7       	ldi	r16, 0x76	; 118
    5124:	16 e0       	ldi	r17, 0x06	; 6
    5126:	1f 93       	push	r17
    5128:	0f 93       	push	r16
    512a:	df 93       	push	r29
    512c:	cf 93       	push	r28
    512e:	0e 94 19 09 	call	0x1232	; 0x1232 <Print::printf(char const*, ...) [clone .constprop.28]>
C:\Users\Ryan\Documents\GitHub\sport_main_code_2023/sport_menu.h:897

      lcd.setCursor(0, 3);
    5132:	63 e0       	ldi	r22, 0x03	; 3
    5134:	80 e0       	ldi	r24, 0x00	; 0
    5136:	0e 94 67 06 	call	0xcce	; 0xcce <LiquidCrystal::setCursor(unsigned char, unsigned char) [clone .constprop.27]>
C:\Users\Ryan\Documents\GitHub\sport_main_code_2023/sport_menu.h:898
      lcd.printf("%02d  %02d  %02d ", VSL9, VSL8, VSL7);
    513a:	41 e0       	ldi	r20, 0x01	; 1
    513c:	60 e0       	ldi	r22, 0x00	; 0
    513e:	87 e0       	ldi	r24, 0x07	; 7
    5140:	0e 94 83 06 	call	0xd06	; 0xd06 <read_sensor(char, char, char)>
    5144:	98 2e       	mov	r9, r24
    5146:	89 2e       	mov	r8, r25
    5148:	41 e0       	ldi	r20, 0x01	; 1
    514a:	62 e0       	ldi	r22, 0x02	; 2
    514c:	80 e0       	ldi	r24, 0x00	; 0
    514e:	0e 94 83 06 	call	0xd06	; 0xd06 <read_sensor(char, char, char)>
    5152:	b8 2e       	mov	r11, r24
    5154:	a9 2e       	mov	r10, r25
    5156:	41 e0       	ldi	r20, 0x01	; 1
    5158:	62 e0       	ldi	r22, 0x02	; 2
    515a:	81 e0       	ldi	r24, 0x01	; 1
    515c:	0e 94 83 06 	call	0xd06	; 0xd06 <read_sensor(char, char, char)>
    5160:	8f 92       	push	r8
    5162:	9f 92       	push	r9
    5164:	af 92       	push	r10
    5166:	bf 92       	push	r11
    5168:	9f 93       	push	r25
    516a:	8f 93       	push	r24
    516c:	1f 93       	push	r17
    516e:	0f 93       	push	r16
    5170:	df 93       	push	r29
    5172:	cf 93       	push	r28
    5174:	0e 94 19 09 	call	0x1232	; 0x1232 <Print::printf(char const*, ...) [clone .constprop.28]>
    5178:	8d b7       	in	r24, 0x3d	; 61
    517a:	9e b7       	in	r25, 0x3e	; 62
    517c:	86 96       	adiw	r24, 0x26	; 38
    517e:	0f b6       	in	r0, 0x3f	; 63
    5180:	f8 94       	cli
    5182:	9e bf       	out	0x3e, r25	; 62
    5184:	0f be       	out	0x3f, r0	; 63
    5186:	8d bf       	out	0x3d, r24	; 61
    5188:	93 cd       	rjmp	.-1242   	; 0x4cb0 <main+0x8e8>
C:\Users\Ryan\Documents\GitHub\sport_main_code_2023/sport_menu.h:899
    } else if (page == 3)  // V right
    518a:	83 30       	cpi	r24, 0x03	; 3
    518c:	09 f0       	breq	.+2      	; 0x5190 <main+0xdc8>
    518e:	90 c0       	rjmp	.+288    	; 0x52b0 <main+0xee8>
C:\Users\Ryan\Documents\GitHub\sport_main_code_2023/sport_menu.h:901
    {
      lcd.setCursor(0, 0);
    5190:	60 e0       	ldi	r22, 0x00	; 0
    5192:	80 e0       	ldi	r24, 0x00	; 0
    5194:	0e 94 67 06 	call	0xcce	; 0xcce <LiquidCrystal::setCursor(unsigned char, unsigned char) [clone .constprop.27]>
C:\Users\Ryan\Documents\GitHub\sport_main_code_2023/sport_menu.h:902
      lcd.printf("%02d        R10=%02d", VSM, VSR10);
    5198:	41 e0       	ldi	r20, 0x01	; 1
    519a:	63 e0       	ldi	r22, 0x03	; 3
    519c:	82 e0       	ldi	r24, 0x02	; 2
    519e:	0e 94 83 06 	call	0xd06	; 0xd06 <read_sensor(char, char, char)>
    51a2:	18 2f       	mov	r17, r24
    51a4:	09 2f       	mov	r16, r25
    51a6:	41 e0       	ldi	r20, 0x01	; 1
    51a8:	60 e0       	ldi	r22, 0x00	; 0
    51aa:	80 e0       	ldi	r24, 0x00	; 0
    51ac:	0e 94 83 06 	call	0xd06	; 0xd06 <read_sensor(char, char, char)>
    51b0:	0f 93       	push	r16
    51b2:	1f 93       	push	r17
    51b4:	9f 93       	push	r25
    51b6:	8f 93       	push	r24
    51b8:	e8 e8       	ldi	r30, 0x88	; 136
    51ba:	f6 e0       	ldi	r31, 0x06	; 6
    51bc:	ff 93       	push	r31
    51be:	ef 93       	push	r30
    51c0:	df 93       	push	r29
    51c2:	cf 93       	push	r28
    51c4:	0e 94 19 09 	call	0x1232	; 0x1232 <Print::printf(char const*, ...) [clone .constprop.28]>
C:\Users\Ryan\Documents\GitHub\sport_main_code_2023/sport_menu.h:904

      lcd.setCursor(2, 1);
    51c8:	61 e0       	ldi	r22, 0x01	; 1
    51ca:	82 e0       	ldi	r24, 0x02	; 2
    51cc:	0e 94 67 06 	call	0xcce	; 0xcce <LiquidCrystal::setCursor(unsigned char, unsigned char) [clone .constprop.27]>
C:\Users\Ryan\Documents\GitHub\sport_main_code_2023/sport_menu.h:905
      lcd.printf("%02d  %02d  %02d ", VSR1, VSR2, VSR3);
    51d0:	41 e0       	ldi	r20, 0x01	; 1
    51d2:	61 e0       	ldi	r22, 0x01	; 1
    51d4:	83 e0       	ldi	r24, 0x03	; 3
    51d6:	0e 94 83 06 	call	0xd06	; 0xd06 <read_sensor(char, char, char)>
    51da:	b8 2e       	mov	r11, r24
    51dc:	a9 2e       	mov	r10, r25
    51de:	41 e0       	ldi	r20, 0x01	; 1
    51e0:	61 e0       	ldi	r22, 0x01	; 1
    51e2:	82 e0       	ldi	r24, 0x02	; 2
    51e4:	0e 94 83 06 	call	0xd06	; 0xd06 <read_sensor(char, char, char)>
    51e8:	18 2f       	mov	r17, r24
    51ea:	09 2f       	mov	r16, r25
    51ec:	41 e0       	ldi	r20, 0x01	; 1
    51ee:	61 e0       	ldi	r22, 0x01	; 1
    51f0:	81 e0       	ldi	r24, 0x01	; 1
    51f2:	0e 94 83 06 	call	0xd06	; 0xd06 <read_sensor(char, char, char)>
    51f6:	af 92       	push	r10
    51f8:	bf 92       	push	r11
    51fa:	0f 93       	push	r16
    51fc:	1f 93       	push	r17
    51fe:	9f 93       	push	r25
    5200:	8f 93       	push	r24
    5202:	06 e7       	ldi	r16, 0x76	; 118
    5204:	16 e0       	ldi	r17, 0x06	; 6
    5206:	1f 93       	push	r17
    5208:	0f 93       	push	r16
    520a:	df 93       	push	r29
    520c:	cf 93       	push	r28
    520e:	0e 94 19 09 	call	0x1232	; 0x1232 <Print::printf(char const*, ...) [clone .constprop.28]>
C:\Users\Ryan\Documents\GitHub\sport_main_code_2023/sport_menu.h:907

      lcd.setCursor(4, 2);
    5212:	62 e0       	ldi	r22, 0x02	; 2
    5214:	84 e0       	ldi	r24, 0x04	; 4
    5216:	0e 94 67 06 	call	0xcce	; 0xcce <LiquidCrystal::setCursor(unsigned char, unsigned char) [clone .constprop.27]>
C:\Users\Ryan\Documents\GitHub\sport_main_code_2023/sport_menu.h:908
      lcd.printf("%02d  %02d  %02d ", VSR4, VSR5, VSR6);
    521a:	41 e0       	ldi	r20, 0x01	; 1
    521c:	61 e0       	ldi	r22, 0x01	; 1
    521e:	86 e0       	ldi	r24, 0x06	; 6
    5220:	0e 94 83 06 	call	0xd06	; 0xd06 <read_sensor(char, char, char)>
    5224:	98 2e       	mov	r9, r24
    5226:	89 2e       	mov	r8, r25
    5228:	41 e0       	ldi	r20, 0x01	; 1
    522a:	61 e0       	ldi	r22, 0x01	; 1
    522c:	85 e0       	ldi	r24, 0x05	; 5
    522e:	0e 94 83 06 	call	0xd06	; 0xd06 <read_sensor(char, char, char)>
    5232:	b8 2e       	mov	r11, r24
    5234:	a9 2e       	mov	r10, r25
    5236:	41 e0       	ldi	r20, 0x01	; 1
    5238:	61 e0       	ldi	r22, 0x01	; 1
    523a:	84 e0       	ldi	r24, 0x04	; 4
    523c:	0e 94 83 06 	call	0xd06	; 0xd06 <read_sensor(char, char, char)>
    5240:	8f 92       	push	r8
    5242:	9f 92       	push	r9
    5244:	af 92       	push	r10
    5246:	bf 92       	push	r11
    5248:	9f 93       	push	r25
    524a:	8f 93       	push	r24
    524c:	1f 93       	push	r17
    524e:	0f 93       	push	r16
    5250:	df 93       	push	r29
    5252:	cf 93       	push	r28
    5254:	0e 94 19 09 	call	0x1232	; 0x1232 <Print::printf(char const*, ...) [clone .constprop.28]>
C:\Users\Ryan\Documents\GitHub\sport_main_code_2023/sport_menu.h:910

      lcd.setCursor(6, 3);
    5258:	63 e0       	ldi	r22, 0x03	; 3
    525a:	86 e0       	ldi	r24, 0x06	; 6
    525c:	0e 94 67 06 	call	0xcce	; 0xcce <LiquidCrystal::setCursor(unsigned char, unsigned char) [clone .constprop.27]>
C:\Users\Ryan\Documents\GitHub\sport_main_code_2023/sport_menu.h:911
      lcd.printf("%02d  %02d  %02d ", VSR7, VSR8, VSR9);
    5260:	41 e0       	ldi	r20, 0x01	; 1
    5262:	63 e0       	ldi	r22, 0x03	; 3
    5264:	81 e0       	ldi	r24, 0x01	; 1
    5266:	0e 94 83 06 	call	0xd06	; 0xd06 <read_sensor(char, char, char)>
    526a:	98 2e       	mov	r9, r24
    526c:	89 2e       	mov	r8, r25
    526e:	41 e0       	ldi	r20, 0x01	; 1
    5270:	63 e0       	ldi	r22, 0x03	; 3
    5272:	80 e0       	ldi	r24, 0x00	; 0
    5274:	0e 94 83 06 	call	0xd06	; 0xd06 <read_sensor(char, char, char)>
    5278:	b8 2e       	mov	r11, r24
    527a:	a9 2e       	mov	r10, r25
    527c:	41 e0       	ldi	r20, 0x01	; 1
    527e:	61 e0       	ldi	r22, 0x01	; 1
    5280:	87 e0       	ldi	r24, 0x07	; 7
    5282:	0e 94 83 06 	call	0xd06	; 0xd06 <read_sensor(char, char, char)>
    5286:	8f 92       	push	r8
    5288:	9f 92       	push	r9
    528a:	af 92       	push	r10
    528c:	bf 92       	push	r11
    528e:	9f 93       	push	r25
    5290:	8f 93       	push	r24
    5292:	1f 93       	push	r17
    5294:	0f 93       	push	r16
    5296:	df 93       	push	r29
    5298:	cf 93       	push	r28
    529a:	0e 94 19 09 	call	0x1232	; 0x1232 <Print::printf(char const*, ...) [clone .constprop.28]>
    529e:	ed b7       	in	r30, 0x3d	; 61
    52a0:	fe b7       	in	r31, 0x3e	; 62
    52a2:	b6 96       	adiw	r30, 0x26	; 38
    52a4:	0f b6       	in	r0, 0x3f	; 63
    52a6:	f8 94       	cli
    52a8:	fe bf       	out	0x3e, r31	; 62
    52aa:	0f be       	out	0x3f, r0	; 63
    52ac:	ed bf       	out	0x3d, r30	; 61
    52ae:	00 cd       	rjmp	.-1536   	; 0x4cb0 <main+0x8e8>
C:\Users\Ryan\Documents\GitHub\sport_main_code_2023/sport_menu.h:912
    } else if (page == 4)  // switches
    52b0:	84 30       	cpi	r24, 0x04	; 4
    52b2:	09 f0       	breq	.+2      	; 0x52b6 <main+0xeee>
    52b4:	7f c0       	rjmp	.+254    	; 0x53b4 <main+0xfec>
C:\Users\Ryan\Documents\GitHub\sport_main_code_2023/sport_menu.h:914
    {
      lcd.setCursor(0, 0);
    52b6:	60 e0       	ldi	r22, 0x00	; 0
    52b8:	80 e0       	ldi	r24, 0x00	; 0
    52ba:	0e 94 67 06 	call	0xcce	; 0xcce <LiquidCrystal::setCursor(unsigned char, unsigned char) [clone .constprop.27]>
C:\Users\Ryan\Documents\GitHub\sport_main_code_2023/sport_menu.h:915
      lcd.printf("SL=%d con=%d SR=%d", SFL, con, SFR);
    52be:	40 e0       	ldi	r20, 0x00	; 0
    52c0:	63 e0       	ldi	r22, 0x03	; 3
    52c2:	84 e0       	ldi	r24, 0x04	; 4
    52c4:	0e 94 83 06 	call	0xd06	; 0xd06 <read_sensor(char, char, char)>
    52c8:	b8 2e       	mov	r11, r24
    52ca:	a9 2e       	mov	r10, r25
    52cc:	40 e0       	ldi	r20, 0x00	; 0
    52ce:	63 e0       	ldi	r22, 0x03	; 3
    52d0:	83 e0       	ldi	r24, 0x03	; 3
    52d2:	0e 94 83 06 	call	0xd06	; 0xd06 <read_sensor(char, char, char)>
    52d6:	18 2f       	mov	r17, r24
    52d8:	09 2f       	mov	r16, r25
    52da:	40 e0       	ldi	r20, 0x00	; 0
    52dc:	62 e0       	ldi	r22, 0x02	; 2
    52de:	84 e0       	ldi	r24, 0x04	; 4
    52e0:	0e 94 83 06 	call	0xd06	; 0xd06 <read_sensor(char, char, char)>
    52e4:	af 92       	push	r10
    52e6:	bf 92       	push	r11
    52e8:	0f 93       	push	r16
    52ea:	1f 93       	push	r17
    52ec:	9f 93       	push	r25
    52ee:	8f 93       	push	r24
    52f0:	2d e9       	ldi	r18, 0x9D	; 157
    52f2:	36 e0       	ldi	r19, 0x06	; 6
    52f4:	3f 93       	push	r19
    52f6:	2f 93       	push	r18
    52f8:	df 93       	push	r29
    52fa:	cf 93       	push	r28
    52fc:	0e 94 19 09 	call	0x1232	; 0x1232 <Print::printf(char const*, ...) [clone .constprop.28]>
C:\Users\Ryan\Documents\GitHub\sport_main_code_2023/sport_menu.h:917

      lcd.setCursor(0, 1);
    5300:	61 e0       	ldi	r22, 0x01	; 1
    5302:	80 e0       	ldi	r24, 0x00	; 0
    5304:	0e 94 67 06 	call	0xcce	; 0xcce <LiquidCrystal::setCursor(unsigned char, unsigned char) [clone .constprop.27]>
C:\Users\Ryan\Documents\GitHub\sport_main_code_2023/sport_menu.h:918
      lcd.printf("obs = %d = %02d ", obs, Vobs);
    5308:	41 e0       	ldi	r20, 0x01	; 1
    530a:	62 e0       	ldi	r22, 0x02	; 2
    530c:	86 e0       	ldi	r24, 0x06	; 6
    530e:	0e 94 83 06 	call	0xd06	; 0xd06 <read_sensor(char, char, char)>
    5312:	18 2f       	mov	r17, r24
    5314:	09 2f       	mov	r16, r25
    5316:	40 e0       	ldi	r20, 0x00	; 0
    5318:	62 e0       	ldi	r22, 0x02	; 2
    531a:	86 e0       	ldi	r24, 0x06	; 6
    531c:	0e 94 83 06 	call	0xd06	; 0xd06 <read_sensor(char, char, char)>
    5320:	0f 93       	push	r16
    5322:	1f 93       	push	r17
    5324:	9f 93       	push	r25
    5326:	8f 93       	push	r24
    5328:	20 eb       	ldi	r18, 0xB0	; 176
    532a:	36 e0       	ldi	r19, 0x06	; 6
    532c:	3f 93       	push	r19
    532e:	2f 93       	push	r18
    5330:	df 93       	push	r29
    5332:	cf 93       	push	r28
    5334:	0e 94 19 09 	call	0x1232	; 0x1232 <Print::printf(char const*, ...) [clone .constprop.28]>
C:\Users\Ryan\Documents\GitHub\sport_main_code_2023/sport_menu.h:920

      lcd.setCursor(0, 2);
    5338:	62 e0       	ldi	r22, 0x02	; 2
    533a:	80 e0       	ldi	r24, 0x00	; 0
    533c:	0e 94 67 06 	call	0xcce	; 0xcce <LiquidCrystal::setCursor(unsigned char, unsigned char) [clone .constprop.27]>
C:\Users\Ryan\Documents\GitHub\sport_main_code_2023/sport_menu.h:921
      lcd.printf("ball=%d = %02d ", ball, Vball);
    5340:	41 e0       	ldi	r20, 0x01	; 1
    5342:	62 e0       	ldi	r22, 0x02	; 2
    5344:	85 e0       	ldi	r24, 0x05	; 5
    5346:	0e 94 83 06 	call	0xd06	; 0xd06 <read_sensor(char, char, char)>
    534a:	18 2f       	mov	r17, r24
    534c:	09 2f       	mov	r16, r25
    534e:	40 e0       	ldi	r20, 0x00	; 0
    5350:	62 e0       	ldi	r22, 0x02	; 2
    5352:	85 e0       	ldi	r24, 0x05	; 5
    5354:	0e 94 83 06 	call	0xd06	; 0xd06 <read_sensor(char, char, char)>
    5358:	0f 93       	push	r16
    535a:	1f 93       	push	r17
    535c:	9f 93       	push	r25
    535e:	8f 93       	push	r24
    5360:	21 ec       	ldi	r18, 0xC1	; 193
    5362:	36 e0       	ldi	r19, 0x06	; 6
    5364:	3f 93       	push	r19
    5366:	2f 93       	push	r18
    5368:	df 93       	push	r29
    536a:	cf 93       	push	r28
    536c:	0e 94 19 09 	call	0x1232	; 0x1232 <Print::printf(char const*, ...) [clone .constprop.28]>
C:\Users\Ryan\Documents\GitHub\sport_main_code_2023/sport_menu.h:923

      lcd.setCursor(0, 3);
    5370:	63 e0       	ldi	r22, 0x03	; 3
    5372:	80 e0       	ldi	r24, 0x00	; 0
    5374:	0e 94 67 06 	call	0xcce	; 0xcce <LiquidCrystal::setCursor(unsigned char, unsigned char) [clone .constprop.27]>
C:\Users\Ryan\Documents\GitHub\sport_main_code_2023/sport_menu.h:924
      lcd.printf("SBL=%d  SBR=%d  ", SBL, SBR);
    5378:	86 e2       	ldi	r24, 0x26	; 38
    537a:	0e 94 e3 01 	call	0x3c6	; 0x3c6 <digitalRead>
    537e:	18 2f       	mov	r17, r24
    5380:	09 2f       	mov	r16, r25
    5382:	85 e2       	ldi	r24, 0x25	; 37
    5384:	0e 94 e3 01 	call	0x3c6	; 0x3c6 <digitalRead>
    5388:	0f 93       	push	r16
    538a:	1f 93       	push	r17
    538c:	9f 93       	push	r25
    538e:	8f 93       	push	r24
    5390:	21 ed       	ldi	r18, 0xD1	; 209
    5392:	36 e0       	ldi	r19, 0x06	; 6
    5394:	3f 93       	push	r19
    5396:	2f 93       	push	r18
    5398:	df 93       	push	r29
    539a:	cf 93       	push	r28
    539c:	0e 94 19 09 	call	0x1232	; 0x1232 <Print::printf(char const*, ...) [clone .constprop.28]>
    53a0:	2d b7       	in	r18, 0x3d	; 61
    53a2:	3e b7       	in	r19, 0x3e	; 62
    53a4:	2e 5d       	subi	r18, 0xDE	; 222
    53a6:	3f 4f       	sbci	r19, 0xFF	; 255
    53a8:	0f b6       	in	r0, 0x3f	; 63
    53aa:	f8 94       	cli
    53ac:	3e bf       	out	0x3e, r19	; 62
    53ae:	0f be       	out	0x3f, r0	; 63
    53b0:	2d bf       	out	0x3d, r18	; 61
    53b2:	7e cc       	rjmp	.-1796   	; 0x4cb0 <main+0x8e8>
C:\Users\Ryan\Documents\GitHub\sport_main_code_2023/sport_menu.h:925
    } else if (page == 5)  // distance
    53b4:	85 30       	cpi	r24, 0x05	; 5
    53b6:	09 f0       	breq	.+2      	; 0x53ba <main+0xff2>
    53b8:	8e c0       	rjmp	.+284    	; 0x54d6 <main+0x110e>
C:\Users\Ryan\Documents\GitHub\sport_main_code_2023/sport_menu.h:927
    {
      lcd.setCursor(0, 0);
    53ba:	60 e0       	ldi	r22, 0x00	; 0
    53bc:	80 e0       	ldi	r24, 0x00	; 0
    53be:	0e 94 67 06 	call	0xcce	; 0xcce <LiquidCrystal::setCursor(unsigned char, unsigned char) [clone .constprop.27]>
ultrasonic():
C:\Users\Ryan\Documents\GitHub\sport_main_code_2023/sport_menu.h:2037
      }
    }
  }
}
int ultrasonic() {
  pinMode(pingPin, OUTPUT);
    53c2:	61 e0       	ldi	r22, 0x01	; 1
    53c4:	89 e1       	ldi	r24, 0x19	; 25
    53c6:	0e 94 3a 02 	call	0x474	; 0x474 <pinMode>
C:\Users\Ryan\Documents\GitHub\sport_main_code_2023/sport_menu.h:2038
  digitalWrite(pingPin, LOW);
    53ca:	60 e0       	ldi	r22, 0x00	; 0
    53cc:	89 e1       	ldi	r24, 0x19	; 25
    53ce:	0e 94 0c 02 	call	0x418	; 0x418 <digitalWrite>
C:\Users\Ryan\Documents\GitHub\sport_main_code_2023/sport_menu.h:2039
  delayMicroseconds(2);
    53d2:	82 e0       	ldi	r24, 0x02	; 2
    53d4:	90 e0       	ldi	r25, 0x00	; 0
    53d6:	0e 94 f3 02 	call	0x5e6	; 0x5e6 <delayMicroseconds>
C:\Users\Ryan\Documents\GitHub\sport_main_code_2023/sport_menu.h:2040
  digitalWrite(pingPin, HIGH);
    53da:	61 e0       	ldi	r22, 0x01	; 1
    53dc:	89 e1       	ldi	r24, 0x19	; 25
    53de:	0e 94 0c 02 	call	0x418	; 0x418 <digitalWrite>
C:\Users\Ryan\Documents\GitHub\sport_main_code_2023/sport_menu.h:2041
  delayMicroseconds(10);
    53e2:	8a e0       	ldi	r24, 0x0A	; 10
    53e4:	90 e0       	ldi	r25, 0x00	; 0
    53e6:	0e 94 f3 02 	call	0x5e6	; 0x5e6 <delayMicroseconds>
C:\Users\Ryan\Documents\GitHub\sport_main_code_2023/sport_menu.h:2042
  digitalWrite(pingPin, LOW);
    53ea:	60 e0       	ldi	r22, 0x00	; 0
    53ec:	89 e1       	ldi	r24, 0x19	; 25
    53ee:	0e 94 0c 02 	call	0x418	; 0x418 <digitalWrite>
C:\Users\Ryan\Documents\GitHub\sport_main_code_2023/sport_menu.h:2043
  pinMode(echoPin, INPUT);
    53f2:	60 e0       	ldi	r22, 0x00	; 0
    53f4:	80 e1       	ldi	r24, 0x10	; 16
    53f6:	0e 94 3a 02 	call	0x474	; 0x474 <pinMode>
pulseIn():
C:\Users\Ryan\AppData\Local\Arduino15\packages\MegaCore\hardware\avr\3.0.3\cores\MCUdude_corefiles/wiring_pulse.c:38
unsigned long pulseIn(uint8_t pin, uint8_t state, unsigned long timeout)
{
  // cache the port and bit of the pin in order to speed up the
  // pulse width measuring loop and achieve finer resolution.  calling
  // digitalRead() instead yields much coarser resolution.
  uint8_t bit = digitalPinToBitMask(pin);
    53fa:	e1 e0       	ldi	r30, 0x01	; 1
    53fc:	f1 e0       	ldi	r31, 0x01	; 1
    53fe:	64 91       	lpm	r22, Z
C:\Users\Ryan\AppData\Local\Arduino15\packages\MegaCore\hardware\avr\3.0.3\cores\MCUdude_corefiles/wiring_pulse.c:39
  uint8_t port = digitalPinToPort(pin);
    5400:	ec ec       	ldi	r30, 0xCC	; 204
    5402:	f0 e0       	ldi	r31, 0x00	; 0
    5404:	84 91       	lpm	r24, Z
C:\Users\Ryan\AppData\Local\Arduino15\packages\MegaCore\hardware\avr\3.0.3\cores\MCUdude_corefiles/wiring_pulse.c:46

  // convert the timeout from microseconds to a number of times through
  // the initial loop; it takes approximately 16 clock cycles per iteration
  unsigned long maxloops = microsecondsToClockCycles(timeout)/16;

  unsigned long width = countPulseASM(portInputRegister(port), bit, stateMask, maxloops);
    5406:	e8 2f       	mov	r30, r24
    5408:	f0 e0       	ldi	r31, 0x00	; 0
    540a:	ee 0f       	add	r30, r30
    540c:	ff 1f       	adc	r31, r31
    540e:	e4 55       	subi	r30, 0x54	; 84
    5410:	ff 4f       	sbci	r31, 0xFF	; 255
    5412:	85 91       	lpm	r24, Z+
    5414:	94 91       	lpm	r25, Z
    5416:	00 e4       	ldi	r16, 0x40	; 64
    5418:	12 e4       	ldi	r17, 0x42	; 66
    541a:	2f e0       	ldi	r18, 0x0F	; 15
    541c:	30 e0       	ldi	r19, 0x00	; 0
    541e:	46 2f       	mov	r20, r22
    5420:	0e 94 a6 16 	call	0x2d4c	; 0x2d4c <countPulseASM>
    5424:	9b 01       	movw	r18, r22
    5426:	ac 01       	movw	r20, r24
C:\Users\Ryan\AppData\Local\Arduino15\packages\MegaCore\hardware\avr\3.0.3\cores\MCUdude_corefiles/wiring_pulse.c:49

  // prevent clockCyclesToMicroseconds to return bogus values if countPulseASM timed out
  if (width)
    5428:	21 15       	cp	r18, r1
    542a:	31 05       	cpc	r19, r1
    542c:	41 05       	cpc	r20, r1
    542e:	51 05       	cpc	r21, r1
    5430:	29 f0       	breq	.+10     	; 0x543c <main+0x1074>
C:\Users\Ryan\AppData\Local\Arduino15\packages\MegaCore\hardware\avr\3.0.3\cores\MCUdude_corefiles/wiring_pulse.c:50
    return clockCyclesToMicroseconds(width * 16 + 16);
    5432:	2f 5f       	subi	r18, 0xFF	; 255
    5434:	3f 4f       	sbci	r19, 0xFF	; 255
    5436:	4f 4f       	sbci	r20, 0xFF	; 255
    5438:	5f 4f       	sbci	r21, 0xFF	; 255
    543a:	5f 70       	andi	r21, 0x0F	; 15
microsecondsToMillimeters():
C:\Users\Ryan\Documents\GitHub\sport_main_code_2023/sport_menu.h:804
      }
    }
  }
}
long microsecondsToMillimeters(long microseconds) {
  return microseconds * 10 / 29 / 2;
    543c:	aa e0       	ldi	r26, 0x0A	; 10
    543e:	b0 e0       	ldi	r27, 0x00	; 0
    5440:	0e 94 2e 36 	call	0x6c5c	; 0x6c5c <__muluhisi3>
    5444:	a7 01       	movw	r20, r14
    5446:	96 01       	movw	r18, r12
    5448:	0e 94 06 36 	call	0x6c0c	; 0x6c0c <__divmodsi4>
menu_sensor():
C:\Users\Ryan\Documents\GitHub\sport_main_code_2023/sport_menu.h:928
      lcd.setCursor(0, 3);
      lcd.printf("SBL=%d  SBR=%d  ", SBL, SBR);
    } else if (page == 5)  // distance
    {
      lcd.setCursor(0, 0);
      lcd.printf("Front: %d", Front_distance);
    544c:	3f 93       	push	r19
    544e:	2f 93       	push	r18
    5450:	22 ee       	ldi	r18, 0xE2	; 226
    5452:	36 e0       	ldi	r19, 0x06	; 6
    5454:	3f 93       	push	r19
    5456:	2f 93       	push	r18
    5458:	df 93       	push	r29
    545a:	cf 93       	push	r28
    545c:	0e 94 19 09 	call	0x1232	; 0x1232 <Print::printf(char const*, ...) [clone .constprop.28]>
C:\Users\Ryan\Documents\GitHub\sport_main_code_2023/sport_menu.h:929
      lcd.setCursor(0, 1);
    5460:	61 e0       	ldi	r22, 0x01	; 1
    5462:	80 e0       	ldi	r24, 0x00	; 0
    5464:	0e 94 67 06 	call	0xcce	; 0xcce <LiquidCrystal::setCursor(unsigned char, unsigned char) [clone .constprop.27]>
C:\Users\Ryan\Documents\GitHub\sport_main_code_2023/sport_menu.h:930
      lcd.printf("     VL_F=%d  ", VL_Front);
    5468:	83 e0       	ldi	r24, 0x03	; 3
    546a:	0e 94 f0 16 	call	0x2de0	; 0x2de0 <vl(char)>
    546e:	9f 93       	push	r25
    5470:	8f 93       	push	r24
    5472:	2c ee       	ldi	r18, 0xEC	; 236
    5474:	36 e0       	ldi	r19, 0x06	; 6
    5476:	3f 93       	push	r19
    5478:	2f 93       	push	r18
    547a:	df 93       	push	r29
    547c:	cf 93       	push	r28
    547e:	0e 94 19 09 	call	0x1232	; 0x1232 <Print::printf(char const*, ...) [clone .constprop.28]>
C:\Users\Ryan\Documents\GitHub\sport_main_code_2023/sport_menu.h:931
      lcd.setCursor(0, 2);
    5482:	62 e0       	ldi	r22, 0x02	; 2
    5484:	80 e0       	ldi	r24, 0x00	; 0
    5486:	0e 94 67 06 	call	0xcce	; 0xcce <LiquidCrystal::setCursor(unsigned char, unsigned char) [clone .constprop.27]>
C:\Users\Ryan\Documents\GitHub\sport_main_code_2023/sport_menu.h:932
      lcd.printf("VL_L=%d VL_R=%d ", VL_Left, VL_Right);
    548a:	81 e0       	ldi	r24, 0x01	; 1
    548c:	0e 94 f0 16 	call	0x2de0	; 0x2de0 <vl(char)>
    5490:	18 2f       	mov	r17, r24
    5492:	09 2f       	mov	r16, r25
    5494:	82 e0       	ldi	r24, 0x02	; 2
    5496:	0e 94 f0 16 	call	0x2de0	; 0x2de0 <vl(char)>
    549a:	0f 93       	push	r16
    549c:	1f 93       	push	r17
    549e:	9f 93       	push	r25
    54a0:	8f 93       	push	r24
    54a2:	2b ef       	ldi	r18, 0xFB	; 251
    54a4:	36 e0       	ldi	r19, 0x06	; 6
    54a6:	3f 93       	push	r19
    54a8:	2f 93       	push	r18
    54aa:	df 93       	push	r29
    54ac:	cf 93       	push	r28
    54ae:	0e 94 19 09 	call	0x1232	; 0x1232 <Print::printf(char const*, ...) [clone .constprop.28]>
C:\Users\Ryan\Documents\GitHub\sport_main_code_2023/sport_menu.h:933
      delay(200);
    54b2:	68 ec       	ldi	r22, 0xC8	; 200
    54b4:	70 e0       	ldi	r23, 0x00	; 0
    54b6:	80 e0       	ldi	r24, 0x00	; 0
    54b8:	90 e0       	ldi	r25, 0x00	; 0
    54ba:	0e 94 24 03 	call	0x648	; 0x648 <delay>
C:\Users\Ryan\Documents\GitHub\sport_main_code_2023/sport_menu.h:934
      lcd.clear();
    54be:	0e 94 bf 05 	call	0xb7e	; 0xb7e <LiquidCrystal::clear() [clone .constprop.38]>
    54c2:	2d b7       	in	r18, 0x3d	; 61
    54c4:	3e b7       	in	r19, 0x3e	; 62
    54c6:	2c 5e       	subi	r18, 0xEC	; 236
    54c8:	3f 4f       	sbci	r19, 0xFF	; 255
    54ca:	0f b6       	in	r0, 0x3f	; 63
    54cc:	f8 94       	cli
    54ce:	3e bf       	out	0x3e, r19	; 62
    54d0:	0f be       	out	0x3f, r0	; 63
    54d2:	2d bf       	out	0x3d, r18	; 61
    54d4:	ed cb       	rjmp	.-2086   	; 0x4cb0 <main+0x8e8>
C:\Users\Ryan\Documents\GitHub\sport_main_code_2023/sport_menu.h:935
    } else if (page == 6)  // compass
    54d6:	86 30       	cpi	r24, 0x06	; 6
    54d8:	09 f0       	breq	.+2      	; 0x54dc <main+0x1114>
    54da:	ea cb       	rjmp	.-2092   	; 0x4cb0 <main+0x8e8>
C:\Users\Ryan\Documents\GitHub\sport_main_code_2023/sport_menu.h:937
    {
      lcd.setCursor(0, 0);
    54dc:	60 e0       	ldi	r22, 0x00	; 0
    54de:	80 e0       	ldi	r24, 0x00	; 0
    54e0:	0e 94 67 06 	call	0xcce	; 0xcce <LiquidCrystal::setCursor(unsigned char, unsigned char) [clone .constprop.27]>
C:\Users\Ryan\Documents\GitHub\sport_main_code_2023/sport_menu.h:938
      lcd.printf("deg: %d pi: %d ro: %d", deg, pitch, role);
    54e4:	83 e0       	ldi	r24, 0x03	; 3
    54e6:	90 e0       	ldi	r25, 0x00	; 0
    54e8:	0e 94 a6 17 	call	0x2f4c	; 0x2f4c <cmps(int)>
    54ec:	b8 2e       	mov	r11, r24
    54ee:	a9 2e       	mov	r10, r25
    54f0:	82 e0       	ldi	r24, 0x02	; 2
    54f2:	90 e0       	ldi	r25, 0x00	; 0
    54f4:	0e 94 a6 17 	call	0x2f4c	; 0x2f4c <cmps(int)>
    54f8:	18 2f       	mov	r17, r24
    54fa:	09 2f       	mov	r16, r25
    54fc:	81 e0       	ldi	r24, 0x01	; 1
    54fe:	90 e0       	ldi	r25, 0x00	; 0
    5500:	0e 94 a6 17 	call	0x2f4c	; 0x2f4c <cmps(int)>
    5504:	af 92       	push	r10
    5506:	bf 92       	push	r11
    5508:	0f 93       	push	r16
    550a:	1f 93       	push	r17
    550c:	9f 93       	push	r25
    550e:	8f 93       	push	r24
    5510:	8c e0       	ldi	r24, 0x0C	; 12
    5512:	97 e0       	ldi	r25, 0x07	; 7
    5514:	9f 93       	push	r25
    5516:	8f 93       	push	r24
    5518:	df 93       	push	r29
    551a:	cf 93       	push	r28
    551c:	0e 94 19 09 	call	0x1232	; 0x1232 <Print::printf(char const*, ...) [clone .constprop.28]>
    5520:	8d b7       	in	r24, 0x3d	; 61
    5522:	9e b7       	in	r25, 0x3e	; 62
    5524:	0a 96       	adiw	r24, 0x0a	; 10
    5526:	0f b6       	in	r0, 0x3f	; 63
    5528:	f8 94       	cli
    552a:	9e bf       	out	0x3e, r25	; 62
    552c:	0f be       	out	0x3f, r0	; 63
    552e:	8d bf       	out	0x3d, r24	; 61
    5530:	bf cb       	rjmp	.-2178   	; 0x4cb0 <main+0x8e8>
menu():
C:\Users\Ryan\Documents\GitHub\sport_main_code_2023/sport_menu.h:1417
      if (start == 0) {
        while (start == 0)
          ;
        menu_sensor();
      }
    } else if (page == 3)  // Setup
    5532:	83 30       	cpi	r24, 0x03	; 3
    5534:	09 f0       	breq	.+2      	; 0x5538 <main+0x1170>
    5536:	44 c2       	rjmp	.+1160   	; 0x59c0 <main+0x15f8>
C:\Users\Ryan\Documents\GitHub\sport_main_code_2023/sport_menu.h:1419
    {
      if (start == 0) {
    5538:	86 e0       	ldi	r24, 0x06	; 6
    553a:	0e 94 e3 01 	call	0x3c6	; 0x3c6 <digitalRead>
    553e:	89 2b       	or	r24, r25
    5540:	09 f0       	breq	.+2      	; 0x5544 <main+0x117c>
    5542:	34 c9       	rjmp	.-3480   	; 0x47ac <main+0x3e4>
C:\Users\Ryan\Documents\GitHub\sport_main_code_2023/sport_menu.h:1420
        while (start == 0)
    5544:	86 e0       	ldi	r24, 0x06	; 6
    5546:	0e 94 e3 01 	call	0x3c6	; 0x3c6 <digitalRead>
    554a:	89 2b       	or	r24, r25
    554c:	d9 f3       	breq	.-10     	; 0x5544 <main+0x117c>
menu_setup():
C:\Users\Ryan\Documents\GitHub\sport_main_code_2023/sport_menu.h:644
  }
}

void menu_setup(void) {
  static char page = 1, last_page = 8;
  int spd = EEPROM_read_int(spd_address);
    554e:	86 e9       	ldi	r24, 0x96	; 150
    5550:	90 e0       	ldi	r25, 0x00	; 0
    5552:	0e 94 1c 0a 	call	0x1438	; 0x1438 <EEPROM_read_int(int)>
    5556:	8c 01       	movw	r16, r24
C:\Users\Ryan\Documents\GitHub\sport_main_code_2023/sport_menu.h:645
  int T90 = EEPROM_read_int(T90_address);
    5558:	88 e9       	ldi	r24, 0x98	; 152
    555a:	90 e0       	ldi	r25, 0x00	; 0
    555c:	0e 94 1c 0a 	call	0x1438	; 0x1438 <EEPROM_read_int(int)>
    5560:	7c 01       	movw	r14, r24
C:\Users\Ryan\Documents\GitHub\sport_main_code_2023/sport_menu.h:646
  int range_value = EEPROM_read_int(range_address);
    5562:	8a e9       	ldi	r24, 0x9A	; 154
    5564:	90 e0       	ldi	r25, 0x00	; 0
    5566:	0e 94 1c 0a 	call	0x1438	; 0x1438 <EEPROM_read_int(int)>
    556a:	6c 01       	movw	r12, r24
C:\Users\Ryan\Documents\GitHub\sport_main_code_2023/sport_menu.h:647
  int DN = EEPROM_read_int(DN_address);
    556c:	8c e9       	ldi	r24, 0x9C	; 156
    556e:	90 e0       	ldi	r25, 0x00	; 0
    5570:	0e 94 1c 0a 	call	0x1438	; 0x1438 <EEPROM_read_int(int)>
    5574:	98 2e       	mov	r9, r24
    5576:	89 2e       	mov	r8, r25
C:\Users\Ryan\Documents\GitHub\sport_main_code_2023/sport_menu.h:648
  int DE = EEPROM_read_int(DE_address);
    5578:	8e e9       	ldi	r24, 0x9E	; 158
    557a:	90 e0       	ldi	r25, 0x00	; 0
    557c:	0e 94 1c 0a 	call	0x1438	; 0x1438 <EEPROM_read_int(int)>
    5580:	78 2e       	mov	r7, r24
    5582:	69 2e       	mov	r6, r25
C:\Users\Ryan\Documents\GitHub\sport_main_code_2023/sport_menu.h:649
  int DS = EEPROM_read_int(DS_address);
    5584:	80 ea       	ldi	r24, 0xA0	; 160
    5586:	90 e0       	ldi	r25, 0x00	; 0
    5588:	0e 94 1c 0a 	call	0x1438	; 0x1438 <EEPROM_read_int(int)>
    558c:	58 2e       	mov	r5, r24
    558e:	49 2e       	mov	r4, r25
C:\Users\Ryan\Documents\GitHub\sport_main_code_2023/sport_menu.h:650
  int ev_s_ball = EEPROM_read_int(DW_address);
    5590:	82 ea       	ldi	r24, 0xA2	; 162
    5592:	90 e0       	ldi	r25, 0x00	; 0
    5594:	0e 94 1c 0a 	call	0x1438	; 0x1438 <EEPROM_read_int(int)>
    5598:	1c 01       	movw	r2, r24
C:\Users\Ryan\Documents\GitHub\sport_main_code_2023/sport_menu.h:652

  lcd.clear();
    559a:	0e 94 bf 05 	call	0xb7e	; 0xb7e <LiquidCrystal::clear() [clone .constprop.38]>
C:\Users\Ryan\Documents\GitHub\sport_main_code_2023/sport_menu.h:691
      lcd.setCursor(0, page - 1);
      lcd.print(">");
    } else if (page < 9) {

      lcd.setCursor(2, 0);
      lcd.printf("DN  %d  deg: %d ", DN, deg);
    559e:	cf eb       	ldi	r28, 0xBF	; 191
    55a0:	da e0       	ldi	r29, 0x0A	; 10
C:\Users\Ryan\Documents\GitHub\sport_main_code_2023/sport_menu.h:655
  int ev_s_ball = EEPROM_read_int(DW_address);

  lcd.clear();

  while (1) {
    if (next_page == 0) {
    55a2:	88 e0       	ldi	r24, 0x08	; 8
    55a4:	0e 94 e3 01 	call	0x3c6	; 0x3c6 <digitalRead>
    55a8:	89 2b       	or	r24, r25
    55aa:	a9 f4       	brne	.+42     	; 0x55d6 <main+0x120e>
C:\Users\Ryan\Documents\GitHub\sport_main_code_2023/sport_menu.h:656
      while (next_page == 0)
    55ac:	88 e0       	ldi	r24, 0x08	; 8
    55ae:	0e 94 e3 01 	call	0x3c6	; 0x3c6 <digitalRead>
    55b2:	89 2b       	or	r24, r25
    55b4:	d9 f3       	breq	.-10     	; 0x55ac <main+0x11e4>
C:\Users\Ryan\Documents\GitHub\sport_main_code_2023/sport_menu.h:658
        ;
      delay(50);
    55b6:	62 e3       	ldi	r22, 0x32	; 50
    55b8:	70 e0       	ldi	r23, 0x00	; 0
    55ba:	80 e0       	ldi	r24, 0x00	; 0
    55bc:	90 e0       	ldi	r25, 0x00	; 0
    55be:	0e 94 24 03 	call	0x648	; 0x648 <delay>
C:\Users\Ryan\Documents\GitHub\sport_main_code_2023/sport_menu.h:659
      page++;
    55c2:	80 91 03 01 	lds	r24, 0x0103	; 0x800103 <menu_setup()::page>
    55c6:	8f 5f       	subi	r24, 0xFF	; 255
C:\Users\Ryan\Documents\GitHub\sport_main_code_2023/sport_menu.h:660
      if (page > last_page)
    55c8:	89 30       	cpi	r24, 0x09	; 9
    55ca:	0c f0       	brlt	.+2      	; 0x55ce <main+0x1206>
    55cc:	8e c0       	rjmp	.+284    	; 0x56ea <main+0x1322>
C:\Users\Ryan\Documents\GitHub\sport_main_code_2023/sport_menu.h:661
        page = 1;
    55ce:	80 93 03 01 	sts	0x0103, r24	; 0x800103 <menu_setup()::page>
C:\Users\Ryan\Documents\GitHub\sport_main_code_2023/sport_menu.h:662
      lcd.clear();
    55d2:	0e 94 bf 05 	call	0xb7e	; 0xb7e <LiquidCrystal::clear() [clone .constprop.38]>
C:\Users\Ryan\Documents\GitHub\sport_main_code_2023/sport_menu.h:664
    }
    if (previuse_page == 0) {
    55d6:	89 e0       	ldi	r24, 0x09	; 9
    55d8:	0e 94 e3 01 	call	0x3c6	; 0x3c6 <digitalRead>
    55dc:	89 2b       	or	r24, r25
    55de:	a9 f4       	brne	.+42     	; 0x560a <main+0x1242>
C:\Users\Ryan\Documents\GitHub\sport_main_code_2023/sport_menu.h:665
      while (previuse_page == 0)
    55e0:	89 e0       	ldi	r24, 0x09	; 9
    55e2:	0e 94 e3 01 	call	0x3c6	; 0x3c6 <digitalRead>
    55e6:	89 2b       	or	r24, r25
    55e8:	d9 f3       	breq	.-10     	; 0x55e0 <main+0x1218>
C:\Users\Ryan\Documents\GitHub\sport_main_code_2023/sport_menu.h:667
        ;
      delay(50);
    55ea:	62 e3       	ldi	r22, 0x32	; 50
    55ec:	70 e0       	ldi	r23, 0x00	; 0
    55ee:	80 e0       	ldi	r24, 0x00	; 0
    55f0:	90 e0       	ldi	r25, 0x00	; 0
    55f2:	0e 94 24 03 	call	0x648	; 0x648 <delay>
C:\Users\Ryan\Documents\GitHub\sport_main_code_2023/sport_menu.h:668
      page--;
    55f6:	80 91 03 01 	lds	r24, 0x0103	; 0x800103 <menu_setup()::page>
    55fa:	81 50       	subi	r24, 0x01	; 1
C:\Users\Ryan\Documents\GitHub\sport_main_code_2023/sport_menu.h:669
      if (page < 1)
    55fc:	18 16       	cp	r1, r24
    55fe:	0c f0       	brlt	.+2      	; 0x5602 <main+0x123a>
    5600:	76 c0       	rjmp	.+236    	; 0x56ee <main+0x1326>
C:\Users\Ryan\Documents\GitHub\sport_main_code_2023/sport_menu.h:670
        page = last_page;
    5602:	80 93 03 01 	sts	0x0103, r24	; 0x800103 <menu_setup()::page>
C:\Users\Ryan\Documents\GitHub\sport_main_code_2023/sport_menu.h:671
      lcd.clear();
    5606:	0e 94 bf 05 	call	0xb7e	; 0xb7e <LiquidCrystal::clear() [clone .constprop.38]>
C:\Users\Ryan\Documents\GitHub\sport_main_code_2023/sport_menu.h:673
    }
    if (page < 5) {
    560a:	80 91 03 01 	lds	r24, 0x0103	; 0x800103 <menu_setup()::page>
    560e:	85 30       	cpi	r24, 0x05	; 5
    5610:	0c f0       	brlt	.+2      	; 0x5614 <main+0x124c>
    5612:	6f c0       	rjmp	.+222    	; 0x56f2 <main+0x132a>
C:\Users\Ryan\Documents\GitHub\sport_main_code_2023/sport_menu.h:674
      lcd.setCursor(2, 0);
    5614:	60 e0       	ldi	r22, 0x00	; 0
    5616:	82 e0       	ldi	r24, 0x02	; 2
    5618:	0e 94 67 06 	call	0xcce	; 0xcce <LiquidCrystal::setCursor(unsigned char, unsigned char) [clone .constprop.27]>
C:\Users\Ryan\Documents\GitHub\sport_main_code_2023/sport_menu.h:675
      lcd.printf("speed     %3d ", spd);
    561c:	1f 93       	push	r17
    561e:	0f 93       	push	r16
    5620:	e2 e2       	ldi	r30, 0x22	; 34
    5622:	f7 e0       	ldi	r31, 0x07	; 7
    5624:	ff 93       	push	r31
    5626:	ef 93       	push	r30
    5628:	df 93       	push	r29
    562a:	cf 93       	push	r28
    562c:	0e 94 19 09 	call	0x1232	; 0x1232 <Print::printf(char const*, ...) [clone .constprop.28]>
C:\Users\Ryan\Documents\GitHub\sport_main_code_2023/sport_menu.h:677

      lcd.setCursor(2, 1);
    5630:	61 e0       	ldi	r22, 0x01	; 1
    5632:	82 e0       	ldi	r24, 0x02	; 2
    5634:	0e 94 67 06 	call	0xcce	; 0xcce <LiquidCrystal::setCursor(unsigned char, unsigned char) [clone .constprop.27]>
C:\Users\Ryan\Documents\GitHub\sport_main_code_2023/sport_menu.h:678
      lcd.printf("T90       %3d ", T90);
    5638:	ff 92       	push	r15
    563a:	ef 92       	push	r14
    563c:	e1 e3       	ldi	r30, 0x31	; 49
    563e:	f7 e0       	ldi	r31, 0x07	; 7
    5640:	ff 93       	push	r31
    5642:	ef 93       	push	r30
    5644:	df 93       	push	r29
    5646:	cf 93       	push	r28
    5648:	0e 94 19 09 	call	0x1232	; 0x1232 <Print::printf(char const*, ...) [clone .constprop.28]>
C:\Users\Ryan\Documents\GitHub\sport_main_code_2023/sport_menu.h:680

      lcd.setCursor(2, 2);
    564c:	62 e0       	ldi	r22, 0x02	; 2
    564e:	82 e0       	ldi	r24, 0x02	; 2
    5650:	0e 94 67 06 	call	0xcce	; 0xcce <LiquidCrystal::setCursor(unsigned char, unsigned char) [clone .constprop.27]>
C:\Users\Ryan\Documents\GitHub\sport_main_code_2023/sport_menu.h:681
      lcd.printf("calib rng %3d ", range);
    5654:	8a e9       	ldi	r24, 0x9A	; 154
    5656:	90 e0       	ldi	r25, 0x00	; 0
    5658:	0e 94 1c 0a 	call	0x1438	; 0x1438 <EEPROM_read_int(int)>
    565c:	9f 93       	push	r25
    565e:	8f 93       	push	r24
    5660:	e0 e4       	ldi	r30, 0x40	; 64
    5662:	f7 e0       	ldi	r31, 0x07	; 7
    5664:	ff 93       	push	r31
    5666:	ef 93       	push	r30
    5668:	df 93       	push	r29
    566a:	cf 93       	push	r28
    566c:	0e 94 19 09 	call	0x1232	; 0x1232 <Print::printf(char const*, ...) [clone .constprop.28]>
C:\Users\Ryan\Documents\GitHub\sport_main_code_2023/sport_menu.h:683

      lcd.setCursor(2, 3);
    5670:	63 e0       	ldi	r22, 0x03	; 3
    5672:	82 e0       	ldi	r24, 0x02	; 2
    5674:	0e 94 67 06 	call	0xcce	; 0xcce <LiquidCrystal::setCursor(unsigned char, unsigned char) [clone .constprop.27]>
C:\Users\Ryan\Documents\GitHub\sport_main_code_2023/sport_menu.h:684
      lcd.printf("reset memory   ");
    5678:	ef e4       	ldi	r30, 0x4F	; 79
    567a:	f7 e0       	ldi	r31, 0x07	; 7
    567c:	ff 93       	push	r31
    567e:	ef 93       	push	r30
    5680:	df 93       	push	r29
    5682:	cf 93       	push	r28
    5684:	0e 94 19 09 	call	0x1232	; 0x1232 <Print::printf(char const*, ...) [clone .constprop.28]>
C:\Users\Ryan\Documents\GitHub\sport_main_code_2023/sport_menu.h:686

      lcd.setCursor(0, page - 1);
    5688:	60 91 03 01 	lds	r22, 0x0103	; 0x800103 <menu_setup()::page>
    568c:	61 50       	subi	r22, 0x01	; 1
    568e:	80 e0       	ldi	r24, 0x00	; 0
    5690:	0e 94 67 06 	call	0xcce	; 0xcce <LiquidCrystal::setCursor(unsigned char, unsigned char) [clone .constprop.27]>
C:\Users\Ryan\Documents\GitHub\sport_main_code_2023/sport_menu.h:687
      lcd.print(">");
    5694:	8f e5       	ldi	r24, 0x5F	; 95
    5696:	97 e0       	ldi	r25, 0x07	; 7
    5698:	0e 94 ff 09 	call	0x13fe	; 0x13fe <Print::print(char const*) [clone .constprop.9]>
    569c:	ed b7       	in	r30, 0x3d	; 61
    569e:	fe b7       	in	r31, 0x3e	; 62
    56a0:	76 96       	adiw	r30, 0x16	; 22
    56a2:	0f b6       	in	r0, 0x3f	; 63
    56a4:	f8 94       	cli
    56a6:	fe bf       	out	0x3e, r31	; 62
    56a8:	0f be       	out	0x3f, r0	; 63
    56aa:	ed bf       	out	0x3d, r30	; 61
C:\Users\Ryan\Documents\GitHub\sport_main_code_2023/sport_menu.h:706

      lcd.setCursor(0, page - 5);
      lcd.print(">");
    }

    if (page == 1)  // spd
    56ac:	80 91 03 01 	lds	r24, 0x0103	; 0x800103 <menu_setup()::page>
    56b0:	81 30       	cpi	r24, 0x01	; 1
    56b2:	09 f0       	breq	.+2      	; 0x56b6 <main+0x12ee>
    56b4:	9c c0       	rjmp	.+312    	; 0x57ee <main+0x1426>
C:\Users\Ryan\Documents\GitHub\sport_main_code_2023/sport_menu.h:708
    {
      if (increase == 0) {
    56b6:	8a e0       	ldi	r24, 0x0A	; 10
    56b8:	0e 94 e3 01 	call	0x3c6	; 0x3c6 <digitalRead>
    56bc:	89 2b       	or	r24, r25
    56be:	09 f0       	breq	.+2      	; 0x56c2 <main+0x12fa>
    56c0:	6c c0       	rjmp	.+216    	; 0x579a <main+0x13d2>
C:\Users\Ryan\Documents\GitHub\sport_main_code_2023/sport_menu.h:709
        delay(120);
    56c2:	68 e7       	ldi	r22, 0x78	; 120
    56c4:	70 e0       	ldi	r23, 0x00	; 0
    56c6:	80 e0       	ldi	r24, 0x00	; 0
    56c8:	90 e0       	ldi	r25, 0x00	; 0
    56ca:	0e 94 24 03 	call	0x648	; 0x648 <delay>
    56ce:	06 5f       	subi	r16, 0xF6	; 246
    56d0:	1f 4f       	sbci	r17, 0xFF	; 255
    56d2:	0f 3f       	cpi	r16, 0xFF	; 255
    56d4:	11 05       	cpc	r17, r1
    56d6:	19 f0       	breq	.+6      	; 0x56de <main+0x1316>
    56d8:	14 f0       	brlt	.+4      	; 0x56de <main+0x1316>
    56da:	0f ef       	ldi	r16, 0xFF	; 255
    56dc:	10 e0       	ldi	r17, 0x00	; 0
C:\Users\Ryan\Documents\GitHub\sport_main_code_2023/sport_menu.h:725
      } else if (start == 0) {
        go(spd, spd);
        while (start == 0)
          ;
        go(0, 0);
        EEPROM_write_int(spd_address, spd);
    56de:	b8 01       	movw	r22, r16
    56e0:	86 e9       	ldi	r24, 0x96	; 150
    56e2:	90 e0       	ldi	r25, 0x00	; 0
C:\Users\Ryan\Documents\GitHub\sport_main_code_2023/sport_menu.h:790
    {
      if (start == 0) {
        while (start == 0)
          ;
        DS = deg;
        EEPROM_write_int(DS_address, DS);
    56e4:	0e 94 0c 0a 	call	0x1418	; 0x1418 <EEPROM_write_int(int, int)>
    56e8:	5c cf       	rjmp	.-328    	; 0x55a2 <main+0x11da>
C:\Users\Ryan\Documents\GitHub\sport_main_code_2023/sport_menu.h:661
      while (next_page == 0)
        ;
      delay(50);
      page++;
      if (page > last_page)
        page = 1;
    56ea:	81 e0       	ldi	r24, 0x01	; 1
    56ec:	70 cf       	rjmp	.-288    	; 0x55ce <main+0x1206>
C:\Users\Ryan\Documents\GitHub\sport_main_code_2023/sport_menu.h:670
      while (previuse_page == 0)
        ;
      delay(50);
      page--;
      if (page < 1)
        page = last_page;
    56ee:	88 e0       	ldi	r24, 0x08	; 8
    56f0:	88 cf       	rjmp	.-240    	; 0x5602 <main+0x123a>
C:\Users\Ryan\Documents\GitHub\sport_main_code_2023/sport_menu.h:688
      lcd.setCursor(2, 3);
      lcd.printf("reset memory   ");

      lcd.setCursor(0, page - 1);
      lcd.print(">");
    } else if (page < 9) {
    56f2:	89 30       	cpi	r24, 0x09	; 9
    56f4:	dc f6       	brge	.-74     	; 0x56ac <main+0x12e4>
C:\Users\Ryan\Documents\GitHub\sport_main_code_2023/sport_menu.h:690

      lcd.setCursor(2, 0);
    56f6:	60 e0       	ldi	r22, 0x00	; 0
    56f8:	82 e0       	ldi	r24, 0x02	; 2
    56fa:	0e 94 67 06 	call	0xcce	; 0xcce <LiquidCrystal::setCursor(unsigned char, unsigned char) [clone .constprop.27]>
C:\Users\Ryan\Documents\GitHub\sport_main_code_2023/sport_menu.h:691
      lcd.printf("DN  %d  deg: %d ", DN, deg);
    56fe:	81 e0       	ldi	r24, 0x01	; 1
    5700:	90 e0       	ldi	r25, 0x00	; 0
    5702:	0e 94 a6 17 	call	0x2f4c	; 0x2f4c <cmps(int)>
    5706:	9f 93       	push	r25
    5708:	8f 93       	push	r24
    570a:	8f 92       	push	r8
    570c:	9f 92       	push	r9
    570e:	21 e6       	ldi	r18, 0x61	; 97
    5710:	37 e0       	ldi	r19, 0x07	; 7
    5712:	3f 93       	push	r19
    5714:	2f 93       	push	r18
    5716:	df 93       	push	r29
    5718:	cf 93       	push	r28
    571a:	0e 94 19 09 	call	0x1232	; 0x1232 <Print::printf(char const*, ...) [clone .constprop.28]>
C:\Users\Ryan\Documents\GitHub\sport_main_code_2023/sport_menu.h:693

      lcd.setCursor(2, 1);
    571e:	61 e0       	ldi	r22, 0x01	; 1
    5720:	82 e0       	ldi	r24, 0x02	; 2
    5722:	0e 94 67 06 	call	0xcce	; 0xcce <LiquidCrystal::setCursor(unsigned char, unsigned char) [clone .constprop.27]>
C:\Users\Ryan\Documents\GitHub\sport_main_code_2023/sport_menu.h:694
      lcd.printf("DE  %d ", DE);
    5726:	6f 92       	push	r6
    5728:	7f 92       	push	r7
    572a:	22 e7       	ldi	r18, 0x72	; 114
    572c:	37 e0       	ldi	r19, 0x07	; 7
    572e:	3f 93       	push	r19
    5730:	2f 93       	push	r18
    5732:	df 93       	push	r29
    5734:	cf 93       	push	r28
    5736:	0e 94 19 09 	call	0x1232	; 0x1232 <Print::printf(char const*, ...) [clone .constprop.28]>
C:\Users\Ryan\Documents\GitHub\sport_main_code_2023/sport_menu.h:696

      lcd.setCursor(2, 2);
    573a:	62 e0       	ldi	r22, 0x02	; 2
    573c:	82 e0       	ldi	r24, 0x02	; 2
    573e:	0e 94 67 06 	call	0xcce	; 0xcce <LiquidCrystal::setCursor(unsigned char, unsigned char) [clone .constprop.27]>
C:\Users\Ryan\Documents\GitHub\sport_main_code_2023/sport_menu.h:697
      lcd.printf("DS  %d ", DS);
    5742:	4f 92       	push	r4
    5744:	5f 92       	push	r5
    5746:	2a e7       	ldi	r18, 0x7A	; 122
    5748:	37 e0       	ldi	r19, 0x07	; 7
    574a:	3f 93       	push	r19
    574c:	2f 93       	push	r18
    574e:	df 93       	push	r29
    5750:	cf 93       	push	r28
    5752:	0e 94 19 09 	call	0x1232	; 0x1232 <Print::printf(char const*, ...) [clone .constprop.28]>
C:\Users\Ryan\Documents\GitHub\sport_main_code_2023/sport_menu.h:699

      lcd.setCursor(2, 3);
    5756:	63 e0       	ldi	r22, 0x03	; 3
    5758:	82 e0       	ldi	r24, 0x02	; 2
    575a:	0e 94 67 06 	call	0xcce	; 0xcce <LiquidCrystal::setCursor(unsigned char, unsigned char) [clone .constprop.27]>
C:\Users\Ryan\Documents\GitHub\sport_main_code_2023/sport_menu.h:700
      lcd.printf("ev_s_ball  %d ", ev_s_ball);
    575e:	3f 92       	push	r3
    5760:	2f 92       	push	r2
    5762:	22 e8       	ldi	r18, 0x82	; 130
    5764:	37 e0       	ldi	r19, 0x07	; 7
    5766:	3f 93       	push	r19
    5768:	2f 93       	push	r18
    576a:	df 93       	push	r29
    576c:	cf 93       	push	r28
    576e:	0e 94 19 09 	call	0x1232	; 0x1232 <Print::printf(char const*, ...) [clone .constprop.28]>
C:\Users\Ryan\Documents\GitHub\sport_main_code_2023/sport_menu.h:702

      lcd.setCursor(0, page - 5);
    5772:	60 91 03 01 	lds	r22, 0x0103	; 0x800103 <menu_setup()::page>
    5776:	65 50       	subi	r22, 0x05	; 5
    5778:	80 e0       	ldi	r24, 0x00	; 0
    577a:	0e 94 67 06 	call	0xcce	; 0xcce <LiquidCrystal::setCursor(unsigned char, unsigned char) [clone .constprop.27]>
C:\Users\Ryan\Documents\GitHub\sport_main_code_2023/sport_menu.h:703
      lcd.print(">");
    577e:	8f e5       	ldi	r24, 0x5F	; 95
    5780:	97 e0       	ldi	r25, 0x07	; 7
    5782:	0e 94 ff 09 	call	0x13fe	; 0x13fe <Print::print(char const*) [clone .constprop.9]>
    5786:	2d b7       	in	r18, 0x3d	; 61
    5788:	3e b7       	in	r19, 0x3e	; 62
    578a:	26 5e       	subi	r18, 0xE6	; 230
    578c:	3f 4f       	sbci	r19, 0xFF	; 255
    578e:	0f b6       	in	r0, 0x3f	; 63
    5790:	f8 94       	cli
    5792:	3e bf       	out	0x3e, r19	; 62
    5794:	0f be       	out	0x3f, r0	; 63
    5796:	2d bf       	out	0x3d, r18	; 61
    5798:	89 cf       	rjmp	.-238    	; 0x56ac <main+0x12e4>
C:\Users\Ryan\Documents\GitHub\sport_main_code_2023/sport_menu.h:714
        delay(120);
        spd += 10;
        if (spd > 255)
          spd = 255;
        EEPROM_write_int(spd_address, spd);
      } else if (decrease == 0) {
    579a:	8b e0       	ldi	r24, 0x0B	; 11
    579c:	0e 94 e3 01 	call	0x3c6	; 0x3c6 <digitalRead>
    57a0:	89 2b       	or	r24, r25
    57a2:	79 f4       	brne	.+30     	; 0x57c2 <main+0x13fa>
C:\Users\Ryan\Documents\GitHub\sport_main_code_2023/sport_menu.h:715
        delay(120);
    57a4:	68 e7       	ldi	r22, 0x78	; 120
    57a6:	70 e0       	ldi	r23, 0x00	; 0
    57a8:	80 e0       	ldi	r24, 0x00	; 0
    57aa:	90 e0       	ldi	r25, 0x00	; 0
    57ac:	0e 94 24 03 	call	0x648	; 0x648 <delay>
    57b0:	0a 50       	subi	r16, 0x0A	; 10
    57b2:	11 09       	sbc	r17, r1
    57b4:	0a 30       	cpi	r16, 0x0A	; 10
    57b6:	11 05       	cpc	r17, r1
    57b8:	0c f0       	brlt	.+2      	; 0x57bc <main+0x13f4>
    57ba:	91 cf       	rjmp	.-222    	; 0x56de <main+0x1316>
    57bc:	0a e0       	ldi	r16, 0x0A	; 10
    57be:	10 e0       	ldi	r17, 0x00	; 0
    57c0:	8e cf       	rjmp	.-228    	; 0x56de <main+0x1316>
C:\Users\Ryan\Documents\GitHub\sport_main_code_2023/sport_menu.h:720
        spd -= 10;
        if (spd < 10)
          spd = 10;
        EEPROM_write_int(spd_address, spd);
      } else if (start == 0) {
    57c2:	86 e0       	ldi	r24, 0x06	; 6
    57c4:	0e 94 e3 01 	call	0x3c6	; 0x3c6 <digitalRead>
    57c8:	89 2b       	or	r24, r25
    57ca:	09 f0       	breq	.+2      	; 0x57ce <main+0x1406>
    57cc:	ea ce       	rjmp	.-556    	; 0x55a2 <main+0x11da>
C:\Users\Ryan\Documents\GitHub\sport_main_code_2023/sport_menu.h:721
        go(spd, spd);
    57ce:	b8 01       	movw	r22, r16
    57d0:	c8 01       	movw	r24, r16
    57d2:	0e 94 d0 06 	call	0xda0	; 0xda0 <go(int, int)>
C:\Users\Ryan\Documents\GitHub\sport_main_code_2023/sport_menu.h:722
        while (start == 0)
    57d6:	86 e0       	ldi	r24, 0x06	; 6
    57d8:	0e 94 e3 01 	call	0x3c6	; 0x3c6 <digitalRead>
    57dc:	89 2b       	or	r24, r25
    57de:	d9 f3       	breq	.-10     	; 0x57d6 <main+0x140e>
C:\Users\Ryan\Documents\GitHub\sport_main_code_2023/sport_menu.h:724
          ;
        go(0, 0);
    57e0:	70 e0       	ldi	r23, 0x00	; 0
    57e2:	60 e0       	ldi	r22, 0x00	; 0
    57e4:	90 e0       	ldi	r25, 0x00	; 0
    57e6:	80 e0       	ldi	r24, 0x00	; 0
    57e8:	0e 94 d0 06 	call	0xda0	; 0xda0 <go(int, int)>
    57ec:	78 cf       	rjmp	.-272    	; 0x56de <main+0x1316>
C:\Users\Ryan\Documents\GitHub\sport_main_code_2023/sport_menu.h:727
        EEPROM_write_int(spd_address, spd);
      }
    } else if (page == 2)  // T90
    57ee:	82 30       	cpi	r24, 0x02	; 2
    57f0:	d9 f5       	brne	.+118    	; 0x5868 <main+0x14a0>
C:\Users\Ryan\Documents\GitHub\sport_main_code_2023/sport_menu.h:729
    {
      if (increase == 0) {
    57f2:	8a e0       	ldi	r24, 0x0A	; 10
    57f4:	0e 94 e3 01 	call	0x3c6	; 0x3c6 <digitalRead>
    57f8:	89 2b       	or	r24, r25
    57fa:	69 f4       	brne	.+26     	; 0x5816 <main+0x144e>
C:\Users\Ryan\Documents\GitHub\sport_main_code_2023/sport_menu.h:730
        delay(200);
    57fc:	68 ec       	ldi	r22, 0xC8	; 200
    57fe:	70 e0       	ldi	r23, 0x00	; 0
    5800:	80 e0       	ldi	r24, 0x00	; 0
    5802:	90 e0       	ldi	r25, 0x00	; 0
    5804:	0e 94 24 03 	call	0x648	; 0x648 <delay>
C:\Users\Ryan\Documents\GitHub\sport_main_code_2023/sport_menu.h:731
        T90 += 1;
    5808:	3f ef       	ldi	r19, 0xFF	; 255
    580a:	e3 1a       	sub	r14, r19
    580c:	f3 0a       	sbc	r15, r19
C:\Users\Ryan\Documents\GitHub\sport_main_code_2023/sport_menu.h:736
        EEPROM_write_int(T90_address, T90);
      } else if (decrease == 0) {
        delay(200);
        T90 -= 1;
        EEPROM_write_int(T90_address, T90);
    580e:	b7 01       	movw	r22, r14
    5810:	88 e9       	ldi	r24, 0x98	; 152
    5812:	90 e0       	ldi	r25, 0x00	; 0
    5814:	67 cf       	rjmp	.-306    	; 0x56e4 <main+0x131c>
C:\Users\Ryan\Documents\GitHub\sport_main_code_2023/sport_menu.h:733
    {
      if (increase == 0) {
        delay(200);
        T90 += 1;
        EEPROM_write_int(T90_address, T90);
      } else if (decrease == 0) {
    5816:	8b e0       	ldi	r24, 0x0B	; 11
    5818:	0e 94 e3 01 	call	0x3c6	; 0x3c6 <digitalRead>
    581c:	89 2b       	or	r24, r25
    581e:	51 f4       	brne	.+20     	; 0x5834 <main+0x146c>
C:\Users\Ryan\Documents\GitHub\sport_main_code_2023/sport_menu.h:734
        delay(200);
    5820:	68 ec       	ldi	r22, 0xC8	; 200
    5822:	70 e0       	ldi	r23, 0x00	; 0
    5824:	80 e0       	ldi	r24, 0x00	; 0
    5826:	90 e0       	ldi	r25, 0x00	; 0
    5828:	0e 94 24 03 	call	0x648	; 0x648 <delay>
C:\Users\Ryan\Documents\GitHub\sport_main_code_2023/sport_menu.h:735
        T90 -= 1;
    582c:	81 e0       	ldi	r24, 0x01	; 1
    582e:	e8 1a       	sub	r14, r24
    5830:	f1 08       	sbc	r15, r1
    5832:	ed cf       	rjmp	.-38     	; 0x580e <main+0x1446>
C:\Users\Ryan\Documents\GitHub\sport_main_code_2023/sport_menu.h:737
        EEPROM_write_int(T90_address, T90);
      } else if (start == 0) {
    5834:	86 e0       	ldi	r24, 0x06	; 6
    5836:	0e 94 e3 01 	call	0x3c6	; 0x3c6 <digitalRead>
    583a:	89 2b       	or	r24, r25
    583c:	09 f0       	breq	.+2      	; 0x5840 <main+0x1478>
    583e:	b1 ce       	rjmp	.-670    	; 0x55a2 <main+0x11da>
C:\Users\Ryan\Documents\GitHub\sport_main_code_2023/sport_menu.h:738
        while (start == 0)
    5840:	86 e0       	ldi	r24, 0x06	; 6
    5842:	0e 94 e3 01 	call	0x3c6	; 0x3c6 <digitalRead>
    5846:	89 2b       	or	r24, r25
    5848:	d9 f3       	breq	.-10     	; 0x5840 <main+0x1478>
C:\Users\Ryan\Documents\GitHub\sport_main_code_2023/sport_menu.h:740
          ;
        lcd.clear();
    584a:	0e 94 bf 05 	call	0xb7e	; 0xb7e <LiquidCrystal::clear() [clone .constprop.38]>
C:\Users\Ryan\Documents\GitHub\sport_main_code_2023/sport_menu.h:741
        EEPROM_write_int(T90_address, T90);
    584e:	b7 01       	movw	r22, r14
    5850:	88 e9       	ldi	r24, 0x98	; 152
    5852:	90 e0       	ldi	r25, 0x00	; 0
    5854:	0e 94 0c 0a 	call	0x1418	; 0x1418 <EEPROM_write_int(int, int)>
C:\Users\Ryan\Documents\GitHub\sport_main_code_2023/sport_menu.h:742
        move(Left, T90, 200);
    5858:	48 ec       	ldi	r20, 0xC8	; 200
    585a:	50 e0       	ldi	r21, 0x00	; 0
    585c:	b7 01       	movw	r22, r14
    585e:	8b e0       	ldi	r24, 0x0B	; 11
    5860:	90 e0       	ldi	r25, 0x00	; 0
    5862:	0e 94 35 07 	call	0xe6a	; 0xe6a <move(int, int, int)>
    5866:	9d ce       	rjmp	.-710    	; 0x55a2 <main+0x11da>
C:\Users\Ryan\Documents\GitHub\sport_main_code_2023/sport_menu.h:744
      }
    } else if (page == 3)  // range
    5868:	83 30       	cpi	r24, 0x03	; 3
    586a:	81 f5       	brne	.+96     	; 0x58cc <main+0x1504>
C:\Users\Ryan\Documents\GitHub\sport_main_code_2023/sport_menu.h:746
    {
      if (increase == 0) {
    586c:	8a e0       	ldi	r24, 0x0A	; 10
    586e:	0e 94 e3 01 	call	0x3c6	; 0x3c6 <digitalRead>
    5872:	89 2b       	or	r24, r25
    5874:	a1 f4       	brne	.+40     	; 0x589e <main+0x14d6>
C:\Users\Ryan\Documents\GitHub\sport_main_code_2023/sport_menu.h:747
        delay(100);
    5876:	64 e6       	ldi	r22, 0x64	; 100
    5878:	70 e0       	ldi	r23, 0x00	; 0
    587a:	80 e0       	ldi	r24, 0x00	; 0
    587c:	90 e0       	ldi	r25, 0x00	; 0
    587e:	0e 94 24 03 	call	0x648	; 0x648 <delay>
    5882:	9f ef       	ldi	r25, 0xFF	; 255
    5884:	c9 1a       	sub	r12, r25
    5886:	d9 0a       	sbc	r13, r25
    5888:	e1 e5       	ldi	r30, 0x51	; 81
    588a:	ce 16       	cp	r12, r30
    588c:	d1 04       	cpc	r13, r1
    588e:	1c f0       	brlt	.+6      	; 0x5896 <main+0x14ce>
    5890:	30 e5       	ldi	r19, 0x50	; 80
    5892:	c3 2e       	mov	r12, r19
    5894:	d1 2c       	mov	r13, r1
C:\Users\Ryan\Documents\GitHub\sport_main_code_2023/sport_menu.h:757
      } else if (decrease == 0) {
        delay(100);
        range_value -= 1;
        if (range_value < 5)
          range_value = 5;
        EEPROM_write_int(range_address, range_value);
    5896:	b6 01       	movw	r22, r12
    5898:	8a e9       	ldi	r24, 0x9A	; 154
    589a:	90 e0       	ldi	r25, 0x00	; 0
    589c:	23 cf       	rjmp	.-442    	; 0x56e4 <main+0x131c>
C:\Users\Ryan\Documents\GitHub\sport_main_code_2023/sport_menu.h:752
        delay(100);
        range_value += 1;
        if (range_value > 80)
          range_value = 80;
        EEPROM_write_int(range_address, range_value);
      } else if (decrease == 0) {
    589e:	8b e0       	ldi	r24, 0x0B	; 11
    58a0:	0e 94 e3 01 	call	0x3c6	; 0x3c6 <digitalRead>
    58a4:	89 2b       	or	r24, r25
    58a6:	09 f0       	breq	.+2      	; 0x58aa <main+0x14e2>
    58a8:	7c ce       	rjmp	.-776    	; 0x55a2 <main+0x11da>
C:\Users\Ryan\Documents\GitHub\sport_main_code_2023/sport_menu.h:753
        delay(100);
    58aa:	64 e6       	ldi	r22, 0x64	; 100
    58ac:	70 e0       	ldi	r23, 0x00	; 0
    58ae:	80 e0       	ldi	r24, 0x00	; 0
    58b0:	90 e0       	ldi	r25, 0x00	; 0
    58b2:	0e 94 24 03 	call	0x648	; 0x648 <delay>
    58b6:	f1 e0       	ldi	r31, 0x01	; 1
    58b8:	cf 1a       	sub	r12, r31
    58ba:	d1 08       	sbc	r13, r1
    58bc:	25 e0       	ldi	r18, 0x05	; 5
    58be:	c2 16       	cp	r12, r18
    58c0:	d1 04       	cpc	r13, r1
    58c2:	4c f7       	brge	.-46     	; 0x5896 <main+0x14ce>
    58c4:	25 e0       	ldi	r18, 0x05	; 5
    58c6:	c2 2e       	mov	r12, r18
    58c8:	d1 2c       	mov	r13, r1
    58ca:	e5 cf       	rjmp	.-54     	; 0x5896 <main+0x14ce>
C:\Users\Ryan\Documents\GitHub\sport_main_code_2023/sport_menu.h:759
        range_value -= 1;
        if (range_value < 5)
          range_value = 5;
        EEPROM_write_int(range_address, range_value);
      }
    } else if (page == 4)  // reset memory
    58cc:	84 30       	cpi	r24, 0x04	; 4
    58ce:	d1 f4       	brne	.+52     	; 0x5904 <main+0x153c>
C:\Users\Ryan\Documents\GitHub\sport_main_code_2023/sport_menu.h:761
    {
      if (start == 0) {
    58d0:	86 e0       	ldi	r24, 0x06	; 6
    58d2:	0e 94 e3 01 	call	0x3c6	; 0x3c6 <digitalRead>
    58d6:	5c 01       	movw	r10, r24
    58d8:	89 2b       	or	r24, r25
    58da:	09 f0       	breq	.+2      	; 0x58de <main+0x1516>
    58dc:	62 ce       	rjmp	.-828    	; 0x55a2 <main+0x11da>
C:\Users\Ryan\Documents\GitHub\sport_main_code_2023/sport_menu.h:762
        lcd.clear();
    58de:	0e 94 bf 05 	call	0xb7e	; 0xb7e <LiquidCrystal::clear() [clone .constprop.38]>
C:\Users\Ryan\Documents\GitHub\sport_main_code_2023/sport_menu.h:763
        while (start == 0)
    58e2:	86 e0       	ldi	r24, 0x06	; 6
    58e4:	0e 94 e3 01 	call	0x3c6	; 0x3c6 <digitalRead>
    58e8:	89 2b       	or	r24, r25
    58ea:	d9 f3       	breq	.-10     	; 0x58e2 <main+0x151a>
operator=():
C:\Users\Ryan\AppData\Local\Arduino15\packages\MegaCore\hardware\avr\3.0.3\libraries\EEPROM\src/EEPROM.h:47
    operator uint8_t() const             { return **this; }

    //Assignment/write members.
    EERef &operator=( const EERef &ref ) { return *this = *ref; }
    EERef &operator=( uint8_t in )       { return eeprom_write_byte( (uint8_t*) index, in ), *this;  }
    58ec:	60 e0       	ldi	r22, 0x00	; 0
    58ee:	c5 01       	movw	r24, r10
    58f0:	0e 94 e3 33 	call	0x67c6	; 0x67c6 <eeprom_write_byte>
menu_setup():
C:\Users\Ryan\Documents\GitHub\sport_main_code_2023/sport_menu.h:765
          ;
        for (int i = 0; i < 200; i++)
    58f4:	3f ef       	ldi	r19, 0xFF	; 255
    58f6:	a3 1a       	sub	r10, r19
    58f8:	b3 0a       	sbc	r11, r19
    58fa:	88 ec       	ldi	r24, 0xC8	; 200
    58fc:	a8 16       	cp	r10, r24
    58fe:	b1 04       	cpc	r11, r1
    5900:	a9 f7       	brne	.-22     	; 0x58ec <main+0x1524>
    5902:	4f ce       	rjmp	.-866    	; 0x55a2 <main+0x11da>
C:\Users\Ryan\Documents\GitHub\sport_main_code_2023/sport_menu.h:768
          EEPROM.write(i, 0);
      }
    } else if (page == 5)  // DN
    5904:	85 30       	cpi	r24, 0x05	; 5
    5906:	b1 f4       	brne	.+44     	; 0x5934 <main+0x156c>
C:\Users\Ryan\Documents\GitHub\sport_main_code_2023/sport_menu.h:770
    {
      if (start == 0) {
    5908:	86 e0       	ldi	r24, 0x06	; 6
    590a:	0e 94 e3 01 	call	0x3c6	; 0x3c6 <digitalRead>
    590e:	89 2b       	or	r24, r25
    5910:	09 f0       	breq	.+2      	; 0x5914 <main+0x154c>
    5912:	47 ce       	rjmp	.-882    	; 0x55a2 <main+0x11da>
C:\Users\Ryan\Documents\GitHub\sport_main_code_2023/sport_menu.h:771
        while (start == 0)
    5914:	86 e0       	ldi	r24, 0x06	; 6
    5916:	0e 94 e3 01 	call	0x3c6	; 0x3c6 <digitalRead>
    591a:	89 2b       	or	r24, r25
    591c:	d9 f3       	breq	.-10     	; 0x5914 <main+0x154c>
C:\Users\Ryan\Documents\GitHub\sport_main_code_2023/sport_menu.h:773
          ;
        DN = deg;
    591e:	81 e0       	ldi	r24, 0x01	; 1
    5920:	90 e0       	ldi	r25, 0x00	; 0
    5922:	0e 94 a6 17 	call	0x2f4c	; 0x2f4c <cmps(int)>
    5926:	98 2e       	mov	r9, r24
    5928:	89 2e       	mov	r8, r25
C:\Users\Ryan\Documents\GitHub\sport_main_code_2023/sport_menu.h:774
        EEPROM_write_int(DN_address, DN);
    592a:	68 2f       	mov	r22, r24
    592c:	79 2f       	mov	r23, r25
    592e:	8c e9       	ldi	r24, 0x9C	; 156
    5930:	90 e0       	ldi	r25, 0x00	; 0
    5932:	d8 ce       	rjmp	.-592    	; 0x56e4 <main+0x131c>
C:\Users\Ryan\Documents\GitHub\sport_main_code_2023/sport_menu.h:776
      }
    } else if (page == 6)  // DE
    5934:	86 30       	cpi	r24, 0x06	; 6
    5936:	a9 f4       	brne	.+42     	; 0x5962 <main+0x159a>
C:\Users\Ryan\Documents\GitHub\sport_main_code_2023/sport_menu.h:778
    {
      if (start == 0) {
    5938:	0e 94 e3 01 	call	0x3c6	; 0x3c6 <digitalRead>
    593c:	89 2b       	or	r24, r25
    593e:	09 f0       	breq	.+2      	; 0x5942 <main+0x157a>
    5940:	30 ce       	rjmp	.-928    	; 0x55a2 <main+0x11da>
C:\Users\Ryan\Documents\GitHub\sport_main_code_2023/sport_menu.h:779
        while (start == 0)
    5942:	86 e0       	ldi	r24, 0x06	; 6
    5944:	0e 94 e3 01 	call	0x3c6	; 0x3c6 <digitalRead>
    5948:	89 2b       	or	r24, r25
    594a:	d9 f3       	breq	.-10     	; 0x5942 <main+0x157a>
C:\Users\Ryan\Documents\GitHub\sport_main_code_2023/sport_menu.h:781
          ;
        DE = deg;
    594c:	81 e0       	ldi	r24, 0x01	; 1
    594e:	90 e0       	ldi	r25, 0x00	; 0
    5950:	0e 94 a6 17 	call	0x2f4c	; 0x2f4c <cmps(int)>
    5954:	78 2e       	mov	r7, r24
    5956:	69 2e       	mov	r6, r25
C:\Users\Ryan\Documents\GitHub\sport_main_code_2023/sport_menu.h:782
        EEPROM_write_int(DE_address, DE);
    5958:	68 2f       	mov	r22, r24
    595a:	79 2f       	mov	r23, r25
    595c:	8e e9       	ldi	r24, 0x9E	; 158
    595e:	90 e0       	ldi	r25, 0x00	; 0
    5960:	c1 ce       	rjmp	.-638    	; 0x56e4 <main+0x131c>
C:\Users\Ryan\Documents\GitHub\sport_main_code_2023/sport_menu.h:784
      }
    } else if (page == 7)  // DS
    5962:	87 30       	cpi	r24, 0x07	; 7
    5964:	b1 f4       	brne	.+44     	; 0x5992 <main+0x15ca>
C:\Users\Ryan\Documents\GitHub\sport_main_code_2023/sport_menu.h:786
    {
      if (start == 0) {
    5966:	86 e0       	ldi	r24, 0x06	; 6
    5968:	0e 94 e3 01 	call	0x3c6	; 0x3c6 <digitalRead>
    596c:	89 2b       	or	r24, r25
    596e:	09 f0       	breq	.+2      	; 0x5972 <main+0x15aa>
    5970:	18 ce       	rjmp	.-976    	; 0x55a2 <main+0x11da>
C:\Users\Ryan\Documents\GitHub\sport_main_code_2023/sport_menu.h:787
        while (start == 0)
    5972:	86 e0       	ldi	r24, 0x06	; 6
    5974:	0e 94 e3 01 	call	0x3c6	; 0x3c6 <digitalRead>
    5978:	89 2b       	or	r24, r25
    597a:	d9 f3       	breq	.-10     	; 0x5972 <main+0x15aa>
C:\Users\Ryan\Documents\GitHub\sport_main_code_2023/sport_menu.h:789
          ;
        DS = deg;
    597c:	81 e0       	ldi	r24, 0x01	; 1
    597e:	90 e0       	ldi	r25, 0x00	; 0
    5980:	0e 94 a6 17 	call	0x2f4c	; 0x2f4c <cmps(int)>
    5984:	58 2e       	mov	r5, r24
    5986:	49 2e       	mov	r4, r25
C:\Users\Ryan\Documents\GitHub\sport_main_code_2023/sport_menu.h:790
        EEPROM_write_int(DS_address, DS);
    5988:	68 2f       	mov	r22, r24
    598a:	79 2f       	mov	r23, r25
    598c:	80 ea       	ldi	r24, 0xA0	; 160
    598e:	90 e0       	ldi	r25, 0x00	; 0
    5990:	a9 ce       	rjmp	.-686    	; 0x56e4 <main+0x131c>
C:\Users\Ryan\Documents\GitHub\sport_main_code_2023/sport_menu.h:792
      }
    } else if (page == 8)  // DW
    5992:	88 30       	cpi	r24, 0x08	; 8
    5994:	09 f0       	breq	.+2      	; 0x5998 <main+0x15d0>
    5996:	05 ce       	rjmp	.-1014   	; 0x55a2 <main+0x11da>
C:\Users\Ryan\Documents\GitHub\sport_main_code_2023/sport_menu.h:794
    {
      if (start == 0) {
    5998:	86 e0       	ldi	r24, 0x06	; 6
    599a:	0e 94 e3 01 	call	0x3c6	; 0x3c6 <digitalRead>
    599e:	89 2b       	or	r24, r25
    59a0:	09 f0       	breq	.+2      	; 0x59a4 <main+0x15dc>
    59a2:	ff cd       	rjmp	.-1026   	; 0x55a2 <main+0x11da>
C:\Users\Ryan\Documents\GitHub\sport_main_code_2023/sport_menu.h:795
        while (start == 0)
    59a4:	86 e0       	ldi	r24, 0x06	; 6
    59a6:	0e 94 e3 01 	call	0x3c6	; 0x3c6 <digitalRead>
    59aa:	89 2b       	or	r24, r25
    59ac:	d9 f3       	breq	.-10     	; 0x59a4 <main+0x15dc>
C:\Users\Ryan\Documents\GitHub\sport_main_code_2023/sport_menu.h:798
          ;
        ev_s_ball = 0;
        EEPROM_write_int(DW_address, ev_s_ball);
    59ae:	70 e0       	ldi	r23, 0x00	; 0
    59b0:	60 e0       	ldi	r22, 0x00	; 0
    59b2:	82 ea       	ldi	r24, 0xA2	; 162
    59b4:	90 e0       	ldi	r25, 0x00	; 0
    59b6:	0e 94 0c 0a 	call	0x1418	; 0x1418 <EEPROM_write_int(int, int)>
main():
C:\Users\Ryan\Documents\GitHub\sport_main_code_2023/sport_menu.h:797
    } else if (page == 8)  // DW
    {
      if (start == 0) {
        while (start == 0)
          ;
        ev_s_ball = 0;
    59ba:	21 2c       	mov	r2, r1
    59bc:	31 2c       	mov	r3, r1
    59be:	f1 cd       	rjmp	.-1054   	; 0x55a2 <main+0x11da>
menu():
C:\Users\Ryan\Documents\GitHub\sport_main_code_2023/sport_menu.h:1424
      if (start == 0) {
        while (start == 0)
          ;
        menu_setup();
      }
    } else if (page == 4)  // Test Color
    59c0:	84 30       	cpi	r24, 0x04	; 4
    59c2:	81 f4       	brne	.+32     	; 0x59e4 <main+0x161c>
C:\Users\Ryan\Documents\GitHub\sport_main_code_2023/sport_menu.h:1426
    {
      if (start == 0) {
    59c4:	86 e0       	ldi	r24, 0x06	; 6
    59c6:	0e 94 e3 01 	call	0x3c6	; 0x3c6 <digitalRead>
    59ca:	89 2b       	or	r24, r25
    59cc:	11 f0       	breq	.+4      	; 0x59d2 <main+0x160a>
    59ce:	0c 94 d6 23 	jmp	0x47ac	; 0x47ac <main+0x3e4>
C:\Users\Ryan\Documents\GitHub\sport_main_code_2023/sport_menu.h:1427
        lcd.clear();
    59d2:	0e 94 bf 05 	call	0xb7e	; 0xb7e <LiquidCrystal::clear() [clone .constprop.38]>
C:\Users\Ryan\Documents\GitHub\sport_main_code_2023/sport_menu.h:1428
        while (start == 0)
    59d6:	86 e0       	ldi	r24, 0x06	; 6
    59d8:	0e 94 e3 01 	call	0x3c6	; 0x3c6 <digitalRead>
    59dc:	89 2b       	or	r24, r25
    59de:	d9 f3       	breq	.-10     	; 0x59d6 <main+0x160e>
C:\Users\Ryan\Documents\GitHub\sport_main_code_2023/sport_menu.h:1430
          ;
        menu_color();
    59e0:	0e 94 41 1b 	call	0x3682	; 0x3682 <menu_color()>
C:\Users\Ryan\Documents\GitHub\sport_main_code_2023/sport_menu.h:1432
      }
    } else if (page == 5)  // Test Motor
    59e4:	85 30       	cpi	r24, 0x05	; 5
    59e6:	71 f4       	brne	.+28     	; 0x5a04 <main+0x163c>
C:\Users\Ryan\Documents\GitHub\sport_main_code_2023/sport_menu.h:1434
    {
      if (start == 0) {
    59e8:	86 e0       	ldi	r24, 0x06	; 6
    59ea:	0e 94 e3 01 	call	0x3c6	; 0x3c6 <digitalRead>
    59ee:	89 2b       	or	r24, r25
    59f0:	11 f0       	breq	.+4      	; 0x59f6 <main+0x162e>
    59f2:	0c 94 d6 23 	jmp	0x47ac	; 0x47ac <main+0x3e4>
C:\Users\Ryan\Documents\GitHub\sport_main_code_2023/sport_menu.h:1435
        while (start == 0)
    59f6:	86 e0       	ldi	r24, 0x06	; 6
    59f8:	0e 94 e3 01 	call	0x3c6	; 0x3c6 <digitalRead>
    59fc:	89 2b       	or	r24, r25
    59fe:	d9 f3       	breq	.-10     	; 0x59f6 <main+0x162e>
C:\Users\Ryan\Documents\GitHub\sport_main_code_2023/sport_menu.h:1437
          ;
        menu_motor();
    5a00:	0e 94 1f 18 	call	0x303e	; 0x303e <menu_motor()>
C:\Users\Ryan\Documents\GitHub\sport_main_code_2023/sport_menu.h:1439
      }
    } else if (page == 6)  // color calibration
    5a04:	86 30       	cpi	r24, 0x06	; 6
    5a06:	11 f0       	breq	.+4      	; 0x5a0c <main+0x1644>
    5a08:	0c 94 d6 23 	jmp	0x47ac	; 0x47ac <main+0x3e4>
C:\Users\Ryan\Documents\GitHub\sport_main_code_2023/sport_menu.h:1441
    {
      if (start == 0) {
    5a0c:	0e 94 e3 01 	call	0x3c6	; 0x3c6 <digitalRead>
    5a10:	89 2b       	or	r24, r25
    5a12:	11 f0       	breq	.+4      	; 0x5a18 <main+0x1650>
    5a14:	0c 94 d6 23 	jmp	0x47ac	; 0x47ac <main+0x3e4>
C:\Users\Ryan\Documents\GitHub\sport_main_code_2023/sport_menu.h:1442
        lcd.clear();
    5a18:	0e 94 bf 05 	call	0xb7e	; 0xb7e <LiquidCrystal::clear() [clone .constprop.38]>
C:\Users\Ryan\Documents\GitHub\sport_main_code_2023/sport_menu.h:1443
        while (start == 0)
    5a1c:	86 e0       	ldi	r24, 0x06	; 6
    5a1e:	0e 94 e3 01 	call	0x3c6	; 0x3c6 <digitalRead>
    5a22:	89 2b       	or	r24, r25
    5a24:	d9 f3       	breq	.-10     	; 0x5a1c <main+0x1654>
C:\Users\Ryan\Documents\GitHub\sport_main_code_2023/sport_menu.h:1445
          ;
        delay(200);
    5a26:	68 ec       	ldi	r22, 0xC8	; 200
    5a28:	70 e0       	ldi	r23, 0x00	; 0
    5a2a:	80 e0       	ldi	r24, 0x00	; 0
    5a2c:	90 e0       	ldi	r25, 0x00	; 0
    5a2e:	0e 94 24 03 	call	0x648	; 0x648 <delay>
color_calib():
C:\Users\Ryan\Documents\GitHub\sport_main_code_2023/sport_menu.h:410

void color_calib(void) {
  static char page = 1, last_page = 12;
  char red_l_calibrated = 0, red_r_calibrated = 0, grn_l_calibrated = 0, grn_r_calibrated = 0, blu_l_calibrated = 0, blu_r_calibrated = 0, yel_l_calibrated = 0, yel_r_calibrated = 0, sil_l_calibrated = 0, sil_r_calibrated = 0, red_f_calibrated = 0, grn_f_calibrated = 0;

  lcd.clear();
    5a32:	0e 94 bf 05 	call	0xb7e	; 0xb7e <LiquidCrystal::clear() [clone .constprop.38]>
main():
C:\Users\Ryan\Documents\GitHub\sport_main_code_2023/sport_menu.h:408
  // delay(5);
}

void color_calib(void) {
  static char page = 1, last_page = 12;
  char red_l_calibrated = 0, red_r_calibrated = 0, grn_l_calibrated = 0, grn_r_calibrated = 0, blu_l_calibrated = 0, blu_r_calibrated = 0, yel_l_calibrated = 0, yel_r_calibrated = 0, sil_l_calibrated = 0, sil_r_calibrated = 0, red_f_calibrated = 0, grn_f_calibrated = 0;
    5a36:	81 2c       	mov	r8, r1
    5a38:	c0 e0       	ldi	r28, 0x00	; 0
    5a3a:	91 2c       	mov	r9, r1
    5a3c:	a1 2c       	mov	r10, r1
    5a3e:	b1 2c       	mov	r11, r1
    5a40:	c1 2c       	mov	r12, r1
    5a42:	d1 2c       	mov	r13, r1
    5a44:	e1 2c       	mov	r14, r1
    5a46:	f1 2c       	mov	r15, r1
    5a48:	00 e0       	ldi	r16, 0x00	; 0
    5a4a:	10 e0       	ldi	r17, 0x00	; 0
    5a4c:	d0 e0       	ldi	r29, 0x00	; 0
color_calib():
C:\Users\Ryan\Documents\GitHub\sport_main_code_2023/sport_menu.h:417
    if (next_page == 0) {
      while (next_page == 0)
        ;
      page++;
      if (page > last_page)
        page = 1;
    5a4e:	77 24       	eor	r7, r7
    5a50:	73 94       	inc	r7
C:\Users\Ryan\Documents\GitHub\sport_main_code_2023/sport_menu.h:426
    if (previuse_page == 0) {
      while (previuse_page == 0)
        ;
      page--;
      if (page < 1)
        page = last_page;
    5a52:	9c e0       	ldi	r25, 0x0C	; 12
    5a54:	69 2e       	mov	r6, r25
C:\Users\Ryan\Documents\GitHub\sport_main_code_2023/sport_menu.h:412
  static char page = 1, last_page = 12;
  char red_l_calibrated = 0, red_r_calibrated = 0, grn_l_calibrated = 0, grn_r_calibrated = 0, blu_l_calibrated = 0, blu_r_calibrated = 0, yel_l_calibrated = 0, yel_r_calibrated = 0, sil_l_calibrated = 0, sil_r_calibrated = 0, red_f_calibrated = 0, grn_f_calibrated = 0;

  lcd.clear();
  while (1) {
    if (next_page == 0) {
    5a56:	88 e0       	ldi	r24, 0x08	; 8
    5a58:	0e 94 e3 01 	call	0x3c6	; 0x3c6 <digitalRead>
    5a5c:	89 2b       	or	r24, r25
    5a5e:	79 f4       	brne	.+30     	; 0x5a7e <main+0x16b6>
C:\Users\Ryan\Documents\GitHub\sport_main_code_2023/sport_menu.h:413
      while (next_page == 0)
    5a60:	88 e0       	ldi	r24, 0x08	; 8
    5a62:	0e 94 e3 01 	call	0x3c6	; 0x3c6 <digitalRead>
    5a66:	89 2b       	or	r24, r25
    5a68:	d9 f3       	breq	.-10     	; 0x5a60 <main+0x1698>
C:\Users\Ryan\Documents\GitHub\sport_main_code_2023/sport_menu.h:415
        ;
      page++;
    5a6a:	80 91 04 01 	lds	r24, 0x0104	; 0x800104 <color_calib()::page>
    5a6e:	8f 5f       	subi	r24, 0xFF	; 255
C:\Users\Ryan\Documents\GitHub\sport_main_code_2023/sport_menu.h:416
      if (page > last_page)
    5a70:	8d 30       	cpi	r24, 0x0D	; 13
    5a72:	0c f0       	brlt	.+2      	; 0x5a76 <main+0x16ae>
    5a74:	9d c0       	rjmp	.+314    	; 0x5bb0 <main+0x17e8>
C:\Users\Ryan\Documents\GitHub\sport_main_code_2023/sport_menu.h:415
  lcd.clear();
  while (1) {
    if (next_page == 0) {
      while (next_page == 0)
        ;
      page++;
    5a76:	80 93 04 01 	sts	0x0104, r24	; 0x800104 <color_calib()::page>
C:\Users\Ryan\Documents\GitHub\sport_main_code_2023/sport_menu.h:418
      if (page > last_page)
        page = 1;
      lcd.clear();
    5a7a:	0e 94 bf 05 	call	0xb7e	; 0xb7e <LiquidCrystal::clear() [clone .constprop.38]>
C:\Users\Ryan\Documents\GitHub\sport_main_code_2023/sport_menu.h:421
    }

    if (previuse_page == 0) {
    5a7e:	89 e0       	ldi	r24, 0x09	; 9
    5a80:	0e 94 e3 01 	call	0x3c6	; 0x3c6 <digitalRead>
    5a84:	89 2b       	or	r24, r25
    5a86:	79 f4       	brne	.+30     	; 0x5aa6 <main+0x16de>
C:\Users\Ryan\Documents\GitHub\sport_main_code_2023/sport_menu.h:422
      while (previuse_page == 0)
    5a88:	89 e0       	ldi	r24, 0x09	; 9
    5a8a:	0e 94 e3 01 	call	0x3c6	; 0x3c6 <digitalRead>
    5a8e:	89 2b       	or	r24, r25
    5a90:	d9 f3       	breq	.-10     	; 0x5a88 <main+0x16c0>
C:\Users\Ryan\Documents\GitHub\sport_main_code_2023/sport_menu.h:424
        ;
      page--;
    5a92:	80 91 04 01 	lds	r24, 0x0104	; 0x800104 <color_calib()::page>
    5a96:	81 50       	subi	r24, 0x01	; 1
C:\Users\Ryan\Documents\GitHub\sport_main_code_2023/sport_menu.h:425
      if (page < 1)
    5a98:	18 16       	cp	r1, r24
    5a9a:	0c f0       	brlt	.+2      	; 0x5a9e <main+0x16d6>
    5a9c:	8c c0       	rjmp	.+280    	; 0x5bb6 <main+0x17ee>
C:\Users\Ryan\Documents\GitHub\sport_main_code_2023/sport_menu.h:424
    }

    if (previuse_page == 0) {
      while (previuse_page == 0)
        ;
      page--;
    5a9e:	80 93 04 01 	sts	0x0104, r24	; 0x800104 <color_calib()::page>
C:\Users\Ryan\Documents\GitHub\sport_main_code_2023/sport_menu.h:427
      if (page < 1)
        page = last_page;
      lcd.clear();
    5aa2:	0e 94 bf 05 	call	0xb7e	; 0xb7e <LiquidCrystal::clear() [clone .constprop.38]>
C:\Users\Ryan\Documents\GitHub\sport_main_code_2023/sport_menu.h:430
    }

    if (start == 0) {
    5aa6:	86 e0       	ldi	r24, 0x06	; 6
    5aa8:	0e 94 e3 01 	call	0x3c6	; 0x3c6 <digitalRead>
    5aac:	89 2b       	or	r24, r25
    5aae:	41 f4       	brne	.+16     	; 0x5ac0 <main+0x16f8>
C:\Users\Ryan\Documents\GitHub\sport_main_code_2023/sport_menu.h:431
      lcd.clear();
    5ab0:	0e 94 bf 05 	call	0xb7e	; 0xb7e <LiquidCrystal::clear() [clone .constprop.38]>
C:\Users\Ryan\Documents\GitHub\sport_main_code_2023/sport_menu.h:432
      delay(200);
    5ab4:	68 ec       	ldi	r22, 0xC8	; 200
    5ab6:	70 e0       	ldi	r23, 0x00	; 0
    5ab8:	80 e0       	ldi	r24, 0x00	; 0
    5aba:	90 e0       	ldi	r25, 0x00	; 0
    5abc:	0e 94 24 03 	call	0x648	; 0x648 <delay>
C:\Users\Ryan\Documents\GitHub\sport_main_code_2023/sport_menu.h:435
    }  // baraye inke age 2 bar khastim calib konim motevajeh beshim

    if (page <= 4) {
    5ac0:	80 91 04 01 	lds	r24, 0x0104	; 0x800104 <color_calib()::page>
C:\Users\Ryan\Documents\GitHub\sport_main_code_2023/sport_menu.h:436
      lcd.setCursor(3, 0);
    5ac4:	60 e0       	ldi	r22, 0x00	; 0
C:\Users\Ryan\Documents\GitHub\sport_main_code_2023/sport_menu.h:435
    if (start == 0) {
      lcd.clear();
      delay(200);
    }  // baraye inke age 2 bar khastim calib konim motevajeh beshim

    if (page <= 4) {
    5ac6:	85 30       	cpi	r24, 0x05	; 5
    5ac8:	0c f0       	brlt	.+2      	; 0x5acc <main+0x1704>
    5aca:	78 c0       	rjmp	.+240    	; 0x5bbc <main+0x17f4>
C:\Users\Ryan\Documents\GitHub\sport_main_code_2023/sport_menu.h:436
      lcd.setCursor(3, 0);
    5acc:	83 e0       	ldi	r24, 0x03	; 3
    5ace:	0e 94 67 06 	call	0xcce	; 0xcce <LiquidCrystal::setCursor(unsigned char, unsigned char) [clone .constprop.27]>
C:\Users\Ryan\Documents\GitHub\sport_main_code_2023/sport_menu.h:437
      lcd.print("RED left    ");
    5ad2:	81 e9       	ldi	r24, 0x91	; 145
    5ad4:	97 e0       	ldi	r25, 0x07	; 7
    5ad6:	0e 94 ff 09 	call	0x13fe	; 0x13fe <Print::print(char const*) [clone .constprop.9]>
C:\Users\Ryan\Documents\GitHub\sport_main_code_2023/sport_menu.h:438
      if (red_l_calibrated == 1)
    5ada:	d1 30       	cpi	r29, 0x01	; 1
    5adc:	21 f4       	brne	.+8      	; 0x5ae6 <main+0x171e>
C:\Users\Ryan\Documents\GitHub\sport_main_code_2023/sport_menu.h:439
        lcd.print("done");
    5ade:	8e e9       	ldi	r24, 0x9E	; 158
    5ae0:	97 e0       	ldi	r25, 0x07	; 7
    5ae2:	0e 94 ff 09 	call	0x13fe	; 0x13fe <Print::print(char const*) [clone .constprop.9]>
C:\Users\Ryan\Documents\GitHub\sport_main_code_2023/sport_menu.h:441

      lcd.setCursor(3, 1);
    5ae6:	61 e0       	ldi	r22, 0x01	; 1
    5ae8:	83 e0       	ldi	r24, 0x03	; 3
    5aea:	0e 94 67 06 	call	0xcce	; 0xcce <LiquidCrystal::setCursor(unsigned char, unsigned char) [clone .constprop.27]>
C:\Users\Ryan\Documents\GitHub\sport_main_code_2023/sport_menu.h:442
      lcd.print("RED right   ");
    5aee:	83 ea       	ldi	r24, 0xA3	; 163
    5af0:	97 e0       	ldi	r25, 0x07	; 7
    5af2:	0e 94 ff 09 	call	0x13fe	; 0x13fe <Print::print(char const*) [clone .constprop.9]>
C:\Users\Ryan\Documents\GitHub\sport_main_code_2023/sport_menu.h:443
      if (red_r_calibrated == 1)
    5af6:	11 30       	cpi	r17, 0x01	; 1
    5af8:	21 f4       	brne	.+8      	; 0x5b02 <main+0x173a>
C:\Users\Ryan\Documents\GitHub\sport_main_code_2023/sport_menu.h:444
        lcd.print("done");
    5afa:	8e e9       	ldi	r24, 0x9E	; 158
    5afc:	97 e0       	ldi	r25, 0x07	; 7
    5afe:	0e 94 ff 09 	call	0x13fe	; 0x13fe <Print::print(char const*) [clone .constprop.9]>
C:\Users\Ryan\Documents\GitHub\sport_main_code_2023/sport_menu.h:446

      lcd.setCursor(3, 2);
    5b02:	62 e0       	ldi	r22, 0x02	; 2
    5b04:	83 e0       	ldi	r24, 0x03	; 3
    5b06:	0e 94 67 06 	call	0xcce	; 0xcce <LiquidCrystal::setCursor(unsigned char, unsigned char) [clone .constprop.27]>
C:\Users\Ryan\Documents\GitHub\sport_main_code_2023/sport_menu.h:447
      lcd.print("Green left  ");
    5b0a:	80 eb       	ldi	r24, 0xB0	; 176
    5b0c:	97 e0       	ldi	r25, 0x07	; 7
    5b0e:	0e 94 ff 09 	call	0x13fe	; 0x13fe <Print::print(char const*) [clone .constprop.9]>
C:\Users\Ryan\Documents\GitHub\sport_main_code_2023/sport_menu.h:448
      if (grn_l_calibrated == 1)
    5b12:	01 30       	cpi	r16, 0x01	; 1
    5b14:	21 f4       	brne	.+8      	; 0x5b1e <main+0x1756>
C:\Users\Ryan\Documents\GitHub\sport_main_code_2023/sport_menu.h:449
        lcd.print("done");
    5b16:	8e e9       	ldi	r24, 0x9E	; 158
    5b18:	97 e0       	ldi	r25, 0x07	; 7
    5b1a:	0e 94 ff 09 	call	0x13fe	; 0x13fe <Print::print(char const*) [clone .constprop.9]>
C:\Users\Ryan\Documents\GitHub\sport_main_code_2023/sport_menu.h:451

      lcd.setCursor(3, 3);
    5b1e:	63 e0       	ldi	r22, 0x03	; 3
    5b20:	83 e0       	ldi	r24, 0x03	; 3
    5b22:	0e 94 67 06 	call	0xcce	; 0xcce <LiquidCrystal::setCursor(unsigned char, unsigned char) [clone .constprop.27]>
C:\Users\Ryan\Documents\GitHub\sport_main_code_2023/sport_menu.h:452
      lcd.print("Green right ");
    5b26:	8d eb       	ldi	r24, 0xBD	; 189
    5b28:	97 e0       	ldi	r25, 0x07	; 7
    5b2a:	0e 94 ff 09 	call	0x13fe	; 0x13fe <Print::print(char const*) [clone .constprop.9]>
C:\Users\Ryan\Documents\GitHub\sport_main_code_2023/sport_menu.h:453
      if (grn_r_calibrated == 1)
    5b2e:	91 e0       	ldi	r25, 0x01	; 1
    5b30:	f9 12       	cpse	r15, r25
    5b32:	04 c0       	rjmp	.+8      	; 0x5b3c <main+0x1774>
C:\Users\Ryan\Documents\GitHub\sport_main_code_2023/sport_menu.h:454
        lcd.print("done");
    5b34:	8e e9       	ldi	r24, 0x9E	; 158
    5b36:	97 e0       	ldi	r25, 0x07	; 7
    5b38:	0e 94 ff 09 	call	0x13fe	; 0x13fe <Print::print(char const*) [clone .constprop.9]>
C:\Users\Ryan\Documents\GitHub\sport_main_code_2023/sport_menu.h:456

      lcd.setCursor(0, page - 1);
    5b3c:	60 91 04 01 	lds	r22, 0x0104	; 0x800104 <color_calib()::page>
    5b40:	61 50       	subi	r22, 0x01	; 1
C:\Users\Ryan\Documents\GitHub\sport_main_code_2023/sport_menu.h:502
      lcd.setCursor(3, 3);
      lcd.print("Red Front");
      if (red_f_calibrated == 1)
        lcd.print("done");

      lcd.setCursor(0, page - 9);
    5b42:	80 e0       	ldi	r24, 0x00	; 0
    5b44:	0e 94 67 06 	call	0xcce	; 0xcce <LiquidCrystal::setCursor(unsigned char, unsigned char) [clone .constprop.27]>
C:\Users\Ryan\Documents\GitHub\sport_main_code_2023/sport_menu.h:503
      lcd.print("-> ");
    5b48:	8a ec       	ldi	r24, 0xCA	; 202
    5b4a:	97 e0       	ldi	r25, 0x07	; 7
    5b4c:	0e 94 ff 09 	call	0x13fe	; 0x13fe <Print::print(char const*) [clone .constprop.9]>
C:\Users\Ryan\Documents\GitHub\sport_main_code_2023/sport_menu.h:506
    }

    if (page == 1)  // -> red left
    5b50:	80 91 04 01 	lds	r24, 0x0104	; 0x800104 <color_calib()::page>
    5b54:	81 30       	cpi	r24, 0x01	; 1
    5b56:	09 f0       	breq	.+2      	; 0x5b5a <main+0x1792>
    5b58:	b1 c0       	rjmp	.+354    	; 0x5cbc <main+0x18f4>
C:\Users\Ryan\Documents\GitHub\sport_main_code_2023/sport_menu.h:508
    {
      if (start == 0) {
    5b5a:	86 e0       	ldi	r24, 0x06	; 6
    5b5c:	0e 94 e3 01 	call	0x3c6	; 0x3c6 <digitalRead>
    5b60:	89 2b       	or	r24, r25
    5b62:	09 f0       	breq	.+2      	; 0x5b66 <main+0x179e>
    5b64:	78 cf       	rjmp	.-272    	; 0x5a56 <main+0x168e>
C:\Users\Ryan\Documents\GitHub\sport_main_code_2023/sport_menu.h:509
        color_L;
    5b66:	81 e0       	ldi	r24, 0x01	; 1
    5b68:	0e 94 32 0a 	call	0x1464	; 0x1464 <color(char)>
C:\Users\Ryan\Documents\GitHub\sport_main_code_2023/sport_menu.h:514
        // EEPROM_read_int(red_left_r) = red;
        // EEPROM_read_int(red_left_g) = green;
        // EEPROM_read_int(red_left_b) = blue;
        // EEPROM_read_int(red_left_c) = clear;
        EEPROM_write_int(red_left_r, red);
    5b6c:	60 91 cb 08 	lds	r22, 0x08CB	; 0x8008cb <red>
    5b70:	70 91 cc 08 	lds	r23, 0x08CC	; 0x8008cc <red+0x1>
    5b74:	84 e1       	ldi	r24, 0x14	; 20
    5b76:	90 e0       	ldi	r25, 0x00	; 0
    5b78:	0e 94 0c 0a 	call	0x1418	; 0x1418 <EEPROM_write_int(int, int)>
C:\Users\Ryan\Documents\GitHub\sport_main_code_2023/sport_menu.h:515
        EEPROM_write_int(red_left_g, green);
    5b7c:	60 91 c9 08 	lds	r22, 0x08C9	; 0x8008c9 <green>
    5b80:	70 91 ca 08 	lds	r23, 0x08CA	; 0x8008ca <green+0x1>
    5b84:	86 e1       	ldi	r24, 0x16	; 22
    5b86:	90 e0       	ldi	r25, 0x00	; 0
    5b88:	0e 94 0c 0a 	call	0x1418	; 0x1418 <EEPROM_write_int(int, int)>
C:\Users\Ryan\Documents\GitHub\sport_main_code_2023/sport_menu.h:516
        EEPROM_write_int(red_left_b, blue);
    5b8c:	60 91 c7 08 	lds	r22, 0x08C7	; 0x8008c7 <blue>
    5b90:	70 91 c8 08 	lds	r23, 0x08C8	; 0x8008c8 <blue+0x1>
    5b94:	88 e1       	ldi	r24, 0x18	; 24
    5b96:	90 e0       	ldi	r25, 0x00	; 0
    5b98:	0e 94 0c 0a 	call	0x1418	; 0x1418 <EEPROM_write_int(int, int)>
C:\Users\Ryan\Documents\GitHub\sport_main_code_2023/sport_menu.h:517
        EEPROM_write_int(red_left_c, clear);
    5b9c:	60 91 c5 08 	lds	r22, 0x08C5	; 0x8008c5 <clear>
    5ba0:	70 91 c6 08 	lds	r23, 0x08C6	; 0x8008c6 <clear+0x1>
    5ba4:	8a e1       	ldi	r24, 0x1A	; 26
    5ba6:	90 e0       	ldi	r25, 0x00	; 0
    5ba8:	0e 94 0c 0a 	call	0x1418	; 0x1418 <EEPROM_write_int(int, int)>
main():
C:\Users\Ryan\Documents\GitHub\sport_main_code_2023/sport_menu.h:518
        red_l_calibrated = 1;
    5bac:	d1 e0       	ldi	r29, 0x01	; 1
    5bae:	53 cf       	rjmp	.-346    	; 0x5a56 <main+0x168e>
color_calib():
C:\Users\Ryan\Documents\GitHub\sport_main_code_2023/sport_menu.h:417
    if (next_page == 0) {
      while (next_page == 0)
        ;
      page++;
      if (page > last_page)
        page = 1;
    5bb0:	70 92 04 01 	sts	0x0104, r7	; 0x800104 <color_calib()::page>
    5bb4:	62 cf       	rjmp	.-316    	; 0x5a7a <main+0x16b2>
C:\Users\Ryan\Documents\GitHub\sport_main_code_2023/sport_menu.h:426
    if (previuse_page == 0) {
      while (previuse_page == 0)
        ;
      page--;
      if (page < 1)
        page = last_page;
    5bb6:	60 92 04 01 	sts	0x0104, r6	; 0x800104 <color_calib()::page>
    5bba:	73 cf       	rjmp	.-282    	; 0x5aa2 <main+0x16da>
C:\Users\Ryan\Documents\GitHub\sport_main_code_2023/sport_menu.h:458
      if (grn_r_calibrated == 1)
        lcd.print("done");

      lcd.setCursor(0, page - 1);
      lcd.print("-> ");
    } else if (page <= 8) {
    5bbc:	89 30       	cpi	r24, 0x09	; 9
    5bbe:	0c f0       	brlt	.+2      	; 0x5bc2 <main+0x17fa>
    5bc0:	3f c0       	rjmp	.+126    	; 0x5c40 <main+0x1878>
C:\Users\Ryan\Documents\GitHub\sport_main_code_2023/sport_menu.h:459
      lcd.setCursor(3, 0);
    5bc2:	83 e0       	ldi	r24, 0x03	; 3
    5bc4:	0e 94 67 06 	call	0xcce	; 0xcce <LiquidCrystal::setCursor(unsigned char, unsigned char) [clone .constprop.27]>
C:\Users\Ryan\Documents\GitHub\sport_main_code_2023/sport_menu.h:460
      lcd.print("BLUE left   ");
    5bc8:	8e ec       	ldi	r24, 0xCE	; 206
    5bca:	97 e0       	ldi	r25, 0x07	; 7
    5bcc:	0e 94 ff 09 	call	0x13fe	; 0x13fe <Print::print(char const*) [clone .constprop.9]>
C:\Users\Ryan\Documents\GitHub\sport_main_code_2023/sport_menu.h:461
      if (blu_l_calibrated == 1)
    5bd0:	e1 e0       	ldi	r30, 0x01	; 1
    5bd2:	ee 12       	cpse	r14, r30
    5bd4:	04 c0       	rjmp	.+8      	; 0x5bde <main+0x1816>
C:\Users\Ryan\Documents\GitHub\sport_main_code_2023/sport_menu.h:462
        lcd.print("done");
    5bd6:	8e e9       	ldi	r24, 0x9E	; 158
    5bd8:	97 e0       	ldi	r25, 0x07	; 7
    5bda:	0e 94 ff 09 	call	0x13fe	; 0x13fe <Print::print(char const*) [clone .constprop.9]>
C:\Users\Ryan\Documents\GitHub\sport_main_code_2023/sport_menu.h:464

      lcd.setCursor(3, 1);
    5bde:	61 e0       	ldi	r22, 0x01	; 1
    5be0:	83 e0       	ldi	r24, 0x03	; 3
    5be2:	0e 94 67 06 	call	0xcce	; 0xcce <LiquidCrystal::setCursor(unsigned char, unsigned char) [clone .constprop.27]>
C:\Users\Ryan\Documents\GitHub\sport_main_code_2023/sport_menu.h:465
      lcd.print("BLUE right  ");
    5be6:	8b ed       	ldi	r24, 0xDB	; 219
    5be8:	97 e0       	ldi	r25, 0x07	; 7
    5bea:	0e 94 ff 09 	call	0x13fe	; 0x13fe <Print::print(char const*) [clone .constprop.9]>
C:\Users\Ryan\Documents\GitHub\sport_main_code_2023/sport_menu.h:466
      if (blu_r_calibrated == 1)
    5bee:	f1 e0       	ldi	r31, 0x01	; 1
    5bf0:	df 12       	cpse	r13, r31
    5bf2:	04 c0       	rjmp	.+8      	; 0x5bfc <main+0x1834>
C:\Users\Ryan\Documents\GitHub\sport_main_code_2023/sport_menu.h:467
        lcd.print("done");
    5bf4:	8e e9       	ldi	r24, 0x9E	; 158
    5bf6:	97 e0       	ldi	r25, 0x07	; 7
    5bf8:	0e 94 ff 09 	call	0x13fe	; 0x13fe <Print::print(char const*) [clone .constprop.9]>
C:\Users\Ryan\Documents\GitHub\sport_main_code_2023/sport_menu.h:469

      lcd.setCursor(3, 2);
    5bfc:	62 e0       	ldi	r22, 0x02	; 2
    5bfe:	83 e0       	ldi	r24, 0x03	; 3
    5c00:	0e 94 67 06 	call	0xcce	; 0xcce <LiquidCrystal::setCursor(unsigned char, unsigned char) [clone .constprop.27]>
C:\Users\Ryan\Documents\GitHub\sport_main_code_2023/sport_menu.h:470
      lcd.print("YELLOW left ");
    5c04:	88 ee       	ldi	r24, 0xE8	; 232
    5c06:	97 e0       	ldi	r25, 0x07	; 7
    5c08:	0e 94 ff 09 	call	0x13fe	; 0x13fe <Print::print(char const*) [clone .constprop.9]>
C:\Users\Ryan\Documents\GitHub\sport_main_code_2023/sport_menu.h:471
      if (yel_l_calibrated == 1)
    5c0c:	21 e0       	ldi	r18, 0x01	; 1
    5c0e:	c2 12       	cpse	r12, r18
    5c10:	04 c0       	rjmp	.+8      	; 0x5c1a <main+0x1852>
C:\Users\Ryan\Documents\GitHub\sport_main_code_2023/sport_menu.h:472
        lcd.print("done");
    5c12:	8e e9       	ldi	r24, 0x9E	; 158
    5c14:	97 e0       	ldi	r25, 0x07	; 7
    5c16:	0e 94 ff 09 	call	0x13fe	; 0x13fe <Print::print(char const*) [clone .constprop.9]>
C:\Users\Ryan\Documents\GitHub\sport_main_code_2023/sport_menu.h:474

      lcd.setCursor(3, 3);
    5c1a:	63 e0       	ldi	r22, 0x03	; 3
    5c1c:	83 e0       	ldi	r24, 0x03	; 3
    5c1e:	0e 94 67 06 	call	0xcce	; 0xcce <LiquidCrystal::setCursor(unsigned char, unsigned char) [clone .constprop.27]>
C:\Users\Ryan\Documents\GitHub\sport_main_code_2023/sport_menu.h:475
      lcd.print("YELLOW right ");
    5c22:	85 ef       	ldi	r24, 0xF5	; 245
    5c24:	97 e0       	ldi	r25, 0x07	; 7
    5c26:	0e 94 ff 09 	call	0x13fe	; 0x13fe <Print::print(char const*) [clone .constprop.9]>
C:\Users\Ryan\Documents\GitHub\sport_main_code_2023/sport_menu.h:476
      if (yel_r_calibrated == 1)
    5c2a:	31 e0       	ldi	r19, 0x01	; 1
    5c2c:	b3 12       	cpse	r11, r19
    5c2e:	04 c0       	rjmp	.+8      	; 0x5c38 <main+0x1870>
C:\Users\Ryan\Documents\GitHub\sport_main_code_2023/sport_menu.h:477
        lcd.print("done");
    5c30:	8e e9       	ldi	r24, 0x9E	; 158
    5c32:	97 e0       	ldi	r25, 0x07	; 7
    5c34:	0e 94 ff 09 	call	0x13fe	; 0x13fe <Print::print(char const*) [clone .constprop.9]>
C:\Users\Ryan\Documents\GitHub\sport_main_code_2023/sport_menu.h:479

      lcd.setCursor(0, page - 5);
    5c38:	60 91 04 01 	lds	r22, 0x0104	; 0x800104 <color_calib()::page>
    5c3c:	65 50       	subi	r22, 0x05	; 5
    5c3e:	81 cf       	rjmp	.-254    	; 0x5b42 <main+0x177a>
C:\Users\Ryan\Documents\GitHub\sport_main_code_2023/sport_menu.h:482
      lcd.print("-> ");
    } else {
      lcd.setCursor(3, 0);
    5c40:	83 e0       	ldi	r24, 0x03	; 3
    5c42:	0e 94 67 06 	call	0xcce	; 0xcce <LiquidCrystal::setCursor(unsigned char, unsigned char) [clone .constprop.27]>
C:\Users\Ryan\Documents\GitHub\sport_main_code_2023/sport_menu.h:483
      lcd.print("SILVER left  ");
    5c46:	83 e0       	ldi	r24, 0x03	; 3
    5c48:	98 e0       	ldi	r25, 0x08	; 8
    5c4a:	0e 94 ff 09 	call	0x13fe	; 0x13fe <Print::print(char const*) [clone .constprop.9]>
C:\Users\Ryan\Documents\GitHub\sport_main_code_2023/sport_menu.h:484
      if (sil_l_calibrated == 1)
    5c4e:	81 e0       	ldi	r24, 0x01	; 1
    5c50:	a8 12       	cpse	r10, r24
    5c52:	04 c0       	rjmp	.+8      	; 0x5c5c <main+0x1894>
C:\Users\Ryan\Documents\GitHub\sport_main_code_2023/sport_menu.h:485
        lcd.print("done");
    5c54:	8e e9       	ldi	r24, 0x9E	; 158
    5c56:	97 e0       	ldi	r25, 0x07	; 7
    5c58:	0e 94 ff 09 	call	0x13fe	; 0x13fe <Print::print(char const*) [clone .constprop.9]>
C:\Users\Ryan\Documents\GitHub\sport_main_code_2023/sport_menu.h:487

      lcd.setCursor(3, 1);
    5c5c:	61 e0       	ldi	r22, 0x01	; 1
    5c5e:	83 e0       	ldi	r24, 0x03	; 3
    5c60:	0e 94 67 06 	call	0xcce	; 0xcce <LiquidCrystal::setCursor(unsigned char, unsigned char) [clone .constprop.27]>
C:\Users\Ryan\Documents\GitHub\sport_main_code_2023/sport_menu.h:488
      lcd.print("SILVER right ");
    5c64:	81 e1       	ldi	r24, 0x11	; 17
    5c66:	98 e0       	ldi	r25, 0x08	; 8
    5c68:	0e 94 ff 09 	call	0x13fe	; 0x13fe <Print::print(char const*) [clone .constprop.9]>
C:\Users\Ryan\Documents\GitHub\sport_main_code_2023/sport_menu.h:489
      if (sil_r_calibrated == 1)
    5c6c:	91 e0       	ldi	r25, 0x01	; 1
    5c6e:	99 12       	cpse	r9, r25
    5c70:	04 c0       	rjmp	.+8      	; 0x5c7a <main+0x18b2>
C:\Users\Ryan\Documents\GitHub\sport_main_code_2023/sport_menu.h:490
        lcd.print("done");
    5c72:	8e e9       	ldi	r24, 0x9E	; 158
    5c74:	97 e0       	ldi	r25, 0x07	; 7
    5c76:	0e 94 ff 09 	call	0x13fe	; 0x13fe <Print::print(char const*) [clone .constprop.9]>
C:\Users\Ryan\Documents\GitHub\sport_main_code_2023/sport_menu.h:492

      lcd.setCursor(3, 2);
    5c7a:	62 e0       	ldi	r22, 0x02	; 2
    5c7c:	83 e0       	ldi	r24, 0x03	; 3
    5c7e:	0e 94 67 06 	call	0xcce	; 0xcce <LiquidCrystal::setCursor(unsigned char, unsigned char) [clone .constprop.27]>
C:\Users\Ryan\Documents\GitHub\sport_main_code_2023/sport_menu.h:493
      lcd.print("Green Front ");
    5c82:	8f e1       	ldi	r24, 0x1F	; 31
    5c84:	98 e0       	ldi	r25, 0x08	; 8
    5c86:	0e 94 ff 09 	call	0x13fe	; 0x13fe <Print::print(char const*) [clone .constprop.9]>
C:\Users\Ryan\Documents\GitHub\sport_main_code_2023/sport_menu.h:494
      if (grn_f_calibrated == 1)
    5c8a:	e1 e0       	ldi	r30, 0x01	; 1
    5c8c:	8e 12       	cpse	r8, r30
    5c8e:	04 c0       	rjmp	.+8      	; 0x5c98 <main+0x18d0>
C:\Users\Ryan\Documents\GitHub\sport_main_code_2023/sport_menu.h:495
        lcd.print("done");
    5c90:	8e e9       	ldi	r24, 0x9E	; 158
    5c92:	97 e0       	ldi	r25, 0x07	; 7
    5c94:	0e 94 ff 09 	call	0x13fe	; 0x13fe <Print::print(char const*) [clone .constprop.9]>
C:\Users\Ryan\Documents\GitHub\sport_main_code_2023/sport_menu.h:497

      lcd.setCursor(3, 3);
    5c98:	63 e0       	ldi	r22, 0x03	; 3
    5c9a:	83 e0       	ldi	r24, 0x03	; 3
    5c9c:	0e 94 67 06 	call	0xcce	; 0xcce <LiquidCrystal::setCursor(unsigned char, unsigned char) [clone .constprop.27]>
C:\Users\Ryan\Documents\GitHub\sport_main_code_2023/sport_menu.h:498
      lcd.print("Red Front");
    5ca0:	8c e2       	ldi	r24, 0x2C	; 44
    5ca2:	98 e0       	ldi	r25, 0x08	; 8
    5ca4:	0e 94 ff 09 	call	0x13fe	; 0x13fe <Print::print(char const*) [clone .constprop.9]>
C:\Users\Ryan\Documents\GitHub\sport_main_code_2023/sport_menu.h:499
      if (red_f_calibrated == 1)
    5ca8:	c1 30       	cpi	r28, 0x01	; 1
    5caa:	21 f4       	brne	.+8      	; 0x5cb4 <main+0x18ec>
C:\Users\Ryan\Documents\GitHub\sport_main_code_2023/sport_menu.h:500
        lcd.print("done");
    5cac:	8e e9       	ldi	r24, 0x9E	; 158
    5cae:	97 e0       	ldi	r25, 0x07	; 7
    5cb0:	0e 94 ff 09 	call	0x13fe	; 0x13fe <Print::print(char const*) [clone .constprop.9]>
C:\Users\Ryan\Documents\GitHub\sport_main_code_2023/sport_menu.h:502

      lcd.setCursor(0, page - 9);
    5cb4:	60 91 04 01 	lds	r22, 0x0104	; 0x800104 <color_calib()::page>
    5cb8:	69 50       	subi	r22, 0x09	; 9
    5cba:	43 cf       	rjmp	.-378    	; 0x5b42 <main+0x177a>
C:\Users\Ryan\Documents\GitHub\sport_main_code_2023/sport_menu.h:520
        EEPROM_write_int(red_left_g, green);
        EEPROM_write_int(red_left_b, blue);
        EEPROM_write_int(red_left_c, clear);
        red_l_calibrated = 1;
      }
    } else if (page == 2)  // red right
    5cbc:	82 30       	cpi	r24, 0x02	; 2
    5cbe:	59 f5       	brne	.+86     	; 0x5d16 <main+0x194e>
C:\Users\Ryan\Documents\GitHub\sport_main_code_2023/sport_menu.h:522
    {
      if (start == 0) {
    5cc0:	86 e0       	ldi	r24, 0x06	; 6
    5cc2:	0e 94 e3 01 	call	0x3c6	; 0x3c6 <digitalRead>
    5cc6:	89 2b       	or	r24, r25
    5cc8:	09 f0       	breq	.+2      	; 0x5ccc <main+0x1904>
    5cca:	c5 ce       	rjmp	.-630    	; 0x5a56 <main+0x168e>
C:\Users\Ryan\Documents\GitHub\sport_main_code_2023/sport_menu.h:523
        color_R;
    5ccc:	82 e0       	ldi	r24, 0x02	; 2
    5cce:	0e 94 32 0a 	call	0x1464	; 0x1464 <color(char)>
C:\Users\Ryan\Documents\GitHub\sport_main_code_2023/sport_menu.h:524
        EEPROM_write_int(red_right_r, red);
    5cd2:	60 91 cb 08 	lds	r22, 0x08CB	; 0x8008cb <red>
    5cd6:	70 91 cc 08 	lds	r23, 0x08CC	; 0x8008cc <red+0x1>
    5cda:	8c e3       	ldi	r24, 0x3C	; 60
    5cdc:	90 e0       	ldi	r25, 0x00	; 0
    5cde:	0e 94 0c 0a 	call	0x1418	; 0x1418 <EEPROM_write_int(int, int)>
C:\Users\Ryan\Documents\GitHub\sport_main_code_2023/sport_menu.h:525
        EEPROM_write_int(red_right_g, green);
    5ce2:	60 91 c9 08 	lds	r22, 0x08C9	; 0x8008c9 <green>
    5ce6:	70 91 ca 08 	lds	r23, 0x08CA	; 0x8008ca <green+0x1>
    5cea:	8e e3       	ldi	r24, 0x3E	; 62
    5cec:	90 e0       	ldi	r25, 0x00	; 0
    5cee:	0e 94 0c 0a 	call	0x1418	; 0x1418 <EEPROM_write_int(int, int)>
C:\Users\Ryan\Documents\GitHub\sport_main_code_2023/sport_menu.h:526
        EEPROM_write_int(red_right_b, blue);
    5cf2:	60 91 c7 08 	lds	r22, 0x08C7	; 0x8008c7 <blue>
    5cf6:	70 91 c8 08 	lds	r23, 0x08C8	; 0x8008c8 <blue+0x1>
    5cfa:	80 e4       	ldi	r24, 0x40	; 64
    5cfc:	90 e0       	ldi	r25, 0x00	; 0
    5cfe:	0e 94 0c 0a 	call	0x1418	; 0x1418 <EEPROM_write_int(int, int)>
C:\Users\Ryan\Documents\GitHub\sport_main_code_2023/sport_menu.h:527
        EEPROM_write_int(red_right_c, clear);
    5d02:	60 91 c5 08 	lds	r22, 0x08C5	; 0x8008c5 <clear>
    5d06:	70 91 c6 08 	lds	r23, 0x08C6	; 0x8008c6 <clear+0x1>
    5d0a:	82 e4       	ldi	r24, 0x42	; 66
    5d0c:	90 e0       	ldi	r25, 0x00	; 0
    5d0e:	0e 94 0c 0a 	call	0x1418	; 0x1418 <EEPROM_write_int(int, int)>
main():
C:\Users\Ryan\Documents\GitHub\sport_main_code_2023/sport_menu.h:528
        red_r_calibrated = 1;
    5d12:	11 e0       	ldi	r17, 0x01	; 1
    5d14:	a0 ce       	rjmp	.-704    	; 0x5a56 <main+0x168e>
color_calib():
C:\Users\Ryan\Documents\GitHub\sport_main_code_2023/sport_menu.h:532
      }
    }

    else if (page == 3)  // grn left
    5d16:	83 30       	cpi	r24, 0x03	; 3
    5d18:	59 f5       	brne	.+86     	; 0x5d70 <main+0x19a8>
C:\Users\Ryan\Documents\GitHub\sport_main_code_2023/sport_menu.h:534
    {
      if (start == 0) {
    5d1a:	86 e0       	ldi	r24, 0x06	; 6
    5d1c:	0e 94 e3 01 	call	0x3c6	; 0x3c6 <digitalRead>
    5d20:	89 2b       	or	r24, r25
    5d22:	09 f0       	breq	.+2      	; 0x5d26 <main+0x195e>
    5d24:	98 ce       	rjmp	.-720    	; 0x5a56 <main+0x168e>
C:\Users\Ryan\Documents\GitHub\sport_main_code_2023/sport_menu.h:535
        color_L;
    5d26:	81 e0       	ldi	r24, 0x01	; 1
    5d28:	0e 94 32 0a 	call	0x1464	; 0x1464 <color(char)>
C:\Users\Ryan\Documents\GitHub\sport_main_code_2023/sport_menu.h:536
        EEPROM_write_int(green_left_r, red);
    5d2c:	60 91 cb 08 	lds	r22, 0x08CB	; 0x8008cb <red>
    5d30:	70 91 cc 08 	lds	r23, 0x08CC	; 0x8008cc <red+0x1>
    5d34:	8c e1       	ldi	r24, 0x1C	; 28
    5d36:	90 e0       	ldi	r25, 0x00	; 0
    5d38:	0e 94 0c 0a 	call	0x1418	; 0x1418 <EEPROM_write_int(int, int)>
C:\Users\Ryan\Documents\GitHub\sport_main_code_2023/sport_menu.h:537
        EEPROM_write_int(green_left_g, green);
    5d3c:	60 91 c9 08 	lds	r22, 0x08C9	; 0x8008c9 <green>
    5d40:	70 91 ca 08 	lds	r23, 0x08CA	; 0x8008ca <green+0x1>
    5d44:	8e e1       	ldi	r24, 0x1E	; 30
    5d46:	90 e0       	ldi	r25, 0x00	; 0
    5d48:	0e 94 0c 0a 	call	0x1418	; 0x1418 <EEPROM_write_int(int, int)>
C:\Users\Ryan\Documents\GitHub\sport_main_code_2023/sport_menu.h:538
        EEPROM_write_int(green_left_b, blue);
    5d4c:	60 91 c7 08 	lds	r22, 0x08C7	; 0x8008c7 <blue>
    5d50:	70 91 c8 08 	lds	r23, 0x08C8	; 0x8008c8 <blue+0x1>
    5d54:	80 e2       	ldi	r24, 0x20	; 32
    5d56:	90 e0       	ldi	r25, 0x00	; 0
    5d58:	0e 94 0c 0a 	call	0x1418	; 0x1418 <EEPROM_write_int(int, int)>
C:\Users\Ryan\Documents\GitHub\sport_main_code_2023/sport_menu.h:539
        EEPROM_write_int(green_left_c, clear);
    5d5c:	60 91 c5 08 	lds	r22, 0x08C5	; 0x8008c5 <clear>
    5d60:	70 91 c6 08 	lds	r23, 0x08C6	; 0x8008c6 <clear+0x1>
    5d64:	82 e2       	ldi	r24, 0x22	; 34
    5d66:	90 e0       	ldi	r25, 0x00	; 0
    5d68:	0e 94 0c 0a 	call	0x1418	; 0x1418 <EEPROM_write_int(int, int)>
main():
C:\Users\Ryan\Documents\GitHub\sport_main_code_2023/sport_menu.h:540
        grn_l_calibrated = 1;
    5d6c:	01 e0       	ldi	r16, 0x01	; 1
    5d6e:	73 ce       	rjmp	.-794    	; 0x5a56 <main+0x168e>
color_calib():
C:\Users\Ryan\Documents\GitHub\sport_main_code_2023/sport_menu.h:542
      }
    } else if (page == 4)  // grn right
    5d70:	84 30       	cpi	r24, 0x04	; 4
    5d72:	61 f5       	brne	.+88     	; 0x5dcc <main+0x1a04>
C:\Users\Ryan\Documents\GitHub\sport_main_code_2023/sport_menu.h:544
    {
      if (start == 0) {
    5d74:	86 e0       	ldi	r24, 0x06	; 6
    5d76:	0e 94 e3 01 	call	0x3c6	; 0x3c6 <digitalRead>
    5d7a:	89 2b       	or	r24, r25
    5d7c:	09 f0       	breq	.+2      	; 0x5d80 <main+0x19b8>
    5d7e:	6b ce       	rjmp	.-810    	; 0x5a56 <main+0x168e>
C:\Users\Ryan\Documents\GitHub\sport_main_code_2023/sport_menu.h:545
        color_R;
    5d80:	82 e0       	ldi	r24, 0x02	; 2
    5d82:	0e 94 32 0a 	call	0x1464	; 0x1464 <color(char)>
C:\Users\Ryan\Documents\GitHub\sport_main_code_2023/sport_menu.h:546
        EEPROM_write_int(green_right_r, red);
    5d86:	60 91 cb 08 	lds	r22, 0x08CB	; 0x8008cb <red>
    5d8a:	70 91 cc 08 	lds	r23, 0x08CC	; 0x8008cc <red+0x1>
    5d8e:	84 e4       	ldi	r24, 0x44	; 68
    5d90:	90 e0       	ldi	r25, 0x00	; 0
    5d92:	0e 94 0c 0a 	call	0x1418	; 0x1418 <EEPROM_write_int(int, int)>
C:\Users\Ryan\Documents\GitHub\sport_main_code_2023/sport_menu.h:547
        EEPROM_write_int(green_right_g, green);
    5d96:	60 91 c9 08 	lds	r22, 0x08C9	; 0x8008c9 <green>
    5d9a:	70 91 ca 08 	lds	r23, 0x08CA	; 0x8008ca <green+0x1>
    5d9e:	86 e4       	ldi	r24, 0x46	; 70
    5da0:	90 e0       	ldi	r25, 0x00	; 0
    5da2:	0e 94 0c 0a 	call	0x1418	; 0x1418 <EEPROM_write_int(int, int)>
C:\Users\Ryan\Documents\GitHub\sport_main_code_2023/sport_menu.h:548
        EEPROM_write_int(green_right_b, blue);
    5da6:	60 91 c7 08 	lds	r22, 0x08C7	; 0x8008c7 <blue>
    5daa:	70 91 c8 08 	lds	r23, 0x08C8	; 0x8008c8 <blue+0x1>
    5dae:	88 e4       	ldi	r24, 0x48	; 72
    5db0:	90 e0       	ldi	r25, 0x00	; 0
    5db2:	0e 94 0c 0a 	call	0x1418	; 0x1418 <EEPROM_write_int(int, int)>
C:\Users\Ryan\Documents\GitHub\sport_main_code_2023/sport_menu.h:549
        EEPROM_write_int(green_right_c, clear);
    5db6:	60 91 c5 08 	lds	r22, 0x08C5	; 0x8008c5 <clear>
    5dba:	70 91 c6 08 	lds	r23, 0x08C6	; 0x8008c6 <clear+0x1>
    5dbe:	8a e4       	ldi	r24, 0x4A	; 74
    5dc0:	90 e0       	ldi	r25, 0x00	; 0
    5dc2:	0e 94 0c 0a 	call	0x1418	; 0x1418 <EEPROM_write_int(int, int)>
main():
C:\Users\Ryan\Documents\GitHub\sport_main_code_2023/sport_menu.h:550
        grn_r_calibrated = 1;
    5dc6:	ff 24       	eor	r15, r15
    5dc8:	f3 94       	inc	r15
    5dca:	45 ce       	rjmp	.-886    	; 0x5a56 <main+0x168e>
color_calib():
C:\Users\Ryan\Documents\GitHub\sport_main_code_2023/sport_menu.h:554
      }
    }

    else if (page == 5)  // blu left
    5dcc:	85 30       	cpi	r24, 0x05	; 5
    5dce:	61 f5       	brne	.+88     	; 0x5e28 <main+0x1a60>
C:\Users\Ryan\Documents\GitHub\sport_main_code_2023/sport_menu.h:556
    {
      if (start == 0) {
    5dd0:	86 e0       	ldi	r24, 0x06	; 6
    5dd2:	0e 94 e3 01 	call	0x3c6	; 0x3c6 <digitalRead>
    5dd6:	89 2b       	or	r24, r25
    5dd8:	09 f0       	breq	.+2      	; 0x5ddc <main+0x1a14>
    5dda:	3d ce       	rjmp	.-902    	; 0x5a56 <main+0x168e>
C:\Users\Ryan\Documents\GitHub\sport_main_code_2023/sport_menu.h:557
        color_L;
    5ddc:	81 e0       	ldi	r24, 0x01	; 1
    5dde:	0e 94 32 0a 	call	0x1464	; 0x1464 <color(char)>
C:\Users\Ryan\Documents\GitHub\sport_main_code_2023/sport_menu.h:558
        EEPROM_write_int(blue_left_r, red);
    5de2:	60 91 cb 08 	lds	r22, 0x08CB	; 0x8008cb <red>
    5de6:	70 91 cc 08 	lds	r23, 0x08CC	; 0x8008cc <red+0x1>
    5dea:	84 e2       	ldi	r24, 0x24	; 36
    5dec:	90 e0       	ldi	r25, 0x00	; 0
    5dee:	0e 94 0c 0a 	call	0x1418	; 0x1418 <EEPROM_write_int(int, int)>
C:\Users\Ryan\Documents\GitHub\sport_main_code_2023/sport_menu.h:559
        EEPROM_write_int(blue_left_g, green);
    5df2:	60 91 c9 08 	lds	r22, 0x08C9	; 0x8008c9 <green>
    5df6:	70 91 ca 08 	lds	r23, 0x08CA	; 0x8008ca <green+0x1>
    5dfa:	86 e2       	ldi	r24, 0x26	; 38
    5dfc:	90 e0       	ldi	r25, 0x00	; 0
    5dfe:	0e 94 0c 0a 	call	0x1418	; 0x1418 <EEPROM_write_int(int, int)>
C:\Users\Ryan\Documents\GitHub\sport_main_code_2023/sport_menu.h:560
        EEPROM_write_int(blue_left_b, blue);
    5e02:	60 91 c7 08 	lds	r22, 0x08C7	; 0x8008c7 <blue>
    5e06:	70 91 c8 08 	lds	r23, 0x08C8	; 0x8008c8 <blue+0x1>
    5e0a:	88 e2       	ldi	r24, 0x28	; 40
    5e0c:	90 e0       	ldi	r25, 0x00	; 0
    5e0e:	0e 94 0c 0a 	call	0x1418	; 0x1418 <EEPROM_write_int(int, int)>
C:\Users\Ryan\Documents\GitHub\sport_main_code_2023/sport_menu.h:561
        EEPROM_write_int(blue_left_c, clear);
    5e12:	60 91 c5 08 	lds	r22, 0x08C5	; 0x8008c5 <clear>
    5e16:	70 91 c6 08 	lds	r23, 0x08C6	; 0x8008c6 <clear+0x1>
    5e1a:	8a e2       	ldi	r24, 0x2A	; 42
    5e1c:	90 e0       	ldi	r25, 0x00	; 0
    5e1e:	0e 94 0c 0a 	call	0x1418	; 0x1418 <EEPROM_write_int(int, int)>
main():
C:\Users\Ryan\Documents\GitHub\sport_main_code_2023/sport_menu.h:562
        blu_l_calibrated = 1;
    5e22:	ee 24       	eor	r14, r14
    5e24:	e3 94       	inc	r14
    5e26:	17 ce       	rjmp	.-978    	; 0x5a56 <main+0x168e>
color_calib():
C:\Users\Ryan\Documents\GitHub\sport_main_code_2023/sport_menu.h:564
      }
    } else if (page == 6)  // blu right
    5e28:	86 30       	cpi	r24, 0x06	; 6
    5e2a:	59 f5       	brne	.+86     	; 0x5e82 <main+0x1aba>
C:\Users\Ryan\Documents\GitHub\sport_main_code_2023/sport_menu.h:566
    {
      if (start == 0) {
    5e2c:	0e 94 e3 01 	call	0x3c6	; 0x3c6 <digitalRead>
    5e30:	89 2b       	or	r24, r25
    5e32:	09 f0       	breq	.+2      	; 0x5e36 <main+0x1a6e>
    5e34:	10 ce       	rjmp	.-992    	; 0x5a56 <main+0x168e>
C:\Users\Ryan\Documents\GitHub\sport_main_code_2023/sport_menu.h:567
        color_R;
    5e36:	82 e0       	ldi	r24, 0x02	; 2
    5e38:	0e 94 32 0a 	call	0x1464	; 0x1464 <color(char)>
C:\Users\Ryan\Documents\GitHub\sport_main_code_2023/sport_menu.h:568
        EEPROM_write_int(blue_right_r, red);
    5e3c:	60 91 cb 08 	lds	r22, 0x08CB	; 0x8008cb <red>
    5e40:	70 91 cc 08 	lds	r23, 0x08CC	; 0x8008cc <red+0x1>
    5e44:	8c e4       	ldi	r24, 0x4C	; 76
    5e46:	90 e0       	ldi	r25, 0x00	; 0
    5e48:	0e 94 0c 0a 	call	0x1418	; 0x1418 <EEPROM_write_int(int, int)>
C:\Users\Ryan\Documents\GitHub\sport_main_code_2023/sport_menu.h:569
        EEPROM_write_int(blue_right_g, green);
    5e4c:	60 91 c9 08 	lds	r22, 0x08C9	; 0x8008c9 <green>
    5e50:	70 91 ca 08 	lds	r23, 0x08CA	; 0x8008ca <green+0x1>
    5e54:	8e e4       	ldi	r24, 0x4E	; 78
    5e56:	90 e0       	ldi	r25, 0x00	; 0
    5e58:	0e 94 0c 0a 	call	0x1418	; 0x1418 <EEPROM_write_int(int, int)>
C:\Users\Ryan\Documents\GitHub\sport_main_code_2023/sport_menu.h:570
        EEPROM_write_int(blue_right_b, blue);
    5e5c:	60 91 c7 08 	lds	r22, 0x08C7	; 0x8008c7 <blue>
    5e60:	70 91 c8 08 	lds	r23, 0x08C8	; 0x8008c8 <blue+0x1>
    5e64:	80 e5       	ldi	r24, 0x50	; 80
    5e66:	90 e0       	ldi	r25, 0x00	; 0
    5e68:	0e 94 0c 0a 	call	0x1418	; 0x1418 <EEPROM_write_int(int, int)>
C:\Users\Ryan\Documents\GitHub\sport_main_code_2023/sport_menu.h:571
        EEPROM_write_int(blue_right_c, clear);
    5e6c:	60 91 c5 08 	lds	r22, 0x08C5	; 0x8008c5 <clear>
    5e70:	70 91 c6 08 	lds	r23, 0x08C6	; 0x8008c6 <clear+0x1>
    5e74:	82 e5       	ldi	r24, 0x52	; 82
    5e76:	90 e0       	ldi	r25, 0x00	; 0
    5e78:	0e 94 0c 0a 	call	0x1418	; 0x1418 <EEPROM_write_int(int, int)>
main():
C:\Users\Ryan\Documents\GitHub\sport_main_code_2023/sport_menu.h:572
        blu_r_calibrated = 1;
    5e7c:	dd 24       	eor	r13, r13
    5e7e:	d3 94       	inc	r13
    5e80:	ea cd       	rjmp	.-1068   	; 0x5a56 <main+0x168e>
color_calib():
C:\Users\Ryan\Documents\GitHub\sport_main_code_2023/sport_menu.h:576
      }
    }

    else if (page == 7)  // yelow left
    5e82:	87 30       	cpi	r24, 0x07	; 7
    5e84:	61 f5       	brne	.+88     	; 0x5ede <main+0x1b16>
C:\Users\Ryan\Documents\GitHub\sport_main_code_2023/sport_menu.h:578
    {
      if (start == 0) {
    5e86:	86 e0       	ldi	r24, 0x06	; 6
    5e88:	0e 94 e3 01 	call	0x3c6	; 0x3c6 <digitalRead>
    5e8c:	89 2b       	or	r24, r25
    5e8e:	09 f0       	breq	.+2      	; 0x5e92 <main+0x1aca>
    5e90:	e2 cd       	rjmp	.-1084   	; 0x5a56 <main+0x168e>
C:\Users\Ryan\Documents\GitHub\sport_main_code_2023/sport_menu.h:579
        color_L;
    5e92:	81 e0       	ldi	r24, 0x01	; 1
    5e94:	0e 94 32 0a 	call	0x1464	; 0x1464 <color(char)>
C:\Users\Ryan\Documents\GitHub\sport_main_code_2023/sport_menu.h:580
        EEPROM_write_int(yellow_left_r, red);
    5e98:	60 91 cb 08 	lds	r22, 0x08CB	; 0x8008cb <red>
    5e9c:	70 91 cc 08 	lds	r23, 0x08CC	; 0x8008cc <red+0x1>
    5ea0:	8c e2       	ldi	r24, 0x2C	; 44
    5ea2:	90 e0       	ldi	r25, 0x00	; 0
    5ea4:	0e 94 0c 0a 	call	0x1418	; 0x1418 <EEPROM_write_int(int, int)>
C:\Users\Ryan\Documents\GitHub\sport_main_code_2023/sport_menu.h:581
        EEPROM_write_int(yellow_left_g, green);
    5ea8:	60 91 c9 08 	lds	r22, 0x08C9	; 0x8008c9 <green>
    5eac:	70 91 ca 08 	lds	r23, 0x08CA	; 0x8008ca <green+0x1>
    5eb0:	8e e2       	ldi	r24, 0x2E	; 46
    5eb2:	90 e0       	ldi	r25, 0x00	; 0
    5eb4:	0e 94 0c 0a 	call	0x1418	; 0x1418 <EEPROM_write_int(int, int)>
C:\Users\Ryan\Documents\GitHub\sport_main_code_2023/sport_menu.h:582
        EEPROM_write_int(yellow_left_b, blue);
    5eb8:	60 91 c7 08 	lds	r22, 0x08C7	; 0x8008c7 <blue>
    5ebc:	70 91 c8 08 	lds	r23, 0x08C8	; 0x8008c8 <blue+0x1>
    5ec0:	80 e3       	ldi	r24, 0x30	; 48
    5ec2:	90 e0       	ldi	r25, 0x00	; 0
    5ec4:	0e 94 0c 0a 	call	0x1418	; 0x1418 <EEPROM_write_int(int, int)>
C:\Users\Ryan\Documents\GitHub\sport_main_code_2023/sport_menu.h:583
        EEPROM_write_int(yellow_left_c, clear);
    5ec8:	60 91 c5 08 	lds	r22, 0x08C5	; 0x8008c5 <clear>
    5ecc:	70 91 c6 08 	lds	r23, 0x08C6	; 0x8008c6 <clear+0x1>
    5ed0:	82 e3       	ldi	r24, 0x32	; 50
    5ed2:	90 e0       	ldi	r25, 0x00	; 0
    5ed4:	0e 94 0c 0a 	call	0x1418	; 0x1418 <EEPROM_write_int(int, int)>
main():
C:\Users\Ryan\Documents\GitHub\sport_main_code_2023/sport_menu.h:584
        yel_l_calibrated = 1;
    5ed8:	cc 24       	eor	r12, r12
    5eda:	c3 94       	inc	r12
    5edc:	bc cd       	rjmp	.-1160   	; 0x5a56 <main+0x168e>
color_calib():
C:\Users\Ryan\Documents\GitHub\sport_main_code_2023/sport_menu.h:586
      }
    } else if (page == 8)  // yelow right
    5ede:	88 30       	cpi	r24, 0x08	; 8
    5ee0:	61 f5       	brne	.+88     	; 0x5f3a <main+0x1b72>
C:\Users\Ryan\Documents\GitHub\sport_main_code_2023/sport_menu.h:588
    {
      if (start == 0) {
    5ee2:	86 e0       	ldi	r24, 0x06	; 6
    5ee4:	0e 94 e3 01 	call	0x3c6	; 0x3c6 <digitalRead>
    5ee8:	89 2b       	or	r24, r25
    5eea:	09 f0       	breq	.+2      	; 0x5eee <main+0x1b26>
    5eec:	b4 cd       	rjmp	.-1176   	; 0x5a56 <main+0x168e>
C:\Users\Ryan\Documents\GitHub\sport_main_code_2023/sport_menu.h:589
        color_R;
    5eee:	82 e0       	ldi	r24, 0x02	; 2
    5ef0:	0e 94 32 0a 	call	0x1464	; 0x1464 <color(char)>
C:\Users\Ryan\Documents\GitHub\sport_main_code_2023/sport_menu.h:590
        EEPROM_write_int(yellow_right_r, red);
    5ef4:	60 91 cb 08 	lds	r22, 0x08CB	; 0x8008cb <red>
    5ef8:	70 91 cc 08 	lds	r23, 0x08CC	; 0x8008cc <red+0x1>
    5efc:	84 e5       	ldi	r24, 0x54	; 84
    5efe:	90 e0       	ldi	r25, 0x00	; 0
    5f00:	0e 94 0c 0a 	call	0x1418	; 0x1418 <EEPROM_write_int(int, int)>
C:\Users\Ryan\Documents\GitHub\sport_main_code_2023/sport_menu.h:591
        EEPROM_write_int(yellow_right_g, green);
    5f04:	60 91 c9 08 	lds	r22, 0x08C9	; 0x8008c9 <green>
    5f08:	70 91 ca 08 	lds	r23, 0x08CA	; 0x8008ca <green+0x1>
    5f0c:	86 e5       	ldi	r24, 0x56	; 86
    5f0e:	90 e0       	ldi	r25, 0x00	; 0
    5f10:	0e 94 0c 0a 	call	0x1418	; 0x1418 <EEPROM_write_int(int, int)>
C:\Users\Ryan\Documents\GitHub\sport_main_code_2023/sport_menu.h:592
        EEPROM_write_int(yellow_right_b, blue);
    5f14:	60 91 c7 08 	lds	r22, 0x08C7	; 0x8008c7 <blue>
    5f18:	70 91 c8 08 	lds	r23, 0x08C8	; 0x8008c8 <blue+0x1>
    5f1c:	88 e5       	ldi	r24, 0x58	; 88
    5f1e:	90 e0       	ldi	r25, 0x00	; 0
    5f20:	0e 94 0c 0a 	call	0x1418	; 0x1418 <EEPROM_write_int(int, int)>
C:\Users\Ryan\Documents\GitHub\sport_main_code_2023/sport_menu.h:593
        EEPROM_write_int(yellow_right_c, clear);
    5f24:	60 91 c5 08 	lds	r22, 0x08C5	; 0x8008c5 <clear>
    5f28:	70 91 c6 08 	lds	r23, 0x08C6	; 0x8008c6 <clear+0x1>
    5f2c:	8a e5       	ldi	r24, 0x5A	; 90
    5f2e:	90 e0       	ldi	r25, 0x00	; 0
    5f30:	0e 94 0c 0a 	call	0x1418	; 0x1418 <EEPROM_write_int(int, int)>
main():
C:\Users\Ryan\Documents\GitHub\sport_main_code_2023/sport_menu.h:594
        yel_r_calibrated = 1;
    5f34:	bb 24       	eor	r11, r11
    5f36:	b3 94       	inc	r11
    5f38:	8e cd       	rjmp	.-1252   	; 0x5a56 <main+0x168e>
color_calib():
C:\Users\Ryan\Documents\GitHub\sport_main_code_2023/sport_menu.h:598
      }
    }

    else if (page == 9)  // sil left
    5f3a:	89 30       	cpi	r24, 0x09	; 9
    5f3c:	61 f5       	brne	.+88     	; 0x5f96 <main+0x1bce>
C:\Users\Ryan\Documents\GitHub\sport_main_code_2023/sport_menu.h:600
    {
      if (start == 0) {
    5f3e:	86 e0       	ldi	r24, 0x06	; 6
    5f40:	0e 94 e3 01 	call	0x3c6	; 0x3c6 <digitalRead>
    5f44:	89 2b       	or	r24, r25
    5f46:	09 f0       	breq	.+2      	; 0x5f4a <main+0x1b82>
    5f48:	86 cd       	rjmp	.-1268   	; 0x5a56 <main+0x168e>
C:\Users\Ryan\Documents\GitHub\sport_main_code_2023/sport_menu.h:601
        color_L;
    5f4a:	81 e0       	ldi	r24, 0x01	; 1
    5f4c:	0e 94 32 0a 	call	0x1464	; 0x1464 <color(char)>
C:\Users\Ryan\Documents\GitHub\sport_main_code_2023/sport_menu.h:602
        EEPROM_write_int(silver_left_r, red);
    5f50:	60 91 cb 08 	lds	r22, 0x08CB	; 0x8008cb <red>
    5f54:	70 91 cc 08 	lds	r23, 0x08CC	; 0x8008cc <red+0x1>
    5f58:	84 e3       	ldi	r24, 0x34	; 52
    5f5a:	90 e0       	ldi	r25, 0x00	; 0
    5f5c:	0e 94 0c 0a 	call	0x1418	; 0x1418 <EEPROM_write_int(int, int)>
C:\Users\Ryan\Documents\GitHub\sport_main_code_2023/sport_menu.h:603
        EEPROM_write_int(silver_left_g, green);
    5f60:	60 91 c9 08 	lds	r22, 0x08C9	; 0x8008c9 <green>
    5f64:	70 91 ca 08 	lds	r23, 0x08CA	; 0x8008ca <green+0x1>
    5f68:	86 e3       	ldi	r24, 0x36	; 54
    5f6a:	90 e0       	ldi	r25, 0x00	; 0
    5f6c:	0e 94 0c 0a 	call	0x1418	; 0x1418 <EEPROM_write_int(int, int)>
C:\Users\Ryan\Documents\GitHub\sport_main_code_2023/sport_menu.h:604
        EEPROM_write_int(silver_left_b, blue);
    5f70:	60 91 c7 08 	lds	r22, 0x08C7	; 0x8008c7 <blue>
    5f74:	70 91 c8 08 	lds	r23, 0x08C8	; 0x8008c8 <blue+0x1>
    5f78:	88 e3       	ldi	r24, 0x38	; 56
    5f7a:	90 e0       	ldi	r25, 0x00	; 0
    5f7c:	0e 94 0c 0a 	call	0x1418	; 0x1418 <EEPROM_write_int(int, int)>
C:\Users\Ryan\Documents\GitHub\sport_main_code_2023/sport_menu.h:605
        EEPROM_write_int(silver_left_c, clear);
    5f80:	60 91 c5 08 	lds	r22, 0x08C5	; 0x8008c5 <clear>
    5f84:	70 91 c6 08 	lds	r23, 0x08C6	; 0x8008c6 <clear+0x1>
    5f88:	8a e3       	ldi	r24, 0x3A	; 58
    5f8a:	90 e0       	ldi	r25, 0x00	; 0
    5f8c:	0e 94 0c 0a 	call	0x1418	; 0x1418 <EEPROM_write_int(int, int)>
main():
C:\Users\Ryan\Documents\GitHub\sport_main_code_2023/sport_menu.h:606
        sil_l_calibrated = 1;
    5f90:	aa 24       	eor	r10, r10
    5f92:	a3 94       	inc	r10
    5f94:	60 cd       	rjmp	.-1344   	; 0x5a56 <main+0x168e>
color_calib():
C:\Users\Ryan\Documents\GitHub\sport_main_code_2023/sport_menu.h:608
      }
    } else if (page == 10)  // sil right
    5f96:	8a 30       	cpi	r24, 0x0A	; 10
    5f98:	61 f5       	brne	.+88     	; 0x5ff2 <main+0x1c2a>
C:\Users\Ryan\Documents\GitHub\sport_main_code_2023/sport_menu.h:610
    {
      if (start == 0) {
    5f9a:	86 e0       	ldi	r24, 0x06	; 6
    5f9c:	0e 94 e3 01 	call	0x3c6	; 0x3c6 <digitalRead>
    5fa0:	89 2b       	or	r24, r25
    5fa2:	09 f0       	breq	.+2      	; 0x5fa6 <main+0x1bde>
    5fa4:	58 cd       	rjmp	.-1360   	; 0x5a56 <main+0x168e>
C:\Users\Ryan\Documents\GitHub\sport_main_code_2023/sport_menu.h:611
        color_R;
    5fa6:	82 e0       	ldi	r24, 0x02	; 2
    5fa8:	0e 94 32 0a 	call	0x1464	; 0x1464 <color(char)>
C:\Users\Ryan\Documents\GitHub\sport_main_code_2023/sport_menu.h:612
        EEPROM_write_int(silver_right_r, red);
    5fac:	60 91 cb 08 	lds	r22, 0x08CB	; 0x8008cb <red>
    5fb0:	70 91 cc 08 	lds	r23, 0x08CC	; 0x8008cc <red+0x1>
    5fb4:	8c e5       	ldi	r24, 0x5C	; 92
    5fb6:	90 e0       	ldi	r25, 0x00	; 0
    5fb8:	0e 94 0c 0a 	call	0x1418	; 0x1418 <EEPROM_write_int(int, int)>
C:\Users\Ryan\Documents\GitHub\sport_main_code_2023/sport_menu.h:613
        EEPROM_write_int(silver_right_g, green);
    5fbc:	60 91 c9 08 	lds	r22, 0x08C9	; 0x8008c9 <green>
    5fc0:	70 91 ca 08 	lds	r23, 0x08CA	; 0x8008ca <green+0x1>
    5fc4:	8e e5       	ldi	r24, 0x5E	; 94
    5fc6:	90 e0       	ldi	r25, 0x00	; 0
    5fc8:	0e 94 0c 0a 	call	0x1418	; 0x1418 <EEPROM_write_int(int, int)>
C:\Users\Ryan\Documents\GitHub\sport_main_code_2023/sport_menu.h:614
        EEPROM_write_int(silver_right_b, blue);
    5fcc:	60 91 c7 08 	lds	r22, 0x08C7	; 0x8008c7 <blue>
    5fd0:	70 91 c8 08 	lds	r23, 0x08C8	; 0x8008c8 <blue+0x1>
    5fd4:	80 e6       	ldi	r24, 0x60	; 96
    5fd6:	90 e0       	ldi	r25, 0x00	; 0
    5fd8:	0e 94 0c 0a 	call	0x1418	; 0x1418 <EEPROM_write_int(int, int)>
C:\Users\Ryan\Documents\GitHub\sport_main_code_2023/sport_menu.h:615
        EEPROM_write_int(silver_right_c, clear);
    5fdc:	60 91 c5 08 	lds	r22, 0x08C5	; 0x8008c5 <clear>
    5fe0:	70 91 c6 08 	lds	r23, 0x08C6	; 0x8008c6 <clear+0x1>
    5fe4:	82 e6       	ldi	r24, 0x62	; 98
    5fe6:	90 e0       	ldi	r25, 0x00	; 0
    5fe8:	0e 94 0c 0a 	call	0x1418	; 0x1418 <EEPROM_write_int(int, int)>
main():
C:\Users\Ryan\Documents\GitHub\sport_main_code_2023/sport_menu.h:616
        sil_r_calibrated = 1;
    5fec:	99 24       	eor	r9, r9
    5fee:	93 94       	inc	r9
    5ff0:	32 cd       	rjmp	.-1436   	; 0x5a56 <main+0x168e>
color_calib():
C:\Users\Ryan\Documents\GitHub\sport_main_code_2023/sport_menu.h:618
      }
    } else if (page == 11)  // grn front
    5ff2:	8b 30       	cpi	r24, 0x0B	; 11
    5ff4:	61 f5       	brne	.+88     	; 0x604e <main+0x1c86>
C:\Users\Ryan\Documents\GitHub\sport_main_code_2023/sport_menu.h:620
    {
      if (start == 0) {
    5ff6:	86 e0       	ldi	r24, 0x06	; 6
    5ff8:	0e 94 e3 01 	call	0x3c6	; 0x3c6 <digitalRead>
    5ffc:	89 2b       	or	r24, r25
    5ffe:	09 f0       	breq	.+2      	; 0x6002 <main+0x1c3a>
    6000:	2a cd       	rjmp	.-1452   	; 0x5a56 <main+0x168e>
C:\Users\Ryan\Documents\GitHub\sport_main_code_2023/sport_menu.h:621
        color_F;
    6002:	83 e0       	ldi	r24, 0x03	; 3
    6004:	0e 94 32 0a 	call	0x1464	; 0x1464 <color(char)>
C:\Users\Ryan\Documents\GitHub\sport_main_code_2023/sport_menu.h:622
        EEPROM_write_int(green_front_r, red);
    6008:	60 91 cb 08 	lds	r22, 0x08CB	; 0x8008cb <red>
    600c:	70 91 cc 08 	lds	r23, 0x08CC	; 0x8008cc <red+0x1>
    6010:	8c e6       	ldi	r24, 0x6C	; 108
    6012:	90 e0       	ldi	r25, 0x00	; 0
    6014:	0e 94 0c 0a 	call	0x1418	; 0x1418 <EEPROM_write_int(int, int)>
C:\Users\Ryan\Documents\GitHub\sport_main_code_2023/sport_menu.h:623
        EEPROM_write_int(green_front_g, green);
    6018:	60 91 c9 08 	lds	r22, 0x08C9	; 0x8008c9 <green>
    601c:	70 91 ca 08 	lds	r23, 0x08CA	; 0x8008ca <green+0x1>
    6020:	8e e6       	ldi	r24, 0x6E	; 110
    6022:	90 e0       	ldi	r25, 0x00	; 0
    6024:	0e 94 0c 0a 	call	0x1418	; 0x1418 <EEPROM_write_int(int, int)>
C:\Users\Ryan\Documents\GitHub\sport_main_code_2023/sport_menu.h:624
        EEPROM_write_int(green_front_b, blue);
    6028:	60 91 c7 08 	lds	r22, 0x08C7	; 0x8008c7 <blue>
    602c:	70 91 c8 08 	lds	r23, 0x08C8	; 0x8008c8 <blue+0x1>
    6030:	80 e7       	ldi	r24, 0x70	; 112
    6032:	90 e0       	ldi	r25, 0x00	; 0
    6034:	0e 94 0c 0a 	call	0x1418	; 0x1418 <EEPROM_write_int(int, int)>
C:\Users\Ryan\Documents\GitHub\sport_main_code_2023/sport_menu.h:625
        EEPROM_write_int(green_front_c, clear);
    6038:	60 91 c5 08 	lds	r22, 0x08C5	; 0x8008c5 <clear>
    603c:	70 91 c6 08 	lds	r23, 0x08C6	; 0x8008c6 <clear+0x1>
    6040:	82 e7       	ldi	r24, 0x72	; 114
    6042:	90 e0       	ldi	r25, 0x00	; 0
    6044:	0e 94 0c 0a 	call	0x1418	; 0x1418 <EEPROM_write_int(int, int)>
main():
C:\Users\Ryan\Documents\GitHub\sport_main_code_2023/sport_menu.h:626
        grn_f_calibrated = 1;
    6048:	88 24       	eor	r8, r8
    604a:	83 94       	inc	r8
    604c:	04 cd       	rjmp	.-1528   	; 0x5a56 <main+0x168e>
color_calib():
C:\Users\Ryan\Documents\GitHub\sport_main_code_2023/sport_menu.h:628
      }
    } else if (page == 12)  // red front
    604e:	8c 30       	cpi	r24, 0x0C	; 12
    6050:	09 f0       	breq	.+2      	; 0x6054 <main+0x1c8c>
    6052:	01 cd       	rjmp	.-1534   	; 0x5a56 <main+0x168e>
C:\Users\Ryan\Documents\GitHub\sport_main_code_2023/sport_menu.h:630
    {
      if (start == 0) {
    6054:	86 e0       	ldi	r24, 0x06	; 6
    6056:	0e 94 e3 01 	call	0x3c6	; 0x3c6 <digitalRead>
    605a:	89 2b       	or	r24, r25
    605c:	09 f0       	breq	.+2      	; 0x6060 <main+0x1c98>
    605e:	fb cc       	rjmp	.-1546   	; 0x5a56 <main+0x168e>
C:\Users\Ryan\Documents\GitHub\sport_main_code_2023/sport_menu.h:631
        color_F;
    6060:	83 e0       	ldi	r24, 0x03	; 3
    6062:	0e 94 32 0a 	call	0x1464	; 0x1464 <color(char)>
C:\Users\Ryan\Documents\GitHub\sport_main_code_2023/sport_menu.h:632
        EEPROM_write_int(red_front_r, red);
    6066:	60 91 cb 08 	lds	r22, 0x08CB	; 0x8008cb <red>
    606a:	70 91 cc 08 	lds	r23, 0x08CC	; 0x8008cc <red+0x1>
    606e:	84 e6       	ldi	r24, 0x64	; 100
    6070:	90 e0       	ldi	r25, 0x00	; 0
    6072:	0e 94 0c 0a 	call	0x1418	; 0x1418 <EEPROM_write_int(int, int)>
C:\Users\Ryan\Documents\GitHub\sport_main_code_2023/sport_menu.h:633
        EEPROM_write_int(red_front_g, green);
    6076:	60 91 c9 08 	lds	r22, 0x08C9	; 0x8008c9 <green>
    607a:	70 91 ca 08 	lds	r23, 0x08CA	; 0x8008ca <green+0x1>
    607e:	86 e6       	ldi	r24, 0x66	; 102
    6080:	90 e0       	ldi	r25, 0x00	; 0
    6082:	0e 94 0c 0a 	call	0x1418	; 0x1418 <EEPROM_write_int(int, int)>
C:\Users\Ryan\Documents\GitHub\sport_main_code_2023/sport_menu.h:634
        EEPROM_write_int(red_front_b, blue);
    6086:	60 91 c7 08 	lds	r22, 0x08C7	; 0x8008c7 <blue>
    608a:	70 91 c8 08 	lds	r23, 0x08C8	; 0x8008c8 <blue+0x1>
    608e:	88 e6       	ldi	r24, 0x68	; 104
    6090:	90 e0       	ldi	r25, 0x00	; 0
    6092:	0e 94 0c 0a 	call	0x1418	; 0x1418 <EEPROM_write_int(int, int)>
C:\Users\Ryan\Documents\GitHub\sport_main_code_2023/sport_menu.h:635
        EEPROM_write_int(red_front_c, clear);
    6096:	60 91 c5 08 	lds	r22, 0x08C5	; 0x8008c5 <clear>
    609a:	70 91 c6 08 	lds	r23, 0x08C6	; 0x8008c6 <clear+0x1>
    609e:	8a e6       	ldi	r24, 0x6A	; 106
    60a0:	90 e0       	ldi	r25, 0x00	; 0
    60a2:	0e 94 0c 0a 	call	0x1418	; 0x1418 <EEPROM_write_int(int, int)>
main():
C:\Users\Ryan\Documents\GitHub\sport_main_code_2023/sport_menu.h:636
        red_f_calibrated = 1;
    60a6:	c1 e0       	ldi	r28, 0x01	; 1
    60a8:	d6 cc       	rjmp	.-1620   	; 0x5a56 <main+0x168e>
color_detection():
C:\Users\Ryan\Documents\GitHub\sport_main_code_2023/sport_menu.h:1982
        move(Left,T90,150);
        archery();
      }
    }
  }
  else if (right_card != WHITE) {
    60aa:	87 30       	cpi	r24, 0x07	; 7
    60ac:	91 05       	cpc	r25, r1
    60ae:	11 f4       	brne	.+4      	; 0x60b4 <main+0x1cec>
    60b0:	0c 94 c0 25 	jmp	0x4b80	; 0x4b80 <main+0x7b8>
C:\Users\Ryan\Documents\GitHub\sport_main_code_2023/sport_menu.h:1983
    if (right_card == GREEN) {
    60b4:	01 97       	sbiw	r24, 0x01	; 1
    60b6:	49 f5       	brne	.+82     	; 0x610a <main+0x1d42>
C:\Users\Ryan\Documents\GitHub\sport_main_code_2023/sport_menu.h:1984
        go(0, 0);
    60b8:	70 e0       	ldi	r23, 0x00	; 0
    60ba:	60 e0       	ldi	r22, 0x00	; 0
    60bc:	90 e0       	ldi	r25, 0x00	; 0
    60be:	80 e0       	ldi	r24, 0x00	; 0
    60c0:	0e 94 d0 06 	call	0xda0	; 0xda0 <go(int, int)>
C:\Users\Ryan\Documents\GitHub\sport_main_code_2023/sport_menu.h:1985
        beep(1);
    60c4:	81 e0       	ldi	r24, 0x01	; 1
    60c6:	90 e0       	ldi	r25, 0x00	; 0
    60c8:	0e 94 2e 08 	call	0x105c	; 0x105c <beep(int)>
C:\Users\Ryan\Documents\GitHub\sport_main_code_2023/sport_menu.h:1986
      if (color_R == GREEN) {
    60cc:	82 e0       	ldi	r24, 0x02	; 2
    60ce:	0e 94 32 0a 	call	0x1464	; 0x1464 <color(char)>
    60d2:	81 30       	cpi	r24, 0x01	; 1
    60d4:	09 f0       	breq	.+2      	; 0x60d8 <main+0x1d10>
    60d6:	44 c0       	rjmp	.+136    	; 0x6160 <main+0x1d98>
C:\Users\Ryan\Documents\GitHub\sport_main_code_2023/sport_menu.h:1987
        lcd.clear();
    60d8:	0e 94 bf 05 	call	0xb7e	; 0xb7e <LiquidCrystal::clear() [clone .constprop.38]>
C:\Users\Ryan\Documents\GitHub\sport_main_code_2023/sport_menu.h:1988
        lcd.print("Football");
    60dc:	86 e3       	ldi	r24, 0x36	; 54
    60de:	98 e0       	ldi	r25, 0x08	; 8
    60e0:	0e 94 ff 09 	call	0x13fe	; 0x13fe <Print::print(char const*) [clone .constprop.9]>
C:\Users\Ryan\Documents\GitHub\sport_main_code_2023/sport_menu.h:1989
        move(forward,T90/3,100);
    60e4:	ce 01       	movw	r24, r28
    60e6:	b8 01       	movw	r22, r16
    60e8:	0e 94 d0 35 	call	0x6ba0	; 0x6ba0 <__divmodhi4>
    60ec:	44 e6       	ldi	r20, 0x64	; 100
    60ee:	50 e0       	ldi	r21, 0x00	; 0
    60f0:	8a e0       	ldi	r24, 0x0A	; 10
    60f2:	90 e0       	ldi	r25, 0x00	; 0
    60f4:	0e 94 35 07 	call	0xe6a	; 0xe6a <move(int, int, int)>
C:\Users\Ryan\Documents\GitHub\sport_main_code_2023/sport_menu.h:1990
        move(Right,T90,150);
    60f8:	46 e9       	ldi	r20, 0x96	; 150
    60fa:	50 e0       	ldi	r21, 0x00	; 0
    60fc:	be 01       	movw	r22, r28
    60fe:	8c e0       	ldi	r24, 0x0C	; 12
    6100:	90 e0       	ldi	r25, 0x00	; 0
    6102:	0e 94 35 07 	call	0xe6a	; 0xe6a <move(int, int, int)>
C:\Users\Ryan\Documents\GitHub\sport_main_code_2023/sport_menu.h:1991
        football();
    6106:	0e 94 57 12 	call	0x24ae	; 0x24ae <football()>
C:\Users\Ryan\Documents\GitHub\sport_main_code_2023/sport_menu.h:1994
      }
    }
    if (right_card == SILVER) {
    610a:	80 91 06 01 	lds	r24, 0x0106	; 0x800106 <right_card>
    610e:	90 91 07 01 	lds	r25, 0x0107	; 0x800107 <right_card+0x1>
    6112:	05 97       	sbiw	r24, 0x05	; 5
    6114:	29 f5       	brne	.+74     	; 0x6160 <main+0x1d98>
C:\Users\Ryan\Documents\GitHub\sport_main_code_2023/sport_menu.h:1995
      go(0, 0);
    6116:	70 e0       	ldi	r23, 0x00	; 0
    6118:	60 e0       	ldi	r22, 0x00	; 0
    611a:	90 e0       	ldi	r25, 0x00	; 0
    611c:	80 e0       	ldi	r24, 0x00	; 0
    611e:	0e 94 d0 06 	call	0xda0	; 0xda0 <go(int, int)>
C:\Users\Ryan\Documents\GitHub\sport_main_code_2023/sport_menu.h:1996
      if (color_R == SILVER) {
    6122:	82 e0       	ldi	r24, 0x02	; 2
    6124:	0e 94 32 0a 	call	0x1464	; 0x1464 <color(char)>
    6128:	85 30       	cpi	r24, 0x05	; 5
    612a:	09 f0       	breq	.+2      	; 0x612e <main+0x1d66>
    612c:	44 c0       	rjmp	.+136    	; 0x61b6 <main+0x1dee>
C:\Users\Ryan\Documents\GitHub\sport_main_code_2023/sport_menu.h:1997
        lcd.clear();
    612e:	0e 94 bf 05 	call	0xb7e	; 0xb7e <LiquidCrystal::clear() [clone .constprop.38]>
C:\Users\Ryan\Documents\GitHub\sport_main_code_2023/sport_menu.h:1998
        lcd.print("Obstacle");
    6132:	8f e3       	ldi	r24, 0x3F	; 63
    6134:	98 e0       	ldi	r25, 0x08	; 8
    6136:	0e 94 ff 09 	call	0x13fe	; 0x13fe <Print::print(char const*) [clone .constprop.9]>
C:\Users\Ryan\Documents\GitHub\sport_main_code_2023/sport_menu.h:1999
        move(forward,T90/3,100);
    613a:	ce 01       	movw	r24, r28
    613c:	b8 01       	movw	r22, r16
    613e:	0e 94 d0 35 	call	0x6ba0	; 0x6ba0 <__divmodhi4>
    6142:	44 e6       	ldi	r20, 0x64	; 100
    6144:	50 e0       	ldi	r21, 0x00	; 0
    6146:	8a e0       	ldi	r24, 0x0A	; 10
    6148:	90 e0       	ldi	r25, 0x00	; 0
    614a:	0e 94 35 07 	call	0xe6a	; 0xe6a <move(int, int, int)>
C:\Users\Ryan\Documents\GitHub\sport_main_code_2023/sport_menu.h:2000
        move(Right,T90,150);
    614e:	46 e9       	ldi	r20, 0x96	; 150
    6150:	50 e0       	ldi	r21, 0x00	; 0
    6152:	be 01       	movw	r22, r28
    6154:	8c e0       	ldi	r24, 0x0C	; 12
    6156:	90 e0       	ldi	r25, 0x00	; 0
    6158:	0e 94 35 07 	call	0xe6a	; 0xe6a <move(int, int, int)>
C:\Users\Ryan\Documents\GitHub\sport_main_code_2023/sport_menu.h:2001
        obstacle();
    615c:	0e 94 90 10 	call	0x2120	; 0x2120 <obstacle()>
C:\Users\Ryan\Documents\GitHub\sport_main_code_2023/sport_menu.h:2004
      }
    }
    if (right_card == BLUE) {
    6160:	80 91 06 01 	lds	r24, 0x0106	; 0x800106 <right_card>
    6164:	90 91 07 01 	lds	r25, 0x0107	; 0x800107 <right_card+0x1>
    6168:	02 97       	sbiw	r24, 0x02	; 2
    616a:	29 f5       	brne	.+74     	; 0x61b6 <main+0x1dee>
C:\Users\Ryan\Documents\GitHub\sport_main_code_2023/sport_menu.h:2005
      go(0, 0);
    616c:	70 e0       	ldi	r23, 0x00	; 0
    616e:	60 e0       	ldi	r22, 0x00	; 0
    6170:	90 e0       	ldi	r25, 0x00	; 0
    6172:	80 e0       	ldi	r24, 0x00	; 0
    6174:	0e 94 d0 06 	call	0xda0	; 0xda0 <go(int, int)>
C:\Users\Ryan\Documents\GitHub\sport_main_code_2023/sport_menu.h:2006
      if (color_R == BLUE) {
    6178:	82 e0       	ldi	r24, 0x02	; 2
    617a:	0e 94 32 0a 	call	0x1464	; 0x1464 <color(char)>
    617e:	82 30       	cpi	r24, 0x02	; 2
    6180:	09 f0       	breq	.+2      	; 0x6184 <main+0x1dbc>
    6182:	46 c0       	rjmp	.+140    	; 0x6210 <main+0x1e48>
C:\Users\Ryan\Documents\GitHub\sport_main_code_2023/sport_menu.h:2007
        lcd.clear();
    6184:	0e 94 bf 05 	call	0xb7e	; 0xb7e <LiquidCrystal::clear() [clone .constprop.38]>
C:\Users\Ryan\Documents\GitHub\sport_main_code_2023/sport_menu.h:2008
        lcd.print("weight lift");
    6188:	88 e4       	ldi	r24, 0x48	; 72
    618a:	98 e0       	ldi	r25, 0x08	; 8
    618c:	0e 94 ff 09 	call	0x13fe	; 0x13fe <Print::print(char const*) [clone .constprop.9]>
C:\Users\Ryan\Documents\GitHub\sport_main_code_2023/sport_menu.h:2009
        move(forward,T90/3,100);
    6190:	ce 01       	movw	r24, r28
    6192:	b8 01       	movw	r22, r16
    6194:	0e 94 d0 35 	call	0x6ba0	; 0x6ba0 <__divmodhi4>
    6198:	44 e6       	ldi	r20, 0x64	; 100
    619a:	50 e0       	ldi	r21, 0x00	; 0
    619c:	8a e0       	ldi	r24, 0x0A	; 10
    619e:	90 e0       	ldi	r25, 0x00	; 0
    61a0:	0e 94 35 07 	call	0xe6a	; 0xe6a <move(int, int, int)>
C:\Users\Ryan\Documents\GitHub\sport_main_code_2023/sport_menu.h:2010
        move(Right,T90,150);
    61a4:	46 e9       	ldi	r20, 0x96	; 150
    61a6:	50 e0       	ldi	r21, 0x00	; 0
    61a8:	be 01       	movw	r22, r28
    61aa:	8c e0       	ldi	r24, 0x0C	; 12
    61ac:	90 e0       	ldi	r25, 0x00	; 0
    61ae:	0e 94 35 07 	call	0xe6a	; 0xe6a <move(int, int, int)>
C:\Users\Ryan\Documents\GitHub\sport_main_code_2023/sport_menu.h:2011
        wlift();
    61b2:	0e 94 0b 13 	call	0x2616	; 0x2616 <wlift()>
C:\Users\Ryan\Documents\GitHub\sport_main_code_2023/sport_menu.h:2014
      }
    }
    if (right_card == RED) {
    61b6:	80 91 06 01 	lds	r24, 0x0106	; 0x800106 <right_card>
    61ba:	90 91 07 01 	lds	r25, 0x0107	; 0x800107 <right_card+0x1>
    61be:	89 2b       	or	r24, r25
    61c0:	39 f5       	brne	.+78     	; 0x6210 <main+0x1e48>
C:\Users\Ryan\Documents\GitHub\sport_main_code_2023/sport_menu.h:2015
      go(0, 0);
    61c2:	70 e0       	ldi	r23, 0x00	; 0
    61c4:	60 e0       	ldi	r22, 0x00	; 0
    61c6:	90 e0       	ldi	r25, 0x00	; 0
    61c8:	80 e0       	ldi	r24, 0x00	; 0
    61ca:	0e 94 d0 06 	call	0xda0	; 0xda0 <go(int, int)>
C:\Users\Ryan\Documents\GitHub\sport_main_code_2023/sport_menu.h:2016
      if (color_R == RED) {
    61ce:	82 e0       	ldi	r24, 0x02	; 2
    61d0:	0e 94 32 0a 	call	0x1464	; 0x1464 <color(char)>
    61d4:	81 11       	cpse	r24, r1
    61d6:	0c 94 c0 25 	jmp	0x4b80	; 0x4b80 <main+0x7b8>
C:\Users\Ryan\Documents\GitHub\sport_main_code_2023/sport_menu.h:2017
        lcd.clear();
    61da:	0e 94 bf 05 	call	0xb7e	; 0xb7e <LiquidCrystal::clear() [clone .constprop.38]>
C:\Users\Ryan\Documents\GitHub\sport_main_code_2023/sport_menu.h:2018
        lcd.print("Trck");
    61de:	84 e5       	ldi	r24, 0x54	; 84
    61e0:	98 e0       	ldi	r25, 0x08	; 8
    61e2:	0e 94 ff 09 	call	0x13fe	; 0x13fe <Print::print(char const*) [clone .constprop.9]>
C:\Users\Ryan\Documents\GitHub\sport_main_code_2023/sport_menu.h:2019
        move(forward,T90/3,100);
    61e6:	ce 01       	movw	r24, r28
    61e8:	b8 01       	movw	r22, r16
    61ea:	0e 94 d0 35 	call	0x6ba0	; 0x6ba0 <__divmodhi4>
    61ee:	44 e6       	ldi	r20, 0x64	; 100
    61f0:	50 e0       	ldi	r21, 0x00	; 0
    61f2:	8a e0       	ldi	r24, 0x0A	; 10
    61f4:	90 e0       	ldi	r25, 0x00	; 0
    61f6:	0e 94 35 07 	call	0xe6a	; 0xe6a <move(int, int, int)>
C:\Users\Ryan\Documents\GitHub\sport_main_code_2023/sport_menu.h:2020
        move(Right,T90,150);
    61fa:	46 e9       	ldi	r20, 0x96	; 150
    61fc:	50 e0       	ldi	r21, 0x00	; 0
    61fe:	be 01       	movw	r22, r28
    6200:	8c e0       	ldi	r24, 0x0C	; 12
    6202:	90 e0       	ldi	r25, 0x00	; 0
    6204:	0e 94 35 07 	call	0xe6a	; 0xe6a <move(int, int, int)>
C:\Users\Ryan\Documents\GitHub\sport_main_code_2023/sport_menu.h:2021
        track(4,Right);
    6208:	8c e0       	ldi	r24, 0x0C	; 12
    620a:	90 e0       	ldi	r25, 0x00	; 0
    620c:	0e 94 33 0f 	call	0x1e66	; 0x1e66 <track(int, int) [clone .constprop.3]>
C:\Users\Ryan\Documents\GitHub\sport_main_code_2023/sport_menu.h:2024
      }
    }
    if (right_card == YELLOW) {
    6210:	80 91 06 01 	lds	r24, 0x0106	; 0x800106 <right_card>
    6214:	90 91 07 01 	lds	r25, 0x0107	; 0x800107 <right_card+0x1>
    6218:	04 97       	sbiw	r24, 0x04	; 4
    621a:	11 f0       	breq	.+4      	; 0x6220 <main+0x1e58>
    621c:	0c 94 c0 25 	jmp	0x4b80	; 0x4b80 <main+0x7b8>
C:\Users\Ryan\Documents\GitHub\sport_main_code_2023/sport_menu.h:2025
      go(0, 0);
    6220:	70 e0       	ldi	r23, 0x00	; 0
    6222:	60 e0       	ldi	r22, 0x00	; 0
    6224:	90 e0       	ldi	r25, 0x00	; 0
    6226:	80 e0       	ldi	r24, 0x00	; 0
    6228:	0e 94 d0 06 	call	0xda0	; 0xda0 <go(int, int)>
C:\Users\Ryan\Documents\GitHub\sport_main_code_2023/sport_menu.h:2026
      if (color_R == YELLOW) {
    622c:	82 e0       	ldi	r24, 0x02	; 2
    622e:	0e 94 32 0a 	call	0x1464	; 0x1464 <color(char)>
    6232:	84 30       	cpi	r24, 0x04	; 4
    6234:	11 f0       	breq	.+4      	; 0x623a <main+0x1e72>
    6236:	0c 94 c0 25 	jmp	0x4b80	; 0x4b80 <main+0x7b8>
C:\Users\Ryan\Documents\GitHub\sport_main_code_2023/sport_menu.h:2027
        lcd.clear();
    623a:	0e 94 bf 05 	call	0xb7e	; 0xb7e <LiquidCrystal::clear() [clone .constprop.38]>
C:\Users\Ryan\Documents\GitHub\sport_main_code_2023/sport_menu.h:2028
        lcd.print("archery");
    623e:	89 e5       	ldi	r24, 0x59	; 89
    6240:	98 e0       	ldi	r25, 0x08	; 8
    6242:	0e 94 ff 09 	call	0x13fe	; 0x13fe <Print::print(char const*) [clone .constprop.9]>
C:\Users\Ryan\Documents\GitHub\sport_main_code_2023/sport_menu.h:2029
        move(forward,T90/3,100);
    6246:	ce 01       	movw	r24, r28
    6248:	b8 01       	movw	r22, r16
    624a:	0e 94 d0 35 	call	0x6ba0	; 0x6ba0 <__divmodhi4>
    624e:	44 e6       	ldi	r20, 0x64	; 100
    6250:	50 e0       	ldi	r21, 0x00	; 0
    6252:	8a e0       	ldi	r24, 0x0A	; 10
    6254:	90 e0       	ldi	r25, 0x00	; 0
    6256:	0e 94 35 07 	call	0xe6a	; 0xe6a <move(int, int, int)>
C:\Users\Ryan\Documents\GitHub\sport_main_code_2023/sport_menu.h:2030
        move(Right,T90,150);
    625a:	46 e9       	ldi	r20, 0x96	; 150
    625c:	50 e0       	ldi	r21, 0x00	; 0
    625e:	be 01       	movw	r22, r28
    6260:	8c e0       	ldi	r24, 0x0C	; 12
    6262:	90 e0       	ldi	r25, 0x00	; 0
    6264:	0c 94 bc 25 	jmp	0x4b78	; 0x4b78 <main+0x7b0>

00006268 <vfprintf>:
vfprintf():
    6268:	2f 92       	push	r2
    626a:	3f 92       	push	r3
    626c:	4f 92       	push	r4
    626e:	5f 92       	push	r5
    6270:	6f 92       	push	r6
    6272:	7f 92       	push	r7
    6274:	8f 92       	push	r8
    6276:	9f 92       	push	r9
    6278:	af 92       	push	r10
    627a:	bf 92       	push	r11
    627c:	cf 92       	push	r12
    627e:	df 92       	push	r13
    6280:	ef 92       	push	r14
    6282:	ff 92       	push	r15
    6284:	0f 93       	push	r16
    6286:	1f 93       	push	r17
    6288:	cf 93       	push	r28
    628a:	df 93       	push	r29
    628c:	cd b7       	in	r28, 0x3d	; 61
    628e:	de b7       	in	r29, 0x3e	; 62
    6290:	2b 97       	sbiw	r28, 0x0b	; 11
    6292:	0f b6       	in	r0, 0x3f	; 63
    6294:	f8 94       	cli
    6296:	de bf       	out	0x3e, r29	; 62
    6298:	0f be       	out	0x3f, r0	; 63
    629a:	cd bf       	out	0x3d, r28	; 61
    629c:	7c 01       	movw	r14, r24
    629e:	3b 01       	movw	r6, r22
    62a0:	8a 01       	movw	r16, r20
    62a2:	fc 01       	movw	r30, r24
    62a4:	17 82       	std	Z+7, r1	; 0x07
    62a6:	16 82       	std	Z+6, r1	; 0x06
    62a8:	83 81       	ldd	r24, Z+3	; 0x03
    62aa:	81 ff       	sbrs	r24, 1
    62ac:	dd c1       	rjmp	.+954    	; 0x6668 <vfprintf+0x400>
    62ae:	ce 01       	movw	r24, r28
    62b0:	01 96       	adiw	r24, 0x01	; 1
    62b2:	5c 01       	movw	r10, r24
    62b4:	f7 01       	movw	r30, r14
    62b6:	93 81       	ldd	r25, Z+3	; 0x03
    62b8:	f3 01       	movw	r30, r6
    62ba:	93 fd       	sbrc	r25, 3
    62bc:	85 91       	lpm	r24, Z+
    62be:	93 ff       	sbrs	r25, 3
    62c0:	81 91       	ld	r24, Z+
    62c2:	3f 01       	movw	r6, r30
    62c4:	88 23       	and	r24, r24
    62c6:	09 f4       	brne	.+2      	; 0x62ca <vfprintf+0x62>
    62c8:	53 c1       	rjmp	.+678    	; 0x6570 <vfprintf+0x308>
    62ca:	85 32       	cpi	r24, 0x25	; 37
    62cc:	39 f4       	brne	.+14     	; 0x62dc <vfprintf+0x74>
    62ce:	93 fd       	sbrc	r25, 3
    62d0:	85 91       	lpm	r24, Z+
    62d2:	93 ff       	sbrs	r25, 3
    62d4:	81 91       	ld	r24, Z+
    62d6:	3f 01       	movw	r6, r30
    62d8:	85 32       	cpi	r24, 0x25	; 37
    62da:	29 f4       	brne	.+10     	; 0x62e6 <vfprintf+0x7e>
    62dc:	b7 01       	movw	r22, r14
    62de:	90 e0       	ldi	r25, 0x00	; 0
    62e0:	0e 94 4d 33 	call	0x669a	; 0x669a <fputc>
    62e4:	e7 cf       	rjmp	.-50     	; 0x62b4 <vfprintf+0x4c>
    62e6:	91 2c       	mov	r9, r1
    62e8:	21 2c       	mov	r2, r1
    62ea:	31 2c       	mov	r3, r1
    62ec:	ff e1       	ldi	r31, 0x1F	; 31
    62ee:	f3 15       	cp	r31, r3
    62f0:	38 f0       	brcs	.+14     	; 0x6300 <vfprintf+0x98>
    62f2:	8b 32       	cpi	r24, 0x2B	; 43
    62f4:	11 f1       	breq	.+68     	; 0x633a <vfprintf+0xd2>
    62f6:	90 f4       	brcc	.+36     	; 0x631c <vfprintf+0xb4>
    62f8:	80 32       	cpi	r24, 0x20	; 32
    62fa:	09 f1       	breq	.+66     	; 0x633e <vfprintf+0xd6>
    62fc:	83 32       	cpi	r24, 0x23	; 35
    62fe:	29 f1       	breq	.+74     	; 0x634a <vfprintf+0xe2>
    6300:	37 fc       	sbrc	r3, 7
    6302:	3c c0       	rjmp	.+120    	; 0x637c <vfprintf+0x114>
    6304:	20 ed       	ldi	r18, 0xD0	; 208
    6306:	28 0f       	add	r18, r24
    6308:	2a 30       	cpi	r18, 0x0A	; 10
    630a:	50 f5       	brcc	.+84     	; 0x6360 <vfprintf+0xf8>
    630c:	36 fe       	sbrs	r3, 6
    630e:	20 c0       	rjmp	.+64     	; 0x6350 <vfprintf+0xe8>
    6310:	8a e0       	ldi	r24, 0x0A	; 10
    6312:	98 9e       	mul	r9, r24
    6314:	20 0d       	add	r18, r0
    6316:	11 24       	eor	r1, r1
    6318:	92 2e       	mov	r9, r18
    631a:	06 c0       	rjmp	.+12     	; 0x6328 <vfprintf+0xc0>
    631c:	8d 32       	cpi	r24, 0x2D	; 45
    631e:	91 f0       	breq	.+36     	; 0x6344 <vfprintf+0xdc>
    6320:	80 33       	cpi	r24, 0x30	; 48
    6322:	71 f7       	brne	.-36     	; 0x6300 <vfprintf+0x98>
    6324:	68 94       	set
    6326:	30 f8       	bld	r3, 0
    6328:	f3 01       	movw	r30, r6
    632a:	93 fd       	sbrc	r25, 3
    632c:	85 91       	lpm	r24, Z+
    632e:	93 ff       	sbrs	r25, 3
    6330:	81 91       	ld	r24, Z+
    6332:	3f 01       	movw	r6, r30
    6334:	81 11       	cpse	r24, r1
    6336:	da cf       	rjmp	.-76     	; 0x62ec <vfprintf+0x84>
    6338:	21 c0       	rjmp	.+66     	; 0x637c <vfprintf+0x114>
    633a:	68 94       	set
    633c:	31 f8       	bld	r3, 1
    633e:	68 94       	set
    6340:	32 f8       	bld	r3, 2
    6342:	f2 cf       	rjmp	.-28     	; 0x6328 <vfprintf+0xc0>
    6344:	68 94       	set
    6346:	33 f8       	bld	r3, 3
    6348:	ef cf       	rjmp	.-34     	; 0x6328 <vfprintf+0xc0>
    634a:	68 94       	set
    634c:	34 f8       	bld	r3, 4
    634e:	ec cf       	rjmp	.-40     	; 0x6328 <vfprintf+0xc0>
    6350:	ea e0       	ldi	r30, 0x0A	; 10
    6352:	2e 9e       	mul	r2, r30
    6354:	20 0d       	add	r18, r0
    6356:	11 24       	eor	r1, r1
    6358:	22 2e       	mov	r2, r18
    635a:	68 94       	set
    635c:	35 f8       	bld	r3, 5
    635e:	e4 cf       	rjmp	.-56     	; 0x6328 <vfprintf+0xc0>
    6360:	8e 32       	cpi	r24, 0x2E	; 46
    6362:	29 f4       	brne	.+10     	; 0x636e <vfprintf+0x106>
    6364:	36 fc       	sbrc	r3, 6
    6366:	04 c1       	rjmp	.+520    	; 0x6570 <vfprintf+0x308>
    6368:	68 94       	set
    636a:	36 f8       	bld	r3, 6
    636c:	dd cf       	rjmp	.-70     	; 0x6328 <vfprintf+0xc0>
    636e:	8c 36       	cpi	r24, 0x6C	; 108
    6370:	19 f4       	brne	.+6      	; 0x6378 <vfprintf+0x110>
    6372:	68 94       	set
    6374:	37 f8       	bld	r3, 7
    6376:	d8 cf       	rjmp	.-80     	; 0x6328 <vfprintf+0xc0>
    6378:	88 36       	cpi	r24, 0x68	; 104
    637a:	b1 f2       	breq	.-84     	; 0x6328 <vfprintf+0xc0>
    637c:	98 2f       	mov	r25, r24
    637e:	9f 7d       	andi	r25, 0xDF	; 223
    6380:	95 54       	subi	r25, 0x45	; 69
    6382:	93 30       	cpi	r25, 0x03	; 3
    6384:	e0 f0       	brcs	.+56     	; 0x63be <vfprintf+0x156>
    6386:	83 36       	cpi	r24, 0x63	; 99
    6388:	a1 f1       	breq	.+104    	; 0x63f2 <vfprintf+0x18a>
    638a:	83 37       	cpi	r24, 0x73	; 115
    638c:	c1 f1       	breq	.+112    	; 0x63fe <vfprintf+0x196>
    638e:	83 35       	cpi	r24, 0x53	; 83
    6390:	09 f0       	breq	.+2      	; 0x6394 <vfprintf+0x12c>
    6392:	63 c0       	rjmp	.+198    	; 0x645a <vfprintf+0x1f2>
    6394:	28 01       	movw	r4, r16
    6396:	f2 e0       	ldi	r31, 0x02	; 2
    6398:	4f 0e       	add	r4, r31
    639a:	51 1c       	adc	r5, r1
    639c:	f8 01       	movw	r30, r16
    639e:	c0 80       	ld	r12, Z
    63a0:	d1 80       	ldd	r13, Z+1	; 0x01
    63a2:	69 2d       	mov	r22, r9
    63a4:	70 e0       	ldi	r23, 0x00	; 0
    63a6:	36 fc       	sbrc	r3, 6
    63a8:	02 c0       	rjmp	.+4      	; 0x63ae <vfprintf+0x146>
    63aa:	6f ef       	ldi	r22, 0xFF	; 255
    63ac:	7f ef       	ldi	r23, 0xFF	; 255
    63ae:	c6 01       	movw	r24, r12
    63b0:	0e 94 37 33 	call	0x666e	; 0x666e <strnlen_P>
    63b4:	4c 01       	movw	r8, r24
    63b6:	68 94       	set
    63b8:	37 f8       	bld	r3, 7
    63ba:	82 01       	movw	r16, r4
    63bc:	0a c0       	rjmp	.+20     	; 0x63d2 <vfprintf+0x16a>
    63be:	0c 5f       	subi	r16, 0xFC	; 252
    63c0:	1f 4f       	sbci	r17, 0xFF	; 255
    63c2:	ff e3       	ldi	r31, 0x3F	; 63
    63c4:	f9 83       	std	Y+1, r31	; 0x01
    63c6:	88 24       	eor	r8, r8
    63c8:	83 94       	inc	r8
    63ca:	91 2c       	mov	r9, r1
    63cc:	65 01       	movw	r12, r10
    63ce:	e8 94       	clt
    63d0:	37 f8       	bld	r3, 7
    63d2:	33 fe       	sbrs	r3, 3
    63d4:	2d c0       	rjmp	.+90     	; 0x6430 <vfprintf+0x1c8>
    63d6:	52 2c       	mov	r5, r2
    63d8:	81 14       	cp	r8, r1
    63da:	91 04       	cpc	r9, r1
    63dc:	71 f5       	brne	.+92     	; 0x643a <vfprintf+0x1d2>
    63de:	55 20       	and	r5, r5
    63e0:	09 f4       	brne	.+2      	; 0x63e4 <vfprintf+0x17c>
    63e2:	68 cf       	rjmp	.-304    	; 0x62b4 <vfprintf+0x4c>
    63e4:	b7 01       	movw	r22, r14
    63e6:	80 e2       	ldi	r24, 0x20	; 32
    63e8:	90 e0       	ldi	r25, 0x00	; 0
    63ea:	0e 94 4d 33 	call	0x669a	; 0x669a <fputc>
    63ee:	5a 94       	dec	r5
    63f0:	f6 cf       	rjmp	.-20     	; 0x63de <vfprintf+0x176>
    63f2:	f8 01       	movw	r30, r16
    63f4:	80 81       	ld	r24, Z
    63f6:	89 83       	std	Y+1, r24	; 0x01
    63f8:	0e 5f       	subi	r16, 0xFE	; 254
    63fa:	1f 4f       	sbci	r17, 0xFF	; 255
    63fc:	e4 cf       	rjmp	.-56     	; 0x63c6 <vfprintf+0x15e>
    63fe:	28 01       	movw	r4, r16
    6400:	f2 e0       	ldi	r31, 0x02	; 2
    6402:	4f 0e       	add	r4, r31
    6404:	51 1c       	adc	r5, r1
    6406:	f8 01       	movw	r30, r16
    6408:	c0 80       	ld	r12, Z
    640a:	d1 80       	ldd	r13, Z+1	; 0x01
    640c:	69 2d       	mov	r22, r9
    640e:	70 e0       	ldi	r23, 0x00	; 0
    6410:	36 fc       	sbrc	r3, 6
    6412:	02 c0       	rjmp	.+4      	; 0x6418 <vfprintf+0x1b0>
    6414:	6f ef       	ldi	r22, 0xFF	; 255
    6416:	7f ef       	ldi	r23, 0xFF	; 255
    6418:	c6 01       	movw	r24, r12
    641a:	0e 94 42 33 	call	0x6684	; 0x6684 <strnlen>
    641e:	4c 01       	movw	r8, r24
    6420:	82 01       	movw	r16, r4
    6422:	d5 cf       	rjmp	.-86     	; 0x63ce <vfprintf+0x166>
    6424:	b7 01       	movw	r22, r14
    6426:	80 e2       	ldi	r24, 0x20	; 32
    6428:	90 e0       	ldi	r25, 0x00	; 0
    642a:	0e 94 4d 33 	call	0x669a	; 0x669a <fputc>
    642e:	2a 94       	dec	r2
    6430:	28 14       	cp	r2, r8
    6432:	19 04       	cpc	r1, r9
    6434:	09 f0       	breq	.+2      	; 0x6438 <vfprintf+0x1d0>
    6436:	b0 f7       	brcc	.-20     	; 0x6424 <vfprintf+0x1bc>
    6438:	ce cf       	rjmp	.-100    	; 0x63d6 <vfprintf+0x16e>
    643a:	f6 01       	movw	r30, r12
    643c:	37 fc       	sbrc	r3, 7
    643e:	85 91       	lpm	r24, Z+
    6440:	37 fe       	sbrs	r3, 7
    6442:	81 91       	ld	r24, Z+
    6444:	6f 01       	movw	r12, r30
    6446:	b7 01       	movw	r22, r14
    6448:	90 e0       	ldi	r25, 0x00	; 0
    644a:	0e 94 4d 33 	call	0x669a	; 0x669a <fputc>
    644e:	51 10       	cpse	r5, r1
    6450:	5a 94       	dec	r5
    6452:	f1 e0       	ldi	r31, 0x01	; 1
    6454:	8f 1a       	sub	r8, r31
    6456:	91 08       	sbc	r9, r1
    6458:	bf cf       	rjmp	.-130    	; 0x63d8 <vfprintf+0x170>
    645a:	84 36       	cpi	r24, 0x64	; 100
    645c:	19 f0       	breq	.+6      	; 0x6464 <vfprintf+0x1fc>
    645e:	89 36       	cpi	r24, 0x69	; 105
    6460:	09 f0       	breq	.+2      	; 0x6464 <vfprintf+0x1fc>
    6462:	77 c0       	rjmp	.+238    	; 0x6552 <vfprintf+0x2ea>
    6464:	f8 01       	movw	r30, r16
    6466:	37 fe       	sbrs	r3, 7
    6468:	6b c0       	rjmp	.+214    	; 0x6540 <vfprintf+0x2d8>
    646a:	60 81       	ld	r22, Z
    646c:	71 81       	ldd	r23, Z+1	; 0x01
    646e:	82 81       	ldd	r24, Z+2	; 0x02
    6470:	93 81       	ldd	r25, Z+3	; 0x03
    6472:	0c 5f       	subi	r16, 0xFC	; 252
    6474:	1f 4f       	sbci	r17, 0xFF	; 255
    6476:	f3 2d       	mov	r31, r3
    6478:	ff 76       	andi	r31, 0x6F	; 111
    647a:	3f 2e       	mov	r3, r31
    647c:	97 ff       	sbrs	r25, 7
    647e:	09 c0       	rjmp	.+18     	; 0x6492 <vfprintf+0x22a>
    6480:	90 95       	com	r25
    6482:	80 95       	com	r24
    6484:	70 95       	com	r23
    6486:	61 95       	neg	r22
    6488:	7f 4f       	sbci	r23, 0xFF	; 255
    648a:	8f 4f       	sbci	r24, 0xFF	; 255
    648c:	9f 4f       	sbci	r25, 0xFF	; 255
    648e:	68 94       	set
    6490:	37 f8       	bld	r3, 7
    6492:	2a e0       	ldi	r18, 0x0A	; 10
    6494:	30 e0       	ldi	r19, 0x00	; 0
    6496:	a5 01       	movw	r20, r10
    6498:	0e 94 7d 33 	call	0x66fa	; 0x66fa <__ultoa_invert>
    649c:	c8 2e       	mov	r12, r24
    649e:	ca 18       	sub	r12, r10
    64a0:	8c 2c       	mov	r8, r12
    64a2:	43 2c       	mov	r4, r3
    64a4:	36 fe       	sbrs	r3, 6
    64a6:	0c c0       	rjmp	.+24     	; 0x64c0 <vfprintf+0x258>
    64a8:	e8 94       	clt
    64aa:	40 f8       	bld	r4, 0
    64ac:	c9 14       	cp	r12, r9
    64ae:	40 f4       	brcc	.+16     	; 0x64c0 <vfprintf+0x258>
    64b0:	34 fe       	sbrs	r3, 4
    64b2:	05 c0       	rjmp	.+10     	; 0x64be <vfprintf+0x256>
    64b4:	32 fc       	sbrc	r3, 2
    64b6:	03 c0       	rjmp	.+6      	; 0x64be <vfprintf+0x256>
    64b8:	f3 2d       	mov	r31, r3
    64ba:	fe 7e       	andi	r31, 0xEE	; 238
    64bc:	4f 2e       	mov	r4, r31
    64be:	89 2c       	mov	r8, r9
    64c0:	44 fe       	sbrs	r4, 4
    64c2:	aa c0       	rjmp	.+340    	; 0x6618 <vfprintf+0x3b0>
    64c4:	fe 01       	movw	r30, r28
    64c6:	ec 0d       	add	r30, r12
    64c8:	f1 1d       	adc	r31, r1
    64ca:	80 81       	ld	r24, Z
    64cc:	80 33       	cpi	r24, 0x30	; 48
    64ce:	09 f0       	breq	.+2      	; 0x64d2 <vfprintf+0x26a>
    64d0:	9c c0       	rjmp	.+312    	; 0x660a <vfprintf+0x3a2>
    64d2:	24 2d       	mov	r18, r4
    64d4:	29 7e       	andi	r18, 0xE9	; 233
    64d6:	42 2e       	mov	r4, r18
    64d8:	84 2d       	mov	r24, r4
    64da:	88 70       	andi	r24, 0x08	; 8
    64dc:	58 2e       	mov	r5, r24
    64de:	43 fc       	sbrc	r4, 3
    64e0:	aa c0       	rjmp	.+340    	; 0x6636 <vfprintf+0x3ce>
    64e2:	40 fe       	sbrs	r4, 0
    64e4:	a4 c0       	rjmp	.+328    	; 0x662e <vfprintf+0x3c6>
    64e6:	9c 2c       	mov	r9, r12
    64e8:	82 14       	cp	r8, r2
    64ea:	18 f4       	brcc	.+6      	; 0x64f2 <vfprintf+0x28a>
    64ec:	2c 0c       	add	r2, r12
    64ee:	92 2c       	mov	r9, r2
    64f0:	98 18       	sub	r9, r8
    64f2:	44 fe       	sbrs	r4, 4
    64f4:	a6 c0       	rjmp	.+332    	; 0x6642 <vfprintf+0x3da>
    64f6:	b7 01       	movw	r22, r14
    64f8:	80 e3       	ldi	r24, 0x30	; 48
    64fa:	90 e0       	ldi	r25, 0x00	; 0
    64fc:	0e 94 4d 33 	call	0x669a	; 0x669a <fputc>
    6500:	42 fe       	sbrs	r4, 2
    6502:	09 c0       	rjmp	.+18     	; 0x6516 <vfprintf+0x2ae>
    6504:	88 e7       	ldi	r24, 0x78	; 120
    6506:	90 e0       	ldi	r25, 0x00	; 0
    6508:	41 fe       	sbrs	r4, 1
    650a:	02 c0       	rjmp	.+4      	; 0x6510 <vfprintf+0x2a8>
    650c:	88 e5       	ldi	r24, 0x58	; 88
    650e:	90 e0       	ldi	r25, 0x00	; 0
    6510:	b7 01       	movw	r22, r14
    6512:	0e 94 4d 33 	call	0x669a	; 0x669a <fputc>
    6516:	c9 14       	cp	r12, r9
    6518:	08 f4       	brcc	.+2      	; 0x651c <vfprintf+0x2b4>
    651a:	9f c0       	rjmp	.+318    	; 0x665a <vfprintf+0x3f2>
    651c:	ca 94       	dec	r12
    651e:	d1 2c       	mov	r13, r1
    6520:	9f ef       	ldi	r25, 0xFF	; 255
    6522:	c9 1a       	sub	r12, r25
    6524:	d9 0a       	sbc	r13, r25
    6526:	ca 0c       	add	r12, r10
    6528:	db 1c       	adc	r13, r11
    652a:	f6 01       	movw	r30, r12
    652c:	82 91       	ld	r24, -Z
    652e:	6f 01       	movw	r12, r30
    6530:	b7 01       	movw	r22, r14
    6532:	90 e0       	ldi	r25, 0x00	; 0
    6534:	0e 94 4d 33 	call	0x669a	; 0x669a <fputc>
    6538:	ac 14       	cp	r10, r12
    653a:	bd 04       	cpc	r11, r13
    653c:	b1 f7       	brne	.-20     	; 0x652a <vfprintf+0x2c2>
    653e:	4f cf       	rjmp	.-354    	; 0x63de <vfprintf+0x176>
    6540:	60 81       	ld	r22, Z
    6542:	71 81       	ldd	r23, Z+1	; 0x01
    6544:	07 2e       	mov	r0, r23
    6546:	00 0c       	add	r0, r0
    6548:	88 0b       	sbc	r24, r24
    654a:	99 0b       	sbc	r25, r25
    654c:	0e 5f       	subi	r16, 0xFE	; 254
    654e:	1f 4f       	sbci	r17, 0xFF	; 255
    6550:	92 cf       	rjmp	.-220    	; 0x6476 <vfprintf+0x20e>
    6552:	d3 2c       	mov	r13, r3
    6554:	e8 94       	clt
    6556:	d4 f8       	bld	r13, 4
    6558:	2a e0       	ldi	r18, 0x0A	; 10
    655a:	30 e0       	ldi	r19, 0x00	; 0
    655c:	85 37       	cpi	r24, 0x75	; 117
    655e:	e1 f1       	breq	.+120    	; 0x65d8 <vfprintf+0x370>
    6560:	23 2d       	mov	r18, r3
    6562:	29 7f       	andi	r18, 0xF9	; 249
    6564:	d2 2e       	mov	r13, r18
    6566:	8f 36       	cpi	r24, 0x6F	; 111
    6568:	a9 f1       	breq	.+106    	; 0x65d4 <vfprintf+0x36c>
    656a:	f0 f4       	brcc	.+60     	; 0x65a8 <vfprintf+0x340>
    656c:	88 35       	cpi	r24, 0x58	; 88
    656e:	51 f1       	breq	.+84     	; 0x65c4 <vfprintf+0x35c>
    6570:	f7 01       	movw	r30, r14
    6572:	86 81       	ldd	r24, Z+6	; 0x06
    6574:	97 81       	ldd	r25, Z+7	; 0x07
    6576:	2b 96       	adiw	r28, 0x0b	; 11
    6578:	0f b6       	in	r0, 0x3f	; 63
    657a:	f8 94       	cli
    657c:	de bf       	out	0x3e, r29	; 62
    657e:	0f be       	out	0x3f, r0	; 63
    6580:	cd bf       	out	0x3d, r28	; 61
    6582:	df 91       	pop	r29
    6584:	cf 91       	pop	r28
    6586:	1f 91       	pop	r17
    6588:	0f 91       	pop	r16
    658a:	ff 90       	pop	r15
    658c:	ef 90       	pop	r14
    658e:	df 90       	pop	r13
    6590:	cf 90       	pop	r12
    6592:	bf 90       	pop	r11
    6594:	af 90       	pop	r10
    6596:	9f 90       	pop	r9
    6598:	8f 90       	pop	r8
    659a:	7f 90       	pop	r7
    659c:	6f 90       	pop	r6
    659e:	5f 90       	pop	r5
    65a0:	4f 90       	pop	r4
    65a2:	3f 90       	pop	r3
    65a4:	2f 90       	pop	r2
    65a6:	08 95       	ret
    65a8:	80 37       	cpi	r24, 0x70	; 112
    65aa:	49 f0       	breq	.+18     	; 0x65be <vfprintf+0x356>
    65ac:	88 37       	cpi	r24, 0x78	; 120
    65ae:	01 f7       	brne	.-64     	; 0x6570 <vfprintf+0x308>
    65b0:	d4 fe       	sbrs	r13, 4
    65b2:	02 c0       	rjmp	.+4      	; 0x65b8 <vfprintf+0x350>
    65b4:	68 94       	set
    65b6:	d2 f8       	bld	r13, 2
    65b8:	20 e1       	ldi	r18, 0x10	; 16
    65ba:	30 e0       	ldi	r19, 0x00	; 0
    65bc:	0d c0       	rjmp	.+26     	; 0x65d8 <vfprintf+0x370>
    65be:	68 94       	set
    65c0:	d4 f8       	bld	r13, 4
    65c2:	f6 cf       	rjmp	.-20     	; 0x65b0 <vfprintf+0x348>
    65c4:	34 fe       	sbrs	r3, 4
    65c6:	03 c0       	rjmp	.+6      	; 0x65ce <vfprintf+0x366>
    65c8:	82 2f       	mov	r24, r18
    65ca:	86 60       	ori	r24, 0x06	; 6
    65cc:	d8 2e       	mov	r13, r24
    65ce:	20 e1       	ldi	r18, 0x10	; 16
    65d0:	32 e0       	ldi	r19, 0x02	; 2
    65d2:	02 c0       	rjmp	.+4      	; 0x65d8 <vfprintf+0x370>
    65d4:	28 e0       	ldi	r18, 0x08	; 8
    65d6:	30 e0       	ldi	r19, 0x00	; 0
    65d8:	f8 01       	movw	r30, r16
    65da:	d7 fe       	sbrs	r13, 7
    65dc:	0f c0       	rjmp	.+30     	; 0x65fc <vfprintf+0x394>
    65de:	60 81       	ld	r22, Z
    65e0:	71 81       	ldd	r23, Z+1	; 0x01
    65e2:	82 81       	ldd	r24, Z+2	; 0x02
    65e4:	93 81       	ldd	r25, Z+3	; 0x03
    65e6:	0c 5f       	subi	r16, 0xFC	; 252
    65e8:	1f 4f       	sbci	r17, 0xFF	; 255
    65ea:	a5 01       	movw	r20, r10
    65ec:	0e 94 7d 33 	call	0x66fa	; 0x66fa <__ultoa_invert>
    65f0:	c8 2e       	mov	r12, r24
    65f2:	ca 18       	sub	r12, r10
    65f4:	3d 2c       	mov	r3, r13
    65f6:	e8 94       	clt
    65f8:	37 f8       	bld	r3, 7
    65fa:	52 cf       	rjmp	.-348    	; 0x64a0 <vfprintf+0x238>
    65fc:	60 81       	ld	r22, Z
    65fe:	71 81       	ldd	r23, Z+1	; 0x01
    6600:	90 e0       	ldi	r25, 0x00	; 0
    6602:	80 e0       	ldi	r24, 0x00	; 0
    6604:	0e 5f       	subi	r16, 0xFE	; 254
    6606:	1f 4f       	sbci	r17, 0xFF	; 255
    6608:	f0 cf       	rjmp	.-32     	; 0x65ea <vfprintf+0x382>
    660a:	42 fc       	sbrc	r4, 2
    660c:	02 c0       	rjmp	.+4      	; 0x6612 <vfprintf+0x3aa>
    660e:	83 94       	inc	r8
    6610:	63 cf       	rjmp	.-314    	; 0x64d8 <vfprintf+0x270>
    6612:	83 94       	inc	r8
    6614:	83 94       	inc	r8
    6616:	60 cf       	rjmp	.-320    	; 0x64d8 <vfprintf+0x270>
    6618:	84 2d       	mov	r24, r4
    661a:	86 78       	andi	r24, 0x86	; 134
    661c:	09 f4       	brne	.+2      	; 0x6620 <vfprintf+0x3b8>
    661e:	5c cf       	rjmp	.-328    	; 0x64d8 <vfprintf+0x270>
    6620:	f6 cf       	rjmp	.-20     	; 0x660e <vfprintf+0x3a6>
    6622:	b7 01       	movw	r22, r14
    6624:	80 e2       	ldi	r24, 0x20	; 32
    6626:	90 e0       	ldi	r25, 0x00	; 0
    6628:	0e 94 4d 33 	call	0x669a	; 0x669a <fputc>
    662c:	83 94       	inc	r8
    662e:	82 14       	cp	r8, r2
    6630:	c0 f3       	brcs	.-16     	; 0x6622 <vfprintf+0x3ba>
    6632:	51 2c       	mov	r5, r1
    6634:	5e cf       	rjmp	.-324    	; 0x64f2 <vfprintf+0x28a>
    6636:	52 2c       	mov	r5, r2
    6638:	58 18       	sub	r5, r8
    663a:	82 14       	cp	r8, r2
    663c:	08 f4       	brcc	.+2      	; 0x6640 <vfprintf+0x3d8>
    663e:	59 cf       	rjmp	.-334    	; 0x64f2 <vfprintf+0x28a>
    6640:	f8 cf       	rjmp	.-16     	; 0x6632 <vfprintf+0x3ca>
    6642:	84 2d       	mov	r24, r4
    6644:	86 78       	andi	r24, 0x86	; 134
    6646:	09 f4       	brne	.+2      	; 0x664a <vfprintf+0x3e2>
    6648:	66 cf       	rjmp	.-308    	; 0x6516 <vfprintf+0x2ae>
    664a:	8b e2       	ldi	r24, 0x2B	; 43
    664c:	41 fe       	sbrs	r4, 1
    664e:	80 e2       	ldi	r24, 0x20	; 32
    6650:	47 fc       	sbrc	r4, 7
    6652:	8d e2       	ldi	r24, 0x2D	; 45
    6654:	b7 01       	movw	r22, r14
    6656:	90 e0       	ldi	r25, 0x00	; 0
    6658:	5c cf       	rjmp	.-328    	; 0x6512 <vfprintf+0x2aa>
    665a:	b7 01       	movw	r22, r14
    665c:	80 e3       	ldi	r24, 0x30	; 48
    665e:	90 e0       	ldi	r25, 0x00	; 0
    6660:	0e 94 4d 33 	call	0x669a	; 0x669a <fputc>
    6664:	9a 94       	dec	r9
    6666:	57 cf       	rjmp	.-338    	; 0x6516 <vfprintf+0x2ae>
    6668:	8f ef       	ldi	r24, 0xFF	; 255
    666a:	9f ef       	ldi	r25, 0xFF	; 255
    666c:	84 cf       	rjmp	.-248    	; 0x6576 <vfprintf+0x30e>

0000666e <strnlen_P>:
strnlen_P():
    666e:	fc 01       	movw	r30, r24
    6670:	05 90       	lpm	r0, Z+
    6672:	61 50       	subi	r22, 0x01	; 1
    6674:	70 40       	sbci	r23, 0x00	; 0
    6676:	01 10       	cpse	r0, r1
    6678:	d8 f7       	brcc	.-10     	; 0x6670 <strnlen_P+0x2>
    667a:	80 95       	com	r24
    667c:	90 95       	com	r25
    667e:	8e 0f       	add	r24, r30
    6680:	9f 1f       	adc	r25, r31
    6682:	08 95       	ret

00006684 <strnlen>:
strnlen():
    6684:	fc 01       	movw	r30, r24
    6686:	61 50       	subi	r22, 0x01	; 1
    6688:	70 40       	sbci	r23, 0x00	; 0
    668a:	01 90       	ld	r0, Z+
    668c:	01 10       	cpse	r0, r1
    668e:	d8 f7       	brcc	.-10     	; 0x6686 <strnlen+0x2>
    6690:	80 95       	com	r24
    6692:	90 95       	com	r25
    6694:	8e 0f       	add	r24, r30
    6696:	9f 1f       	adc	r25, r31
    6698:	08 95       	ret

0000669a <fputc>:
fputc():
    669a:	0f 93       	push	r16
    669c:	1f 93       	push	r17
    669e:	cf 93       	push	r28
    66a0:	df 93       	push	r29
    66a2:	18 2f       	mov	r17, r24
    66a4:	09 2f       	mov	r16, r25
    66a6:	eb 01       	movw	r28, r22
    66a8:	8b 81       	ldd	r24, Y+3	; 0x03
    66aa:	81 fd       	sbrc	r24, 1
    66ac:	09 c0       	rjmp	.+18     	; 0x66c0 <fputc+0x26>
    66ae:	1f ef       	ldi	r17, 0xFF	; 255
    66b0:	0f ef       	ldi	r16, 0xFF	; 255
    66b2:	81 2f       	mov	r24, r17
    66b4:	90 2f       	mov	r25, r16
    66b6:	df 91       	pop	r29
    66b8:	cf 91       	pop	r28
    66ba:	1f 91       	pop	r17
    66bc:	0f 91       	pop	r16
    66be:	08 95       	ret
    66c0:	82 ff       	sbrs	r24, 2
    66c2:	14 c0       	rjmp	.+40     	; 0x66ec <fputc+0x52>
    66c4:	2e 81       	ldd	r18, Y+6	; 0x06
    66c6:	3f 81       	ldd	r19, Y+7	; 0x07
    66c8:	8c 81       	ldd	r24, Y+4	; 0x04
    66ca:	9d 81       	ldd	r25, Y+5	; 0x05
    66cc:	28 17       	cp	r18, r24
    66ce:	39 07       	cpc	r19, r25
    66d0:	3c f4       	brge	.+14     	; 0x66e0 <fputc+0x46>
    66d2:	e8 81       	ld	r30, Y
    66d4:	f9 81       	ldd	r31, Y+1	; 0x01
    66d6:	cf 01       	movw	r24, r30
    66d8:	01 96       	adiw	r24, 0x01	; 1
    66da:	99 83       	std	Y+1, r25	; 0x01
    66dc:	88 83       	st	Y, r24
    66de:	10 83       	st	Z, r17
    66e0:	8e 81       	ldd	r24, Y+6	; 0x06
    66e2:	9f 81       	ldd	r25, Y+7	; 0x07
    66e4:	01 96       	adiw	r24, 0x01	; 1
    66e6:	9f 83       	std	Y+7, r25	; 0x07
    66e8:	8e 83       	std	Y+6, r24	; 0x06
    66ea:	e3 cf       	rjmp	.-58     	; 0x66b2 <fputc+0x18>
    66ec:	e8 85       	ldd	r30, Y+8	; 0x08
    66ee:	f9 85       	ldd	r31, Y+9	; 0x09
    66f0:	81 2f       	mov	r24, r17
    66f2:	09 95       	icall
    66f4:	89 2b       	or	r24, r25
    66f6:	a1 f3       	breq	.-24     	; 0x66e0 <fputc+0x46>
    66f8:	da cf       	rjmp	.-76     	; 0x66ae <fputc+0x14>

000066fa <__ultoa_invert>:
__ultoa_invert():
    66fa:	fa 01       	movw	r30, r20
    66fc:	aa 27       	eor	r26, r26
    66fe:	28 30       	cpi	r18, 0x08	; 8
    6700:	51 f1       	breq	.+84     	; 0x6756 <__ultoa_invert+0x5c>
    6702:	20 31       	cpi	r18, 0x10	; 16
    6704:	81 f1       	breq	.+96     	; 0x6766 <__ultoa_invert+0x6c>
    6706:	e8 94       	clt
    6708:	6f 93       	push	r22
    670a:	6e 7f       	andi	r22, 0xFE	; 254
    670c:	6e 5f       	subi	r22, 0xFE	; 254
    670e:	7f 4f       	sbci	r23, 0xFF	; 255
    6710:	8f 4f       	sbci	r24, 0xFF	; 255
    6712:	9f 4f       	sbci	r25, 0xFF	; 255
    6714:	af 4f       	sbci	r26, 0xFF	; 255
    6716:	b1 e0       	ldi	r27, 0x01	; 1
    6718:	3e d0       	rcall	.+124    	; 0x6796 <__ultoa_invert+0x9c>
    671a:	b4 e0       	ldi	r27, 0x04	; 4
    671c:	3c d0       	rcall	.+120    	; 0x6796 <__ultoa_invert+0x9c>
    671e:	67 0f       	add	r22, r23
    6720:	78 1f       	adc	r23, r24
    6722:	89 1f       	adc	r24, r25
    6724:	9a 1f       	adc	r25, r26
    6726:	a1 1d       	adc	r26, r1
    6728:	68 0f       	add	r22, r24
    672a:	79 1f       	adc	r23, r25
    672c:	8a 1f       	adc	r24, r26
    672e:	91 1d       	adc	r25, r1
    6730:	a1 1d       	adc	r26, r1
    6732:	6a 0f       	add	r22, r26
    6734:	71 1d       	adc	r23, r1
    6736:	81 1d       	adc	r24, r1
    6738:	91 1d       	adc	r25, r1
    673a:	a1 1d       	adc	r26, r1
    673c:	20 d0       	rcall	.+64     	; 0x677e <__ultoa_invert+0x84>
    673e:	09 f4       	brne	.+2      	; 0x6742 <__ultoa_invert+0x48>
    6740:	68 94       	set
    6742:	3f 91       	pop	r19
    6744:	2a e0       	ldi	r18, 0x0A	; 10
    6746:	26 9f       	mul	r18, r22
    6748:	11 24       	eor	r1, r1
    674a:	30 19       	sub	r19, r0
    674c:	30 5d       	subi	r19, 0xD0	; 208
    674e:	31 93       	st	Z+, r19
    6750:	de f6       	brtc	.-74     	; 0x6708 <__ultoa_invert+0xe>
    6752:	cf 01       	movw	r24, r30
    6754:	08 95       	ret
    6756:	46 2f       	mov	r20, r22
    6758:	47 70       	andi	r20, 0x07	; 7
    675a:	40 5d       	subi	r20, 0xD0	; 208
    675c:	41 93       	st	Z+, r20
    675e:	b3 e0       	ldi	r27, 0x03	; 3
    6760:	0f d0       	rcall	.+30     	; 0x6780 <__ultoa_invert+0x86>
    6762:	c9 f7       	brne	.-14     	; 0x6756 <__ultoa_invert+0x5c>
    6764:	f6 cf       	rjmp	.-20     	; 0x6752 <__ultoa_invert+0x58>
    6766:	46 2f       	mov	r20, r22
    6768:	4f 70       	andi	r20, 0x0F	; 15
    676a:	40 5d       	subi	r20, 0xD0	; 208
    676c:	4a 33       	cpi	r20, 0x3A	; 58
    676e:	18 f0       	brcs	.+6      	; 0x6776 <__ultoa_invert+0x7c>
    6770:	49 5d       	subi	r20, 0xD9	; 217
    6772:	31 fd       	sbrc	r19, 1
    6774:	40 52       	subi	r20, 0x20	; 32
    6776:	41 93       	st	Z+, r20
    6778:	02 d0       	rcall	.+4      	; 0x677e <__ultoa_invert+0x84>
    677a:	a9 f7       	brne	.-22     	; 0x6766 <__ultoa_invert+0x6c>
    677c:	ea cf       	rjmp	.-44     	; 0x6752 <__ultoa_invert+0x58>
    677e:	b4 e0       	ldi	r27, 0x04	; 4
    6780:	a6 95       	lsr	r26
    6782:	97 95       	ror	r25
    6784:	87 95       	ror	r24
    6786:	77 95       	ror	r23
    6788:	67 95       	ror	r22
    678a:	ba 95       	dec	r27
    678c:	c9 f7       	brne	.-14     	; 0x6780 <__ultoa_invert+0x86>
    678e:	00 97       	sbiw	r24, 0x00	; 0
    6790:	61 05       	cpc	r22, r1
    6792:	71 05       	cpc	r23, r1
    6794:	08 95       	ret
    6796:	9b 01       	movw	r18, r22
    6798:	ac 01       	movw	r20, r24
    679a:	0a 2e       	mov	r0, r26
    679c:	06 94       	lsr	r0
    679e:	57 95       	ror	r21
    67a0:	47 95       	ror	r20
    67a2:	37 95       	ror	r19
    67a4:	27 95       	ror	r18
    67a6:	ba 95       	dec	r27
    67a8:	c9 f7       	brne	.-14     	; 0x679c <__ultoa_invert+0xa2>
    67aa:	62 0f       	add	r22, r18
    67ac:	73 1f       	adc	r23, r19
    67ae:	84 1f       	adc	r24, r20
    67b0:	95 1f       	adc	r25, r21
    67b2:	a0 1d       	adc	r26, r0
    67b4:	08 95       	ret

000067b6 <eeprom_read_byte>:
eeprom_read_byte():
    67b6:	e1 99       	sbic	0x1c, 1	; 28
    67b8:	fe cf       	rjmp	.-4      	; 0x67b6 <eeprom_read_byte>
    67ba:	9f bb       	out	0x1f, r25	; 31
    67bc:	8e bb       	out	0x1e, r24	; 30
    67be:	e0 9a       	sbi	0x1c, 0	; 28
    67c0:	99 27       	eor	r25, r25
    67c2:	8d b3       	in	r24, 0x1d	; 29
    67c4:	08 95       	ret

000067c6 <eeprom_write_byte>:
eeprom_write_byte():
    67c6:	26 2f       	mov	r18, r22

000067c8 <eeprom_write_r18>:
    67c8:	e1 99       	sbic	0x1c, 1	; 28
    67ca:	fe cf       	rjmp	.-4      	; 0x67c8 <eeprom_write_r18>
    67cc:	9f bb       	out	0x1f, r25	; 31
    67ce:	8e bb       	out	0x1e, r24	; 30
    67d0:	2d bb       	out	0x1d, r18	; 29
    67d2:	0f b6       	in	r0, 0x3f	; 63
    67d4:	f8 94       	cli
    67d6:	e2 9a       	sbi	0x1c, 2	; 28
    67d8:	e1 9a       	sbi	0x1c, 1	; 28
    67da:	0f be       	out	0x3f, r0	; 63
    67dc:	01 96       	adiw	r24, 0x01	; 1
    67de:	08 95       	ret

000067e0 <__cmpsf2>:
__cmpsf2():
    67e0:	0e 94 da 34 	call	0x69b4	; 0x69b4 <__fp_cmp>
    67e4:	08 f4       	brcc	.+2      	; 0x67e8 <__cmpsf2+0x8>
    67e6:	81 e0       	ldi	r24, 0x01	; 1
    67e8:	08 95       	ret

000067ea <__divsf3>:
__divsf3():
    67ea:	0e 94 09 34 	call	0x6812	; 0x6812 <__divsf3x>
    67ee:	0c 94 15 35 	jmp	0x6a2a	; 0x6a2a <__fp_round>
    67f2:	0e 94 0e 35 	call	0x6a1c	; 0x6a1c <__fp_pscB>
    67f6:	58 f0       	brcs	.+22     	; 0x680e <__divsf3+0x24>
    67f8:	0e 94 07 35 	call	0x6a0e	; 0x6a0e <__fp_pscA>
    67fc:	40 f0       	brcs	.+16     	; 0x680e <__divsf3+0x24>
    67fe:	29 f4       	brne	.+10     	; 0x680a <__divsf3+0x20>
    6800:	5f 3f       	cpi	r21, 0xFF	; 255
    6802:	29 f0       	breq	.+10     	; 0x680e <__divsf3+0x24>
    6804:	0c 94 fe 34 	jmp	0x69fc	; 0x69fc <__fp_inf>
    6808:	51 11       	cpse	r21, r1
    680a:	0c 94 49 35 	jmp	0x6a92	; 0x6a92 <__fp_szero>
    680e:	0c 94 04 35 	jmp	0x6a08	; 0x6a08 <__fp_nan>

00006812 <__divsf3x>:
__divsf3x():
    6812:	0e 94 26 35 	call	0x6a4c	; 0x6a4c <__fp_split3>
    6816:	68 f3       	brcs	.-38     	; 0x67f2 <__divsf3+0x8>

00006818 <__divsf3_pse>:
    6818:	99 23       	and	r25, r25
    681a:	b1 f3       	breq	.-20     	; 0x6808 <__divsf3+0x1e>
    681c:	55 23       	and	r21, r21
    681e:	91 f3       	breq	.-28     	; 0x6804 <__divsf3+0x1a>
    6820:	95 1b       	sub	r25, r21
    6822:	55 0b       	sbc	r21, r21
    6824:	bb 27       	eor	r27, r27
    6826:	aa 27       	eor	r26, r26
    6828:	62 17       	cp	r22, r18
    682a:	73 07       	cpc	r23, r19
    682c:	84 07       	cpc	r24, r20
    682e:	38 f0       	brcs	.+14     	; 0x683e <__divsf3_pse+0x26>
    6830:	9f 5f       	subi	r25, 0xFF	; 255
    6832:	5f 4f       	sbci	r21, 0xFF	; 255
    6834:	22 0f       	add	r18, r18
    6836:	33 1f       	adc	r19, r19
    6838:	44 1f       	adc	r20, r20
    683a:	aa 1f       	adc	r26, r26
    683c:	a9 f3       	breq	.-22     	; 0x6828 <__divsf3_pse+0x10>
    683e:	35 d0       	rcall	.+106    	; 0x68aa <__divsf3_pse+0x92>
    6840:	0e 2e       	mov	r0, r30
    6842:	3a f0       	brmi	.+14     	; 0x6852 <__divsf3_pse+0x3a>
    6844:	e0 e8       	ldi	r30, 0x80	; 128
    6846:	32 d0       	rcall	.+100    	; 0x68ac <__divsf3_pse+0x94>
    6848:	91 50       	subi	r25, 0x01	; 1
    684a:	50 40       	sbci	r21, 0x00	; 0
    684c:	e6 95       	lsr	r30
    684e:	00 1c       	adc	r0, r0
    6850:	ca f7       	brpl	.-14     	; 0x6844 <__divsf3_pse+0x2c>
    6852:	2b d0       	rcall	.+86     	; 0x68aa <__divsf3_pse+0x92>
    6854:	fe 2f       	mov	r31, r30
    6856:	29 d0       	rcall	.+82     	; 0x68aa <__divsf3_pse+0x92>
    6858:	66 0f       	add	r22, r22
    685a:	77 1f       	adc	r23, r23
    685c:	88 1f       	adc	r24, r24
    685e:	bb 1f       	adc	r27, r27
    6860:	26 17       	cp	r18, r22
    6862:	37 07       	cpc	r19, r23
    6864:	48 07       	cpc	r20, r24
    6866:	ab 07       	cpc	r26, r27
    6868:	b0 e8       	ldi	r27, 0x80	; 128
    686a:	09 f0       	breq	.+2      	; 0x686e <__divsf3_pse+0x56>
    686c:	bb 0b       	sbc	r27, r27
    686e:	80 2d       	mov	r24, r0
    6870:	bf 01       	movw	r22, r30
    6872:	ff 27       	eor	r31, r31
    6874:	93 58       	subi	r25, 0x83	; 131
    6876:	5f 4f       	sbci	r21, 0xFF	; 255
    6878:	3a f0       	brmi	.+14     	; 0x6888 <__divsf3_pse+0x70>
    687a:	9e 3f       	cpi	r25, 0xFE	; 254
    687c:	51 05       	cpc	r21, r1
    687e:	78 f0       	brcs	.+30     	; 0x689e <__divsf3_pse+0x86>
    6880:	0c 94 fe 34 	jmp	0x69fc	; 0x69fc <__fp_inf>
    6884:	0c 94 49 35 	jmp	0x6a92	; 0x6a92 <__fp_szero>
    6888:	5f 3f       	cpi	r21, 0xFF	; 255
    688a:	e4 f3       	brlt	.-8      	; 0x6884 <__divsf3_pse+0x6c>
    688c:	98 3e       	cpi	r25, 0xE8	; 232
    688e:	d4 f3       	brlt	.-12     	; 0x6884 <__divsf3_pse+0x6c>
    6890:	86 95       	lsr	r24
    6892:	77 95       	ror	r23
    6894:	67 95       	ror	r22
    6896:	b7 95       	ror	r27
    6898:	f7 95       	ror	r31
    689a:	9f 5f       	subi	r25, 0xFF	; 255
    689c:	c9 f7       	brne	.-14     	; 0x6890 <__divsf3_pse+0x78>
    689e:	88 0f       	add	r24, r24
    68a0:	91 1d       	adc	r25, r1
    68a2:	96 95       	lsr	r25
    68a4:	87 95       	ror	r24
    68a6:	97 f9       	bld	r25, 7
    68a8:	08 95       	ret
    68aa:	e1 e0       	ldi	r30, 0x01	; 1
    68ac:	66 0f       	add	r22, r22
    68ae:	77 1f       	adc	r23, r23
    68b0:	88 1f       	adc	r24, r24
    68b2:	bb 1f       	adc	r27, r27
    68b4:	62 17       	cp	r22, r18
    68b6:	73 07       	cpc	r23, r19
    68b8:	84 07       	cpc	r24, r20
    68ba:	ba 07       	cpc	r27, r26
    68bc:	20 f0       	brcs	.+8      	; 0x68c6 <__divsf3_pse+0xae>
    68be:	62 1b       	sub	r22, r18
    68c0:	73 0b       	sbc	r23, r19
    68c2:	84 0b       	sbc	r24, r20
    68c4:	ba 0b       	sbc	r27, r26
    68c6:	ee 1f       	adc	r30, r30
    68c8:	88 f7       	brcc	.-30     	; 0x68ac <__divsf3_pse+0x94>
    68ca:	e0 95       	com	r30
    68cc:	08 95       	ret

000068ce <__fixsfsi>:
    68ce:	0e 94 6e 34 	call	0x68dc	; 0x68dc <__fixunssfsi>
    68d2:	68 94       	set
    68d4:	b1 11       	cpse	r27, r1
    68d6:	0c 94 49 35 	jmp	0x6a92	; 0x6a92 <__fp_szero>
    68da:	08 95       	ret

000068dc <__fixunssfsi>:
    68dc:	0e 94 2e 35 	call	0x6a5c	; 0x6a5c <__fp_splitA>
    68e0:	88 f0       	brcs	.+34     	; 0x6904 <__fixunssfsi+0x28>
    68e2:	9f 57       	subi	r25, 0x7F	; 127
    68e4:	98 f0       	brcs	.+38     	; 0x690c <__fixunssfsi+0x30>
    68e6:	b9 2f       	mov	r27, r25
    68e8:	99 27       	eor	r25, r25
    68ea:	b7 51       	subi	r27, 0x17	; 23
    68ec:	b0 f0       	brcs	.+44     	; 0x691a <__fixunssfsi+0x3e>
__fixunssfsi():
    68ee:	e1 f0       	breq	.+56     	; 0x6928 <__fixunssfsi+0x4c>
    68f0:	66 0f       	add	r22, r22
    68f2:	77 1f       	adc	r23, r23
    68f4:	88 1f       	adc	r24, r24
    68f6:	99 1f       	adc	r25, r25
    68f8:	1a f0       	brmi	.+6      	; 0x6900 <__fixunssfsi+0x24>
    68fa:	ba 95       	dec	r27
    68fc:	c9 f7       	brne	.-14     	; 0x68f0 <__fixunssfsi+0x14>
    68fe:	14 c0       	rjmp	.+40     	; 0x6928 <__fixunssfsi+0x4c>
    6900:	b1 30       	cpi	r27, 0x01	; 1
    6902:	91 f0       	breq	.+36     	; 0x6928 <__fixunssfsi+0x4c>
    6904:	0e 94 48 35 	call	0x6a90	; 0x6a90 <__fp_zero>
    6908:	b1 e0       	ldi	r27, 0x01	; 1
    690a:	08 95       	ret
    690c:	0c 94 48 35 	jmp	0x6a90	; 0x6a90 <__fp_zero>
    6910:	67 2f       	mov	r22, r23
    6912:	78 2f       	mov	r23, r24
    6914:	88 27       	eor	r24, r24
    6916:	b8 5f       	subi	r27, 0xF8	; 248
    6918:	39 f0       	breq	.+14     	; 0x6928 <__fixunssfsi+0x4c>
    691a:	b9 3f       	cpi	r27, 0xF9	; 249
    691c:	cc f3       	brlt	.-14     	; 0x6910 <__fixunssfsi+0x34>
    691e:	86 95       	lsr	r24
    6920:	77 95       	ror	r23
    6922:	67 95       	ror	r22
    6924:	b3 95       	inc	r27
    6926:	d9 f7       	brne	.-10     	; 0x691e <__fixunssfsi+0x42>
    6928:	3e f4       	brtc	.+14     	; 0x6938 <__fixunssfsi+0x5c>
    692a:	90 95       	com	r25
    692c:	80 95       	com	r24
    692e:	70 95       	com	r23
    6930:	61 95       	neg	r22
    6932:	7f 4f       	sbci	r23, 0xFF	; 255
    6934:	8f 4f       	sbci	r24, 0xFF	; 255
    6936:	9f 4f       	sbci	r25, 0xFF	; 255
    6938:	08 95       	ret

0000693a <__floatunsisf>:
__floatunsisf():
    693a:	e8 94       	clt
    693c:	09 c0       	rjmp	.+18     	; 0x6950 <__floatsisf+0x12>

0000693e <__floatsisf>:
    693e:	97 fb       	bst	r25, 7
    6940:	3e f4       	brtc	.+14     	; 0x6950 <__floatsisf+0x12>
    6942:	90 95       	com	r25
    6944:	80 95       	com	r24
    6946:	70 95       	com	r23
    6948:	61 95       	neg	r22
    694a:	7f 4f       	sbci	r23, 0xFF	; 255
    694c:	8f 4f       	sbci	r24, 0xFF	; 255
    694e:	9f 4f       	sbci	r25, 0xFF	; 255
    6950:	99 23       	and	r25, r25
    6952:	a9 f0       	breq	.+42     	; 0x697e <__floatsisf+0x40>
    6954:	f9 2f       	mov	r31, r25
    6956:	96 e9       	ldi	r25, 0x96	; 150
    6958:	bb 27       	eor	r27, r27
    695a:	93 95       	inc	r25
    695c:	f6 95       	lsr	r31
    695e:	87 95       	ror	r24
    6960:	77 95       	ror	r23
    6962:	67 95       	ror	r22
    6964:	b7 95       	ror	r27
    6966:	f1 11       	cpse	r31, r1
    6968:	f8 cf       	rjmp	.-16     	; 0x695a <__floatsisf+0x1c>
    696a:	fa f4       	brpl	.+62     	; 0x69aa <__floatsisf+0x6c>
    696c:	bb 0f       	add	r27, r27
    696e:	11 f4       	brne	.+4      	; 0x6974 <__floatsisf+0x36>
    6970:	60 ff       	sbrs	r22, 0
    6972:	1b c0       	rjmp	.+54     	; 0x69aa <__floatsisf+0x6c>
    6974:	6f 5f       	subi	r22, 0xFF	; 255
    6976:	7f 4f       	sbci	r23, 0xFF	; 255
    6978:	8f 4f       	sbci	r24, 0xFF	; 255
    697a:	9f 4f       	sbci	r25, 0xFF	; 255
    697c:	16 c0       	rjmp	.+44     	; 0x69aa <__floatsisf+0x6c>
    697e:	88 23       	and	r24, r24
    6980:	11 f0       	breq	.+4      	; 0x6986 <__floatsisf+0x48>
    6982:	96 e9       	ldi	r25, 0x96	; 150
    6984:	11 c0       	rjmp	.+34     	; 0x69a8 <__floatsisf+0x6a>
    6986:	77 23       	and	r23, r23
    6988:	21 f0       	breq	.+8      	; 0x6992 <__floatsisf+0x54>
    698a:	9e e8       	ldi	r25, 0x8E	; 142
    698c:	87 2f       	mov	r24, r23
    698e:	76 2f       	mov	r23, r22
    6990:	05 c0       	rjmp	.+10     	; 0x699c <__floatsisf+0x5e>
    6992:	66 23       	and	r22, r22
    6994:	71 f0       	breq	.+28     	; 0x69b2 <__floatsisf+0x74>
    6996:	96 e8       	ldi	r25, 0x86	; 134
    6998:	86 2f       	mov	r24, r22
    699a:	70 e0       	ldi	r23, 0x00	; 0
    699c:	60 e0       	ldi	r22, 0x00	; 0
    699e:	2a f0       	brmi	.+10     	; 0x69aa <__floatsisf+0x6c>
    69a0:	9a 95       	dec	r25
    69a2:	66 0f       	add	r22, r22
    69a4:	77 1f       	adc	r23, r23
    69a6:	88 1f       	adc	r24, r24
    69a8:	da f7       	brpl	.-10     	; 0x69a0 <__floatsisf+0x62>
    69aa:	88 0f       	add	r24, r24
    69ac:	96 95       	lsr	r25
    69ae:	87 95       	ror	r24
    69b0:	97 f9       	bld	r25, 7
    69b2:	08 95       	ret

000069b4 <__fp_cmp>:
__fp_cmp():
    69b4:	99 0f       	add	r25, r25
    69b6:	00 08       	sbc	r0, r0
    69b8:	55 0f       	add	r21, r21
    69ba:	aa 0b       	sbc	r26, r26
    69bc:	e0 e8       	ldi	r30, 0x80	; 128
    69be:	fe ef       	ldi	r31, 0xFE	; 254
    69c0:	16 16       	cp	r1, r22
    69c2:	17 06       	cpc	r1, r23
    69c4:	e8 07       	cpc	r30, r24
    69c6:	f9 07       	cpc	r31, r25
    69c8:	c0 f0       	brcs	.+48     	; 0x69fa <__fp_cmp+0x46>
    69ca:	12 16       	cp	r1, r18
    69cc:	13 06       	cpc	r1, r19
    69ce:	e4 07       	cpc	r30, r20
    69d0:	f5 07       	cpc	r31, r21
    69d2:	98 f0       	brcs	.+38     	; 0x69fa <__fp_cmp+0x46>
    69d4:	62 1b       	sub	r22, r18
    69d6:	73 0b       	sbc	r23, r19
    69d8:	84 0b       	sbc	r24, r20
    69da:	95 0b       	sbc	r25, r21
    69dc:	39 f4       	brne	.+14     	; 0x69ec <__fp_cmp+0x38>
    69de:	0a 26       	eor	r0, r26
    69e0:	61 f0       	breq	.+24     	; 0x69fa <__fp_cmp+0x46>
    69e2:	23 2b       	or	r18, r19
    69e4:	24 2b       	or	r18, r20
    69e6:	25 2b       	or	r18, r21
    69e8:	21 f4       	brne	.+8      	; 0x69f2 <__fp_cmp+0x3e>
    69ea:	08 95       	ret
    69ec:	0a 26       	eor	r0, r26
    69ee:	09 f4       	brne	.+2      	; 0x69f2 <__fp_cmp+0x3e>
    69f0:	a1 40       	sbci	r26, 0x01	; 1
    69f2:	a6 95       	lsr	r26
    69f4:	8f ef       	ldi	r24, 0xFF	; 255
    69f6:	81 1d       	adc	r24, r1
    69f8:	81 1d       	adc	r24, r1
    69fa:	08 95       	ret

000069fc <__fp_inf>:
__fp_inf():
    69fc:	97 f9       	bld	r25, 7
    69fe:	9f 67       	ori	r25, 0x7F	; 127
    6a00:	80 e8       	ldi	r24, 0x80	; 128
    6a02:	70 e0       	ldi	r23, 0x00	; 0
    6a04:	60 e0       	ldi	r22, 0x00	; 0
    6a06:	08 95       	ret

00006a08 <__fp_nan>:
__fp_nan():
    6a08:	9f ef       	ldi	r25, 0xFF	; 255
    6a0a:	80 ec       	ldi	r24, 0xC0	; 192
    6a0c:	08 95       	ret

00006a0e <__fp_pscA>:
__fp_pscA():
    6a0e:	00 24       	eor	r0, r0
    6a10:	0a 94       	dec	r0
    6a12:	16 16       	cp	r1, r22
    6a14:	17 06       	cpc	r1, r23
    6a16:	18 06       	cpc	r1, r24
    6a18:	09 06       	cpc	r0, r25
    6a1a:	08 95       	ret

00006a1c <__fp_pscB>:
__fp_pscB():
    6a1c:	00 24       	eor	r0, r0
    6a1e:	0a 94       	dec	r0
    6a20:	12 16       	cp	r1, r18
    6a22:	13 06       	cpc	r1, r19
    6a24:	14 06       	cpc	r1, r20
    6a26:	05 06       	cpc	r0, r21
    6a28:	08 95       	ret

00006a2a <__fp_round>:
__fp_round():
    6a2a:	09 2e       	mov	r0, r25
    6a2c:	03 94       	inc	r0
    6a2e:	00 0c       	add	r0, r0
    6a30:	11 f4       	brne	.+4      	; 0x6a36 <__fp_round+0xc>
    6a32:	88 23       	and	r24, r24
    6a34:	52 f0       	brmi	.+20     	; 0x6a4a <__fp_round+0x20>
    6a36:	bb 0f       	add	r27, r27
    6a38:	40 f4       	brcc	.+16     	; 0x6a4a <__fp_round+0x20>
    6a3a:	bf 2b       	or	r27, r31
    6a3c:	11 f4       	brne	.+4      	; 0x6a42 <__fp_round+0x18>
    6a3e:	60 ff       	sbrs	r22, 0
    6a40:	04 c0       	rjmp	.+8      	; 0x6a4a <__fp_round+0x20>
    6a42:	6f 5f       	subi	r22, 0xFF	; 255
    6a44:	7f 4f       	sbci	r23, 0xFF	; 255
    6a46:	8f 4f       	sbci	r24, 0xFF	; 255
    6a48:	9f 4f       	sbci	r25, 0xFF	; 255
    6a4a:	08 95       	ret

00006a4c <__fp_split3>:
__fp_split3():
    6a4c:	57 fd       	sbrc	r21, 7
    6a4e:	90 58       	subi	r25, 0x80	; 128
    6a50:	44 0f       	add	r20, r20
    6a52:	55 1f       	adc	r21, r21
    6a54:	59 f0       	breq	.+22     	; 0x6a6c <__fp_splitA+0x10>
    6a56:	5f 3f       	cpi	r21, 0xFF	; 255
    6a58:	71 f0       	breq	.+28     	; 0x6a76 <__fp_splitA+0x1a>
    6a5a:	47 95       	ror	r20

00006a5c <__fp_splitA>:
    6a5c:	88 0f       	add	r24, r24
    6a5e:	97 fb       	bst	r25, 7
    6a60:	99 1f       	adc	r25, r25
    6a62:	61 f0       	breq	.+24     	; 0x6a7c <__fp_splitA+0x20>
    6a64:	9f 3f       	cpi	r25, 0xFF	; 255
    6a66:	79 f0       	breq	.+30     	; 0x6a86 <__fp_splitA+0x2a>
    6a68:	87 95       	ror	r24
    6a6a:	08 95       	ret
    6a6c:	12 16       	cp	r1, r18
    6a6e:	13 06       	cpc	r1, r19
    6a70:	14 06       	cpc	r1, r20
    6a72:	55 1f       	adc	r21, r21
    6a74:	f2 cf       	rjmp	.-28     	; 0x6a5a <__fp_split3+0xe>
    6a76:	46 95       	lsr	r20
    6a78:	f1 df       	rcall	.-30     	; 0x6a5c <__fp_splitA>
    6a7a:	08 c0       	rjmp	.+16     	; 0x6a8c <__fp_splitA+0x30>
    6a7c:	16 16       	cp	r1, r22
    6a7e:	17 06       	cpc	r1, r23
    6a80:	18 06       	cpc	r1, r24
    6a82:	99 1f       	adc	r25, r25
    6a84:	f1 cf       	rjmp	.-30     	; 0x6a68 <__fp_splitA+0xc>
    6a86:	86 95       	lsr	r24
    6a88:	71 05       	cpc	r23, r1
    6a8a:	61 05       	cpc	r22, r1
    6a8c:	08 94       	sec
    6a8e:	08 95       	ret

00006a90 <__fp_zero>:
__fp_zero():
    6a90:	e8 94       	clt

00006a92 <__fp_szero>:
    6a92:	bb 27       	eor	r27, r27
    6a94:	66 27       	eor	r22, r22
    6a96:	77 27       	eor	r23, r23
    6a98:	cb 01       	movw	r24, r22
    6a9a:	97 f9       	bld	r25, 7
    6a9c:	08 95       	ret

00006a9e <__mulsf3>:
__mulsf3():
    6a9e:	0e 94 62 35 	call	0x6ac4	; 0x6ac4 <__mulsf3x>
    6aa2:	0c 94 15 35 	jmp	0x6a2a	; 0x6a2a <__fp_round>
    6aa6:	0e 94 07 35 	call	0x6a0e	; 0x6a0e <__fp_pscA>
    6aaa:	38 f0       	brcs	.+14     	; 0x6aba <__mulsf3+0x1c>
    6aac:	0e 94 0e 35 	call	0x6a1c	; 0x6a1c <__fp_pscB>
    6ab0:	20 f0       	brcs	.+8      	; 0x6aba <__mulsf3+0x1c>
    6ab2:	95 23       	and	r25, r21
    6ab4:	11 f0       	breq	.+4      	; 0x6aba <__mulsf3+0x1c>
    6ab6:	0c 94 fe 34 	jmp	0x69fc	; 0x69fc <__fp_inf>
    6aba:	0c 94 04 35 	jmp	0x6a08	; 0x6a08 <__fp_nan>
    6abe:	11 24       	eor	r1, r1
    6ac0:	0c 94 49 35 	jmp	0x6a92	; 0x6a92 <__fp_szero>

00006ac4 <__mulsf3x>:
__mulsf3x():
    6ac4:	0e 94 26 35 	call	0x6a4c	; 0x6a4c <__fp_split3>
    6ac8:	70 f3       	brcs	.-36     	; 0x6aa6 <__mulsf3+0x8>

00006aca <__mulsf3_pse>:
    6aca:	95 9f       	mul	r25, r21
    6acc:	c1 f3       	breq	.-16     	; 0x6abe <__mulsf3+0x20>
    6ace:	95 0f       	add	r25, r21
    6ad0:	50 e0       	ldi	r21, 0x00	; 0
    6ad2:	55 1f       	adc	r21, r21
    6ad4:	62 9f       	mul	r22, r18
    6ad6:	f0 01       	movw	r30, r0
    6ad8:	72 9f       	mul	r23, r18
    6ada:	bb 27       	eor	r27, r27
    6adc:	f0 0d       	add	r31, r0
    6ade:	b1 1d       	adc	r27, r1
    6ae0:	63 9f       	mul	r22, r19
    6ae2:	aa 27       	eor	r26, r26
    6ae4:	f0 0d       	add	r31, r0
    6ae6:	b1 1d       	adc	r27, r1
    6ae8:	aa 1f       	adc	r26, r26
    6aea:	64 9f       	mul	r22, r20
    6aec:	66 27       	eor	r22, r22
    6aee:	b0 0d       	add	r27, r0
    6af0:	a1 1d       	adc	r26, r1
    6af2:	66 1f       	adc	r22, r22
    6af4:	82 9f       	mul	r24, r18
    6af6:	22 27       	eor	r18, r18
    6af8:	b0 0d       	add	r27, r0
    6afa:	a1 1d       	adc	r26, r1
    6afc:	62 1f       	adc	r22, r18
    6afe:	73 9f       	mul	r23, r19
    6b00:	b0 0d       	add	r27, r0
    6b02:	a1 1d       	adc	r26, r1
    6b04:	62 1f       	adc	r22, r18
    6b06:	83 9f       	mul	r24, r19
    6b08:	a0 0d       	add	r26, r0
    6b0a:	61 1d       	adc	r22, r1
    6b0c:	22 1f       	adc	r18, r18
    6b0e:	74 9f       	mul	r23, r20
    6b10:	33 27       	eor	r19, r19
    6b12:	a0 0d       	add	r26, r0
    6b14:	61 1d       	adc	r22, r1
    6b16:	23 1f       	adc	r18, r19
    6b18:	84 9f       	mul	r24, r20
    6b1a:	60 0d       	add	r22, r0
    6b1c:	21 1d       	adc	r18, r1
    6b1e:	82 2f       	mov	r24, r18
    6b20:	76 2f       	mov	r23, r22
    6b22:	6a 2f       	mov	r22, r26
    6b24:	11 24       	eor	r1, r1
    6b26:	9f 57       	subi	r25, 0x7F	; 127
    6b28:	50 40       	sbci	r21, 0x00	; 0
    6b2a:	9a f0       	brmi	.+38     	; 0x6b52 <__mulsf3_pse+0x88>
    6b2c:	f1 f0       	breq	.+60     	; 0x6b6a <__mulsf3_pse+0xa0>
    6b2e:	88 23       	and	r24, r24
    6b30:	4a f0       	brmi	.+18     	; 0x6b44 <__mulsf3_pse+0x7a>
    6b32:	ee 0f       	add	r30, r30
    6b34:	ff 1f       	adc	r31, r31
    6b36:	bb 1f       	adc	r27, r27
    6b38:	66 1f       	adc	r22, r22
    6b3a:	77 1f       	adc	r23, r23
    6b3c:	88 1f       	adc	r24, r24
    6b3e:	91 50       	subi	r25, 0x01	; 1
    6b40:	50 40       	sbci	r21, 0x00	; 0
    6b42:	a9 f7       	brne	.-22     	; 0x6b2e <__mulsf3_pse+0x64>
    6b44:	9e 3f       	cpi	r25, 0xFE	; 254
    6b46:	51 05       	cpc	r21, r1
    6b48:	80 f0       	brcs	.+32     	; 0x6b6a <__mulsf3_pse+0xa0>
    6b4a:	0c 94 fe 34 	jmp	0x69fc	; 0x69fc <__fp_inf>
    6b4e:	0c 94 49 35 	jmp	0x6a92	; 0x6a92 <__fp_szero>
    6b52:	5f 3f       	cpi	r21, 0xFF	; 255
    6b54:	e4 f3       	brlt	.-8      	; 0x6b4e <__mulsf3_pse+0x84>
    6b56:	98 3e       	cpi	r25, 0xE8	; 232
    6b58:	d4 f3       	brlt	.-12     	; 0x6b4e <__mulsf3_pse+0x84>
    6b5a:	86 95       	lsr	r24
    6b5c:	77 95       	ror	r23
    6b5e:	67 95       	ror	r22
    6b60:	b7 95       	ror	r27
    6b62:	f7 95       	ror	r31
    6b64:	e7 95       	ror	r30
    6b66:	9f 5f       	subi	r25, 0xFF	; 255
    6b68:	c1 f7       	brne	.-16     	; 0x6b5a <__mulsf3_pse+0x90>
    6b6a:	fe 2b       	or	r31, r30
    6b6c:	88 0f       	add	r24, r24
    6b6e:	91 1d       	adc	r25, r1
    6b70:	96 95       	lsr	r25
    6b72:	87 95       	ror	r24
    6b74:	97 f9       	bld	r25, 7
    6b76:	08 95       	ret

00006b78 <__udivmodhi4>:
/home/jenkins-mingw32/workspace/avr-gcc-staging/label/Ubuntu14.04x64-mingw32/gcc-build/avr/avr51/libgcc/../../../../gcc/libgcc/config/avr/lib1funcs.S:1408
    6b78:	aa 1b       	sub	r26, r26
/home/jenkins-mingw32/workspace/avr-gcc-staging/label/Ubuntu14.04x64-mingw32/gcc-build/avr/avr51/libgcc/../../../../gcc/libgcc/config/avr/lib1funcs.S:1409
    6b7a:	bb 1b       	sub	r27, r27
/home/jenkins-mingw32/workspace/avr-gcc-staging/label/Ubuntu14.04x64-mingw32/gcc-build/avr/avr51/libgcc/../../../../gcc/libgcc/config/avr/lib1funcs.S:1410
    6b7c:	51 e1       	ldi	r21, 0x11	; 17
/home/jenkins-mingw32/workspace/avr-gcc-staging/label/Ubuntu14.04x64-mingw32/gcc-build/avr/avr51/libgcc/../../../../gcc/libgcc/config/avr/lib1funcs.S:1411
    6b7e:	07 c0       	rjmp	.+14     	; 0x6b8e <__udivmodhi4_ep>

00006b80 <__udivmodhi4_loop>:
/home/jenkins-mingw32/workspace/avr-gcc-staging/label/Ubuntu14.04x64-mingw32/gcc-build/avr/avr51/libgcc/../../../../gcc/libgcc/config/avr/lib1funcs.S:1413
    6b80:	aa 1f       	adc	r26, r26
/home/jenkins-mingw32/workspace/avr-gcc-staging/label/Ubuntu14.04x64-mingw32/gcc-build/avr/avr51/libgcc/../../../../gcc/libgcc/config/avr/lib1funcs.S:1414
    6b82:	bb 1f       	adc	r27, r27
/home/jenkins-mingw32/workspace/avr-gcc-staging/label/Ubuntu14.04x64-mingw32/gcc-build/avr/avr51/libgcc/../../../../gcc/libgcc/config/avr/lib1funcs.S:1415
    6b84:	a6 17       	cp	r26, r22
/home/jenkins-mingw32/workspace/avr-gcc-staging/label/Ubuntu14.04x64-mingw32/gcc-build/avr/avr51/libgcc/../../../../gcc/libgcc/config/avr/lib1funcs.S:1416
    6b86:	b7 07       	cpc	r27, r23
/home/jenkins-mingw32/workspace/avr-gcc-staging/label/Ubuntu14.04x64-mingw32/gcc-build/avr/avr51/libgcc/../../../../gcc/libgcc/config/avr/lib1funcs.S:1417
    6b88:	10 f0       	brcs	.+4      	; 0x6b8e <__udivmodhi4_ep>
/home/jenkins-mingw32/workspace/avr-gcc-staging/label/Ubuntu14.04x64-mingw32/gcc-build/avr/avr51/libgcc/../../../../gcc/libgcc/config/avr/lib1funcs.S:1418
    6b8a:	a6 1b       	sub	r26, r22
/home/jenkins-mingw32/workspace/avr-gcc-staging/label/Ubuntu14.04x64-mingw32/gcc-build/avr/avr51/libgcc/../../../../gcc/libgcc/config/avr/lib1funcs.S:1419
    6b8c:	b7 0b       	sbc	r27, r23

00006b8e <__udivmodhi4_ep>:
/home/jenkins-mingw32/workspace/avr-gcc-staging/label/Ubuntu14.04x64-mingw32/gcc-build/avr/avr51/libgcc/../../../../gcc/libgcc/config/avr/lib1funcs.S:1421
    6b8e:	88 1f       	adc	r24, r24
/home/jenkins-mingw32/workspace/avr-gcc-staging/label/Ubuntu14.04x64-mingw32/gcc-build/avr/avr51/libgcc/../../../../gcc/libgcc/config/avr/lib1funcs.S:1422
    6b90:	99 1f       	adc	r25, r25
/home/jenkins-mingw32/workspace/avr-gcc-staging/label/Ubuntu14.04x64-mingw32/gcc-build/avr/avr51/libgcc/../../../../gcc/libgcc/config/avr/lib1funcs.S:1423
    6b92:	5a 95       	dec	r21
/home/jenkins-mingw32/workspace/avr-gcc-staging/label/Ubuntu14.04x64-mingw32/gcc-build/avr/avr51/libgcc/../../../../gcc/libgcc/config/avr/lib1funcs.S:1424
    6b94:	a9 f7       	brne	.-22     	; 0x6b80 <__udivmodhi4_loop>
__udivmodhi4_ep():
/home/jenkins-mingw32/workspace/avr-gcc-staging/label/Ubuntu14.04x64-mingw32/gcc-build/avr/avr51/libgcc/../../../../gcc/libgcc/config/avr/lib1funcs.S:1425
    6b96:	80 95       	com	r24
/home/jenkins-mingw32/workspace/avr-gcc-staging/label/Ubuntu14.04x64-mingw32/gcc-build/avr/avr51/libgcc/../../../../gcc/libgcc/config/avr/lib1funcs.S:1426
    6b98:	90 95       	com	r25
/home/jenkins-mingw32/workspace/avr-gcc-staging/label/Ubuntu14.04x64-mingw32/gcc-build/avr/avr51/libgcc/../../../../gcc/libgcc/config/avr/lib1funcs.S:1428
    6b9a:	bc 01       	movw	r22, r24
/home/jenkins-mingw32/workspace/avr-gcc-staging/label/Ubuntu14.04x64-mingw32/gcc-build/avr/avr51/libgcc/../../../../gcc/libgcc/config/avr/lib1funcs.S:1430
    6b9c:	cd 01       	movw	r24, r26
/home/jenkins-mingw32/workspace/avr-gcc-staging/label/Ubuntu14.04x64-mingw32/gcc-build/avr/avr51/libgcc/../../../../gcc/libgcc/config/avr/lib1funcs.S:1432
    6b9e:	08 95       	ret

00006ba0 <__divmodhi4>:
__divmodhi4():
/home/jenkins-mingw32/workspace/avr-gcc-staging/label/Ubuntu14.04x64-mingw32/gcc-build/avr/avr51/libgcc/../../../../gcc/libgcc/config/avr/lib1funcs.S:1440
    6ba0:	97 fb       	bst	r25, 7
/home/jenkins-mingw32/workspace/avr-gcc-staging/label/Ubuntu14.04x64-mingw32/gcc-build/avr/avr51/libgcc/../../../../gcc/libgcc/config/avr/lib1funcs.S:1441
    6ba2:	07 2e       	mov	r0, r23
/home/jenkins-mingw32/workspace/avr-gcc-staging/label/Ubuntu14.04x64-mingw32/gcc-build/avr/avr51/libgcc/../../../../gcc/libgcc/config/avr/lib1funcs.S:1442
    6ba4:	16 f4       	brtc	.+4      	; 0x6baa <__divmodhi4+0xa>
/home/jenkins-mingw32/workspace/avr-gcc-staging/label/Ubuntu14.04x64-mingw32/gcc-build/avr/avr51/libgcc/../../../../gcc/libgcc/config/avr/lib1funcs.S:1443
    6ba6:	00 94       	com	r0
/home/jenkins-mingw32/workspace/avr-gcc-staging/label/Ubuntu14.04x64-mingw32/gcc-build/avr/avr51/libgcc/../../../../gcc/libgcc/config/avr/lib1funcs.S:1444
    6ba8:	07 d0       	rcall	.+14     	; 0x6bb8 <__divmodhi4_neg1>
/home/jenkins-mingw32/workspace/avr-gcc-staging/label/Ubuntu14.04x64-mingw32/gcc-build/avr/avr51/libgcc/../../../../gcc/libgcc/config/avr/lib1funcs.S:1446
    6baa:	77 fd       	sbrc	r23, 7
/home/jenkins-mingw32/workspace/avr-gcc-staging/label/Ubuntu14.04x64-mingw32/gcc-build/avr/avr51/libgcc/../../../../gcc/libgcc/config/avr/lib1funcs.S:1447
    6bac:	09 d0       	rcall	.+18     	; 0x6bc0 <__divmodhi4_neg2>
/home/jenkins-mingw32/workspace/avr-gcc-staging/label/Ubuntu14.04x64-mingw32/gcc-build/avr/avr51/libgcc/../../../../gcc/libgcc/config/avr/lib1funcs.S:1448
    6bae:	0e 94 bc 35 	call	0x6b78	; 0x6b78 <__udivmodhi4>
/home/jenkins-mingw32/workspace/avr-gcc-staging/label/Ubuntu14.04x64-mingw32/gcc-build/avr/avr51/libgcc/../../../../gcc/libgcc/config/avr/lib1funcs.S:1449
    6bb2:	07 fc       	sbrc	r0, 7
/home/jenkins-mingw32/workspace/avr-gcc-staging/label/Ubuntu14.04x64-mingw32/gcc-build/avr/avr51/libgcc/../../../../gcc/libgcc/config/avr/lib1funcs.S:1450
    6bb4:	05 d0       	rcall	.+10     	; 0x6bc0 <__divmodhi4_neg2>
/home/jenkins-mingw32/workspace/avr-gcc-staging/label/Ubuntu14.04x64-mingw32/gcc-build/avr/avr51/libgcc/../../../../gcc/libgcc/config/avr/lib1funcs.S:1451
    6bb6:	3e f4       	brtc	.+14     	; 0x6bc6 <__divmodhi4_exit>

00006bb8 <__divmodhi4_neg1>:
/home/jenkins-mingw32/workspace/avr-gcc-staging/label/Ubuntu14.04x64-mingw32/gcc-build/avr/avr51/libgcc/../../../../gcc/libgcc/config/avr/lib1funcs.S:1454
    6bb8:	90 95       	com	r25
/home/jenkins-mingw32/workspace/avr-gcc-staging/label/Ubuntu14.04x64-mingw32/gcc-build/avr/avr51/libgcc/../../../../gcc/libgcc/config/avr/lib1funcs.S:1455
    6bba:	81 95       	neg	r24
/home/jenkins-mingw32/workspace/avr-gcc-staging/label/Ubuntu14.04x64-mingw32/gcc-build/avr/avr51/libgcc/../../../../gcc/libgcc/config/avr/lib1funcs.S:1456
    6bbc:	9f 4f       	sbci	r25, 0xFF	; 255
/home/jenkins-mingw32/workspace/avr-gcc-staging/label/Ubuntu14.04x64-mingw32/gcc-build/avr/avr51/libgcc/../../../../gcc/libgcc/config/avr/lib1funcs.S:1457
    6bbe:	08 95       	ret

00006bc0 <__divmodhi4_neg2>:
/home/jenkins-mingw32/workspace/avr-gcc-staging/label/Ubuntu14.04x64-mingw32/gcc-build/avr/avr51/libgcc/../../../../gcc/libgcc/config/avr/lib1funcs.S:1460
    6bc0:	70 95       	com	r23
/home/jenkins-mingw32/workspace/avr-gcc-staging/label/Ubuntu14.04x64-mingw32/gcc-build/avr/avr51/libgcc/../../../../gcc/libgcc/config/avr/lib1funcs.S:1461
    6bc2:	61 95       	neg	r22
/home/jenkins-mingw32/workspace/avr-gcc-staging/label/Ubuntu14.04x64-mingw32/gcc-build/avr/avr51/libgcc/../../../../gcc/libgcc/config/avr/lib1funcs.S:1462
    6bc4:	7f 4f       	sbci	r23, 0xFF	; 255

00006bc6 <__divmodhi4_exit>:
/home/jenkins-mingw32/workspace/avr-gcc-staging/label/Ubuntu14.04x64-mingw32/gcc-build/avr/avr51/libgcc/../../../../gcc/libgcc/config/avr/lib1funcs.S:1464
    6bc6:	08 95       	ret

00006bc8 <__udivmodsi4>:
__udivmodsi4():
/home/jenkins-mingw32/workspace/avr-gcc-staging/label/Ubuntu14.04x64-mingw32/gcc-build/avr/avr51/libgcc/../../../../gcc/libgcc/config/avr/lib1funcs.S:1638
    6bc8:	a1 e2       	ldi	r26, 0x21	; 33
/home/jenkins-mingw32/workspace/avr-gcc-staging/label/Ubuntu14.04x64-mingw32/gcc-build/avr/avr51/libgcc/../../../../gcc/libgcc/config/avr/lib1funcs.S:1639
    6bca:	1a 2e       	mov	r1, r26
/home/jenkins-mingw32/workspace/avr-gcc-staging/label/Ubuntu14.04x64-mingw32/gcc-build/avr/avr51/libgcc/../../../../gcc/libgcc/config/avr/lib1funcs.S:1640
    6bcc:	aa 1b       	sub	r26, r26
/home/jenkins-mingw32/workspace/avr-gcc-staging/label/Ubuntu14.04x64-mingw32/gcc-build/avr/avr51/libgcc/../../../../gcc/libgcc/config/avr/lib1funcs.S:1641
    6bce:	bb 1b       	sub	r27, r27
/home/jenkins-mingw32/workspace/avr-gcc-staging/label/Ubuntu14.04x64-mingw32/gcc-build/avr/avr51/libgcc/../../../../gcc/libgcc/config/avr/lib1funcs.S:1642
    6bd0:	fd 01       	movw	r30, r26
/home/jenkins-mingw32/workspace/avr-gcc-staging/label/Ubuntu14.04x64-mingw32/gcc-build/avr/avr51/libgcc/../../../../gcc/libgcc/config/avr/lib1funcs.S:1644
    6bd2:	0d c0       	rjmp	.+26     	; 0x6bee <__udivmodsi4_ep>

00006bd4 <__udivmodsi4_loop>:
/home/jenkins-mingw32/workspace/avr-gcc-staging/label/Ubuntu14.04x64-mingw32/gcc-build/avr/avr51/libgcc/../../../../gcc/libgcc/config/avr/lib1funcs.S:1646
    6bd4:	aa 1f       	adc	r26, r26
/home/jenkins-mingw32/workspace/avr-gcc-staging/label/Ubuntu14.04x64-mingw32/gcc-build/avr/avr51/libgcc/../../../../gcc/libgcc/config/avr/lib1funcs.S:1647
    6bd6:	bb 1f       	adc	r27, r27
/home/jenkins-mingw32/workspace/avr-gcc-staging/label/Ubuntu14.04x64-mingw32/gcc-build/avr/avr51/libgcc/../../../../gcc/libgcc/config/avr/lib1funcs.S:1648
    6bd8:	ee 1f       	adc	r30, r30
/home/jenkins-mingw32/workspace/avr-gcc-staging/label/Ubuntu14.04x64-mingw32/gcc-build/avr/avr51/libgcc/../../../../gcc/libgcc/config/avr/lib1funcs.S:1649
    6bda:	ff 1f       	adc	r31, r31
/home/jenkins-mingw32/workspace/avr-gcc-staging/label/Ubuntu14.04x64-mingw32/gcc-build/avr/avr51/libgcc/../../../../gcc/libgcc/config/avr/lib1funcs.S:1650
    6bdc:	a2 17       	cp	r26, r18
/home/jenkins-mingw32/workspace/avr-gcc-staging/label/Ubuntu14.04x64-mingw32/gcc-build/avr/avr51/libgcc/../../../../gcc/libgcc/config/avr/lib1funcs.S:1651
    6bde:	b3 07       	cpc	r27, r19
/home/jenkins-mingw32/workspace/avr-gcc-staging/label/Ubuntu14.04x64-mingw32/gcc-build/avr/avr51/libgcc/../../../../gcc/libgcc/config/avr/lib1funcs.S:1652
    6be0:	e4 07       	cpc	r30, r20
/home/jenkins-mingw32/workspace/avr-gcc-staging/label/Ubuntu14.04x64-mingw32/gcc-build/avr/avr51/libgcc/../../../../gcc/libgcc/config/avr/lib1funcs.S:1653
    6be2:	f5 07       	cpc	r31, r21
/home/jenkins-mingw32/workspace/avr-gcc-staging/label/Ubuntu14.04x64-mingw32/gcc-build/avr/avr51/libgcc/../../../../gcc/libgcc/config/avr/lib1funcs.S:1654
    6be4:	20 f0       	brcs	.+8      	; 0x6bee <__udivmodsi4_ep>
/home/jenkins-mingw32/workspace/avr-gcc-staging/label/Ubuntu14.04x64-mingw32/gcc-build/avr/avr51/libgcc/../../../../gcc/libgcc/config/avr/lib1funcs.S:1655
    6be6:	a2 1b       	sub	r26, r18
/home/jenkins-mingw32/workspace/avr-gcc-staging/label/Ubuntu14.04x64-mingw32/gcc-build/avr/avr51/libgcc/../../../../gcc/libgcc/config/avr/lib1funcs.S:1656
    6be8:	b3 0b       	sbc	r27, r19
/home/jenkins-mingw32/workspace/avr-gcc-staging/label/Ubuntu14.04x64-mingw32/gcc-build/avr/avr51/libgcc/../../../../gcc/libgcc/config/avr/lib1funcs.S:1657
    6bea:	e4 0b       	sbc	r30, r20
/home/jenkins-mingw32/workspace/avr-gcc-staging/label/Ubuntu14.04x64-mingw32/gcc-build/avr/avr51/libgcc/../../../../gcc/libgcc/config/avr/lib1funcs.S:1658
    6bec:	f5 0b       	sbc	r31, r21

00006bee <__udivmodsi4_ep>:
/home/jenkins-mingw32/workspace/avr-gcc-staging/label/Ubuntu14.04x64-mingw32/gcc-build/avr/avr51/libgcc/../../../../gcc/libgcc/config/avr/lib1funcs.S:1660
    6bee:	66 1f       	adc	r22, r22
/home/jenkins-mingw32/workspace/avr-gcc-staging/label/Ubuntu14.04x64-mingw32/gcc-build/avr/avr51/libgcc/../../../../gcc/libgcc/config/avr/lib1funcs.S:1661
    6bf0:	77 1f       	adc	r23, r23
/home/jenkins-mingw32/workspace/avr-gcc-staging/label/Ubuntu14.04x64-mingw32/gcc-build/avr/avr51/libgcc/../../../../gcc/libgcc/config/avr/lib1funcs.S:1662
    6bf2:	88 1f       	adc	r24, r24
/home/jenkins-mingw32/workspace/avr-gcc-staging/label/Ubuntu14.04x64-mingw32/gcc-build/avr/avr51/libgcc/../../../../gcc/libgcc/config/avr/lib1funcs.S:1663
    6bf4:	99 1f       	adc	r25, r25
/home/jenkins-mingw32/workspace/avr-gcc-staging/label/Ubuntu14.04x64-mingw32/gcc-build/avr/avr51/libgcc/../../../../gcc/libgcc/config/avr/lib1funcs.S:1664
    6bf6:	1a 94       	dec	r1
/home/jenkins-mingw32/workspace/avr-gcc-staging/label/Ubuntu14.04x64-mingw32/gcc-build/avr/avr51/libgcc/../../../../gcc/libgcc/config/avr/lib1funcs.S:1665
    6bf8:	69 f7       	brne	.-38     	; 0x6bd4 <__udivmodsi4_loop>
/home/jenkins-mingw32/workspace/avr-gcc-staging/label/Ubuntu14.04x64-mingw32/gcc-build/avr/avr51/libgcc/../../../../gcc/libgcc/config/avr/lib1funcs.S:1667
    6bfa:	60 95       	com	r22
/home/jenkins-mingw32/workspace/avr-gcc-staging/label/Ubuntu14.04x64-mingw32/gcc-build/avr/avr51/libgcc/../../../../gcc/libgcc/config/avr/lib1funcs.S:1668
    6bfc:	70 95       	com	r23
/home/jenkins-mingw32/workspace/avr-gcc-staging/label/Ubuntu14.04x64-mingw32/gcc-build/avr/avr51/libgcc/../../../../gcc/libgcc/config/avr/lib1funcs.S:1669
    6bfe:	80 95       	com	r24
/home/jenkins-mingw32/workspace/avr-gcc-staging/label/Ubuntu14.04x64-mingw32/gcc-build/avr/avr51/libgcc/../../../../gcc/libgcc/config/avr/lib1funcs.S:1670
    6c00:	90 95       	com	r25
/home/jenkins-mingw32/workspace/avr-gcc-staging/label/Ubuntu14.04x64-mingw32/gcc-build/avr/avr51/libgcc/../../../../gcc/libgcc/config/avr/lib1funcs.S:1672
    6c02:	9b 01       	movw	r18, r22
/home/jenkins-mingw32/workspace/avr-gcc-staging/label/Ubuntu14.04x64-mingw32/gcc-build/avr/avr51/libgcc/../../../../gcc/libgcc/config/avr/lib1funcs.S:1674
    6c04:	ac 01       	movw	r20, r24
/home/jenkins-mingw32/workspace/avr-gcc-staging/label/Ubuntu14.04x64-mingw32/gcc-build/avr/avr51/libgcc/../../../../gcc/libgcc/config/avr/lib1funcs.S:1676
    6c06:	bd 01       	movw	r22, r26
/home/jenkins-mingw32/workspace/avr-gcc-staging/label/Ubuntu14.04x64-mingw32/gcc-build/avr/avr51/libgcc/../../../../gcc/libgcc/config/avr/lib1funcs.S:1678
    6c08:	cf 01       	movw	r24, r30
/home/jenkins-mingw32/workspace/avr-gcc-staging/label/Ubuntu14.04x64-mingw32/gcc-build/avr/avr51/libgcc/../../../../gcc/libgcc/config/avr/lib1funcs.S:1680
    6c0a:	08 95       	ret

00006c0c <__divmodsi4>:
__divmodsi4():
/home/jenkins-mingw32/workspace/avr-gcc-staging/label/Ubuntu14.04x64-mingw32/gcc-build/avr/avr51/libgcc/../../../../gcc/libgcc/config/avr/lib1funcs.S:1686
    6c0c:	05 2e       	mov	r0, r21
/home/jenkins-mingw32/workspace/avr-gcc-staging/label/Ubuntu14.04x64-mingw32/gcc-build/avr/avr51/libgcc/../../../../gcc/libgcc/config/avr/lib1funcs.S:1687
    6c0e:	97 fb       	bst	r25, 7
/home/jenkins-mingw32/workspace/avr-gcc-staging/label/Ubuntu14.04x64-mingw32/gcc-build/avr/avr51/libgcc/../../../../gcc/libgcc/config/avr/lib1funcs.S:1688
    6c10:	1e f4       	brtc	.+6      	; 0x6c18 <__divmodsi4+0xc>
/home/jenkins-mingw32/workspace/avr-gcc-staging/label/Ubuntu14.04x64-mingw32/gcc-build/avr/avr51/libgcc/../../../../gcc/libgcc/config/avr/lib1funcs.S:1689
    6c12:	00 94       	com	r0
/home/jenkins-mingw32/workspace/avr-gcc-staging/label/Ubuntu14.04x64-mingw32/gcc-build/avr/avr51/libgcc/../../../../gcc/libgcc/config/avr/lib1funcs.S:1690
    6c14:	0e 94 1d 36 	call	0x6c3a	; 0x6c3a <__negsi2>
/home/jenkins-mingw32/workspace/avr-gcc-staging/label/Ubuntu14.04x64-mingw32/gcc-build/avr/avr51/libgcc/../../../../gcc/libgcc/config/avr/lib1funcs.S:1692
    6c18:	57 fd       	sbrc	r21, 7
/home/jenkins-mingw32/workspace/avr-gcc-staging/label/Ubuntu14.04x64-mingw32/gcc-build/avr/avr51/libgcc/../../../../gcc/libgcc/config/avr/lib1funcs.S:1693
    6c1a:	07 d0       	rcall	.+14     	; 0x6c2a <__divmodsi4_neg2>
/home/jenkins-mingw32/workspace/avr-gcc-staging/label/Ubuntu14.04x64-mingw32/gcc-build/avr/avr51/libgcc/../../../../gcc/libgcc/config/avr/lib1funcs.S:1694
    6c1c:	0e 94 e4 35 	call	0x6bc8	; 0x6bc8 <__udivmodsi4>
/home/jenkins-mingw32/workspace/avr-gcc-staging/label/Ubuntu14.04x64-mingw32/gcc-build/avr/avr51/libgcc/../../../../gcc/libgcc/config/avr/lib1funcs.S:1695
    6c20:	07 fc       	sbrc	r0, 7
/home/jenkins-mingw32/workspace/avr-gcc-staging/label/Ubuntu14.04x64-mingw32/gcc-build/avr/avr51/libgcc/../../../../gcc/libgcc/config/avr/lib1funcs.S:1696
    6c22:	03 d0       	rcall	.+6      	; 0x6c2a <__divmodsi4_neg2>
/home/jenkins-mingw32/workspace/avr-gcc-staging/label/Ubuntu14.04x64-mingw32/gcc-build/avr/avr51/libgcc/../../../../gcc/libgcc/config/avr/lib1funcs.S:1697
    6c24:	4e f4       	brtc	.+18     	; 0x6c38 <__divmodsi4_exit>
/home/jenkins-mingw32/workspace/avr-gcc-staging/label/Ubuntu14.04x64-mingw32/gcc-build/avr/avr51/libgcc/../../../../gcc/libgcc/config/avr/lib1funcs.S:1698
    6c26:	0c 94 1d 36 	jmp	0x6c3a	; 0x6c3a <__negsi2>

00006c2a <__divmodsi4_neg2>:
/home/jenkins-mingw32/workspace/avr-gcc-staging/label/Ubuntu14.04x64-mingw32/gcc-build/avr/avr51/libgcc/../../../../gcc/libgcc/config/avr/lib1funcs.S:1701
    6c2a:	50 95       	com	r21
/home/jenkins-mingw32/workspace/avr-gcc-staging/label/Ubuntu14.04x64-mingw32/gcc-build/avr/avr51/libgcc/../../../../gcc/libgcc/config/avr/lib1funcs.S:1702
    6c2c:	40 95       	com	r20
/home/jenkins-mingw32/workspace/avr-gcc-staging/label/Ubuntu14.04x64-mingw32/gcc-build/avr/avr51/libgcc/../../../../gcc/libgcc/config/avr/lib1funcs.S:1703
    6c2e:	30 95       	com	r19
/home/jenkins-mingw32/workspace/avr-gcc-staging/label/Ubuntu14.04x64-mingw32/gcc-build/avr/avr51/libgcc/../../../../gcc/libgcc/config/avr/lib1funcs.S:1704
    6c30:	21 95       	neg	r18
/home/jenkins-mingw32/workspace/avr-gcc-staging/label/Ubuntu14.04x64-mingw32/gcc-build/avr/avr51/libgcc/../../../../gcc/libgcc/config/avr/lib1funcs.S:1705
    6c32:	3f 4f       	sbci	r19, 0xFF	; 255
/home/jenkins-mingw32/workspace/avr-gcc-staging/label/Ubuntu14.04x64-mingw32/gcc-build/avr/avr51/libgcc/../../../../gcc/libgcc/config/avr/lib1funcs.S:1706
    6c34:	4f 4f       	sbci	r20, 0xFF	; 255
/home/jenkins-mingw32/workspace/avr-gcc-staging/label/Ubuntu14.04x64-mingw32/gcc-build/avr/avr51/libgcc/../../../../gcc/libgcc/config/avr/lib1funcs.S:1707
    6c36:	5f 4f       	sbci	r21, 0xFF	; 255

00006c38 <__divmodsi4_exit>:
/home/jenkins-mingw32/workspace/avr-gcc-staging/label/Ubuntu14.04x64-mingw32/gcc-build/avr/avr51/libgcc/../../../../gcc/libgcc/config/avr/lib1funcs.S:1709
    6c38:	08 95       	ret

00006c3a <__negsi2>:
__negsi2():
/home/jenkins-mingw32/workspace/avr-gcc-staging/label/Ubuntu14.04x64-mingw32/gcc-build/avr/avr51/libgcc/../../../../gcc/libgcc/config/avr/lib1funcs.S:1718
    6c3a:	90 95       	com	r25
    6c3c:	80 95       	com	r24
    6c3e:	70 95       	com	r23
    6c40:	61 95       	neg	r22
    6c42:	7f 4f       	sbci	r23, 0xFF	; 255
    6c44:	8f 4f       	sbci	r24, 0xFF	; 255
    6c46:	9f 4f       	sbci	r25, 0xFF	; 255
/home/jenkins-mingw32/workspace/avr-gcc-staging/label/Ubuntu14.04x64-mingw32/gcc-build/avr/avr51/libgcc/../../../../gcc/libgcc/config/avr/lib1funcs.S:1719
    6c48:	08 95       	ret

00006c4a <__tablejump2__>:
__tablejump2__():
/home/jenkins-mingw32/workspace/avr-gcc-staging/label/Ubuntu14.04x64-mingw32/gcc-build/avr/avr51/libgcc/../../../../gcc/libgcc/config/avr/lib1funcs.S:2296
    6c4a:	ee 0f       	add	r30, r30
/home/jenkins-mingw32/workspace/avr-gcc-staging/label/Ubuntu14.04x64-mingw32/gcc-build/avr/avr51/libgcc/../../../../gcc/libgcc/config/avr/lib1funcs.S:2297
    6c4c:	ff 1f       	adc	r31, r31
/home/jenkins-mingw32/workspace/avr-gcc-staging/label/Ubuntu14.04x64-mingw32/gcc-build/avr/avr51/libgcc/../../../../gcc/libgcc/config/avr/lib1funcs.S:2304
    6c4e:	00 24       	eor	r0, r0
/home/jenkins-mingw32/workspace/avr-gcc-staging/label/Ubuntu14.04x64-mingw32/gcc-build/avr/avr51/libgcc/../../../../gcc/libgcc/config/avr/lib1funcs.S:2305
    6c50:	00 1c       	adc	r0, r0
/home/jenkins-mingw32/workspace/avr-gcc-staging/label/Ubuntu14.04x64-mingw32/gcc-build/avr/avr51/libgcc/../../../../gcc/libgcc/config/avr/lib1funcs.S:2306
    6c52:	0b be       	out	0x3b, r0	; 59
/home/jenkins-mingw32/workspace/avr-gcc-staging/label/Ubuntu14.04x64-mingw32/gcc-build/avr/avr51/libgcc/../../../../gcc/libgcc/config/avr/lib1funcs.S:2312
    6c54:	07 90       	elpm	r0, Z+
/home/jenkins-mingw32/workspace/avr-gcc-staging/label/Ubuntu14.04x64-mingw32/gcc-build/avr/avr51/libgcc/../../../../gcc/libgcc/config/avr/lib1funcs.S:2313
    6c56:	f6 91       	elpm	r31, Z
/home/jenkins-mingw32/workspace/avr-gcc-staging/label/Ubuntu14.04x64-mingw32/gcc-build/avr/avr51/libgcc/../../../../gcc/libgcc/config/avr/lib1funcs.S:2314
    6c58:	e0 2d       	mov	r30, r0
/home/jenkins-mingw32/workspace/avr-gcc-staging/label/Ubuntu14.04x64-mingw32/gcc-build/avr/avr51/libgcc/../../../../gcc/libgcc/config/avr/lib1funcs.S:2319
    6c5a:	09 94       	ijmp

00006c5c <__muluhisi3>:
__muluhisi3():
/home/jenkins-mingw32/workspace/avr-gcc-staging/label/Ubuntu14.04x64-mingw32/gcc-build/avr/avr51/libgcc/../../../../gcc/libgcc/config/avr/lib1funcs.S:626
    6c5c:	0e 94 39 36 	call	0x6c72	; 0x6c72 <__umulhisi3>
/home/jenkins-mingw32/workspace/avr-gcc-staging/label/Ubuntu14.04x64-mingw32/gcc-build/avr/avr51/libgcc/../../../../gcc/libgcc/config/avr/lib1funcs.S:627
    6c60:	a5 9f       	mul	r26, r21
/home/jenkins-mingw32/workspace/avr-gcc-staging/label/Ubuntu14.04x64-mingw32/gcc-build/avr/avr51/libgcc/../../../../gcc/libgcc/config/avr/lib1funcs.S:628
    6c62:	90 0d       	add	r25, r0
/home/jenkins-mingw32/workspace/avr-gcc-staging/label/Ubuntu14.04x64-mingw32/gcc-build/avr/avr51/libgcc/../../../../gcc/libgcc/config/avr/lib1funcs.S:629
    6c64:	b4 9f       	mul	r27, r20
/home/jenkins-mingw32/workspace/avr-gcc-staging/label/Ubuntu14.04x64-mingw32/gcc-build/avr/avr51/libgcc/../../../../gcc/libgcc/config/avr/lib1funcs.S:630
    6c66:	90 0d       	add	r25, r0
/home/jenkins-mingw32/workspace/avr-gcc-staging/label/Ubuntu14.04x64-mingw32/gcc-build/avr/avr51/libgcc/../../../../gcc/libgcc/config/avr/lib1funcs.S:631
    6c68:	a4 9f       	mul	r26, r20
/home/jenkins-mingw32/workspace/avr-gcc-staging/label/Ubuntu14.04x64-mingw32/gcc-build/avr/avr51/libgcc/../../../../gcc/libgcc/config/avr/lib1funcs.S:632
    6c6a:	80 0d       	add	r24, r0
/home/jenkins-mingw32/workspace/avr-gcc-staging/label/Ubuntu14.04x64-mingw32/gcc-build/avr/avr51/libgcc/../../../../gcc/libgcc/config/avr/lib1funcs.S:633
    6c6c:	91 1d       	adc	r25, r1
/home/jenkins-mingw32/workspace/avr-gcc-staging/label/Ubuntu14.04x64-mingw32/gcc-build/avr/avr51/libgcc/../../../../gcc/libgcc/config/avr/lib1funcs.S:634
    6c6e:	11 24       	eor	r1, r1
/home/jenkins-mingw32/workspace/avr-gcc-staging/label/Ubuntu14.04x64-mingw32/gcc-build/avr/avr51/libgcc/../../../../gcc/libgcc/config/avr/lib1funcs.S:635
    6c70:	08 95       	ret

00006c72 <__umulhisi3>:
__umulhisi3():
/home/jenkins-mingw32/workspace/avr-gcc-staging/label/Ubuntu14.04x64-mingw32/gcc-build/avr/avr51/libgcc/../../../../gcc/libgcc/config/avr/lib1funcs.S:564
    6c72:	a2 9f       	mul	r26, r18
/home/jenkins-mingw32/workspace/avr-gcc-staging/label/Ubuntu14.04x64-mingw32/gcc-build/avr/avr51/libgcc/../../../../gcc/libgcc/config/avr/lib1funcs.S:565
    6c74:	b0 01       	movw	r22, r0
/home/jenkins-mingw32/workspace/avr-gcc-staging/label/Ubuntu14.04x64-mingw32/gcc-build/avr/avr51/libgcc/../../../../gcc/libgcc/config/avr/lib1funcs.S:566
    6c76:	b3 9f       	mul	r27, r19
/home/jenkins-mingw32/workspace/avr-gcc-staging/label/Ubuntu14.04x64-mingw32/gcc-build/avr/avr51/libgcc/../../../../gcc/libgcc/config/avr/lib1funcs.S:567
    6c78:	c0 01       	movw	r24, r0
/home/jenkins-mingw32/workspace/avr-gcc-staging/label/Ubuntu14.04x64-mingw32/gcc-build/avr/avr51/libgcc/../../../../gcc/libgcc/config/avr/lib1funcs.S:568
    6c7a:	a3 9f       	mul	r26, r19
/home/jenkins-mingw32/workspace/avr-gcc-staging/label/Ubuntu14.04x64-mingw32/gcc-build/avr/avr51/libgcc/../../../../gcc/libgcc/config/avr/lib1funcs.S:573
    6c7c:	70 0d       	add	r23, r0
/home/jenkins-mingw32/workspace/avr-gcc-staging/label/Ubuntu14.04x64-mingw32/gcc-build/avr/avr51/libgcc/../../../../gcc/libgcc/config/avr/lib1funcs.S:574
    6c7e:	81 1d       	adc	r24, r1
/home/jenkins-mingw32/workspace/avr-gcc-staging/label/Ubuntu14.04x64-mingw32/gcc-build/avr/avr51/libgcc/../../../../gcc/libgcc/config/avr/lib1funcs.S:575
    6c80:	11 24       	eor	r1, r1
/home/jenkins-mingw32/workspace/avr-gcc-staging/label/Ubuntu14.04x64-mingw32/gcc-build/avr/avr51/libgcc/../../../../gcc/libgcc/config/avr/lib1funcs.S:576
    6c82:	91 1d       	adc	r25, r1
/home/jenkins-mingw32/workspace/avr-gcc-staging/label/Ubuntu14.04x64-mingw32/gcc-build/avr/avr51/libgcc/../../../../gcc/libgcc/config/avr/lib1funcs.S:580
    6c84:	b2 9f       	mul	r27, r18
/home/jenkins-mingw32/workspace/avr-gcc-staging/label/Ubuntu14.04x64-mingw32/gcc-build/avr/avr51/libgcc/../../../../gcc/libgcc/config/avr/lib1funcs.S:581
    6c86:	70 0d       	add	r23, r0
/home/jenkins-mingw32/workspace/avr-gcc-staging/label/Ubuntu14.04x64-mingw32/gcc-build/avr/avr51/libgcc/../../../../gcc/libgcc/config/avr/lib1funcs.S:582
    6c88:	81 1d       	adc	r24, r1
/home/jenkins-mingw32/workspace/avr-gcc-staging/label/Ubuntu14.04x64-mingw32/gcc-build/avr/avr51/libgcc/../../../../gcc/libgcc/config/avr/lib1funcs.S:583
    6c8a:	11 24       	eor	r1, r1
/home/jenkins-mingw32/workspace/avr-gcc-staging/label/Ubuntu14.04x64-mingw32/gcc-build/avr/avr51/libgcc/../../../../gcc/libgcc/config/avr/lib1funcs.S:584
    6c8c:	91 1d       	adc	r25, r1
/home/jenkins-mingw32/workspace/avr-gcc-staging/label/Ubuntu14.04x64-mingw32/gcc-build/avr/avr51/libgcc/../../../../gcc/libgcc/config/avr/lib1funcs.S:585
    6c8e:	08 95       	ret

00006c90 <_exit>:
exit():
/home/jenkins-mingw32/workspace/avr-gcc-staging/label/Ubuntu14.04x64-mingw32/gcc-build/avr/avr51/libgcc/../../../../gcc/libgcc/config/avr/lib1funcs.S:2278
    6c90:	f8 94       	cli

00006c92 <__stop_program>:
__stop_program():
/home/jenkins-mingw32/workspace/avr-gcc-staging/label/Ubuntu14.04x64-mingw32/gcc-build/avr/avr51/libgcc/../../../../gcc/libgcc/config/avr/lib1funcs.S:2280
    6c92:	ff cf       	rjmp	.-2      	; 0x6c92 <__stop_program>
